
Brazo.elf:     file format elf32-littlearm

Sections:
Idx Name          Size      VMA       LMA       File off  Algn
  0 .isr_vector   0000010c  08000000  08000000  00001000  2**0
                  CONTENTS, ALLOC, LOAD, READONLY, DATA
  1 .text         000089dc  08000110  08000110  00001110  2**3
                  CONTENTS, ALLOC, LOAD, READONLY, CODE
  2 .rodata       000007a0  08008aec  08008aec  00009aec  2**2
                  CONTENTS, ALLOC, LOAD, READONLY, DATA
  3 .ARM.extab    00000000  0800928c  0800928c  0000b064  2**0
                  CONTENTS, READONLY
  4 .ARM          00000008  0800928c  0800928c  0000a28c  2**2
                  CONTENTS, ALLOC, LOAD, READONLY, DATA
  5 .preinit_array 00000000  08009294  08009294  0000b064  2**0
                  CONTENTS, ALLOC, LOAD, DATA
  6 .init_array   00000004  08009294  08009294  0000a294  2**2
                  CONTENTS, ALLOC, LOAD, READONLY, DATA
  7 .fini_array   00000004  08009298  08009298  0000a298  2**2
                  CONTENTS, ALLOC, LOAD, READONLY, DATA
  8 .data         00000064  20000000  0800929c  0000b000  2**2
                  CONTENTS, ALLOC, LOAD, DATA
  9 .bss          000007fc  20000064  08009300  0000b064  2**2
                  ALLOC
 10 ._user_heap_stack 00000600  20000860  08009300  0000b860  2**0
                  ALLOC
 11 .ARM.attributes 00000029  00000000  00000000  0000b064  2**0
                  CONTENTS, READONLY
 12 .debug_info   00015de9  00000000  00000000  0000b08d  2**0
                  CONTENTS, READONLY, DEBUGGING, OCTETS
 13 .debug_abbrev 00003267  00000000  00000000  00020e76  2**0
                  CONTENTS, READONLY, DEBUGGING, OCTETS
 14 .debug_aranges 000015c8  00000000  00000000  000240e0  2**3
                  CONTENTS, READONLY, DEBUGGING, OCTETS
 15 .debug_rnglists 00001102  00000000  00000000  000256a8  2**0
                  CONTENTS, READONLY, DEBUGGING, OCTETS
 16 .debug_macro  0001a88b  00000000  00000000  000267aa  2**0
                  CONTENTS, READONLY, DEBUGGING, OCTETS
 17 .debug_line   00019aea  00000000  00000000  00041035  2**0
                  CONTENTS, READONLY, DEBUGGING, OCTETS
 18 .debug_str    00095982  00000000  00000000  0005ab1f  2**0
                  CONTENTS, READONLY, DEBUGGING, OCTETS
 19 .comment      00000043  00000000  00000000  000f04a1  2**0
                  CONTENTS, READONLY
 20 .debug_frame  00006268  00000000  00000000  000f04e4  2**2
                  CONTENTS, READONLY, DEBUGGING, OCTETS
 21 .debug_line_str 00000077  00000000  00000000  000f674c  2**0
                  CONTENTS, READONLY, DEBUGGING, OCTETS

Disassembly of section .text:

08000110 <__do_global_dtors_aux>:
 8000110:	b510      	push	{r4, lr}
 8000112:	4c05      	ldr	r4, [pc, #20]	@ (8000128 <__do_global_dtors_aux+0x18>)
 8000114:	7823      	ldrb	r3, [r4, #0]
 8000116:	b933      	cbnz	r3, 8000126 <__do_global_dtors_aux+0x16>
 8000118:	4b04      	ldr	r3, [pc, #16]	@ (800012c <__do_global_dtors_aux+0x1c>)
 800011a:	b113      	cbz	r3, 8000122 <__do_global_dtors_aux+0x12>
 800011c:	4804      	ldr	r0, [pc, #16]	@ (8000130 <__do_global_dtors_aux+0x20>)
 800011e:	f3af 8000 	nop.w
 8000122:	2301      	movs	r3, #1
 8000124:	7023      	strb	r3, [r4, #0]
 8000126:	bd10      	pop	{r4, pc}
 8000128:	20000064 	.word	0x20000064
 800012c:	00000000 	.word	0x00000000
 8000130:	08008ad4 	.word	0x08008ad4

08000134 <frame_dummy>:
 8000134:	b508      	push	{r3, lr}
 8000136:	4b03      	ldr	r3, [pc, #12]	@ (8000144 <frame_dummy+0x10>)
 8000138:	b11b      	cbz	r3, 8000142 <frame_dummy+0xe>
 800013a:	4903      	ldr	r1, [pc, #12]	@ (8000148 <frame_dummy+0x14>)
 800013c:	4803      	ldr	r0, [pc, #12]	@ (800014c <frame_dummy+0x18>)
 800013e:	f3af 8000 	nop.w
 8000142:	bd08      	pop	{r3, pc}
 8000144:	00000000 	.word	0x00000000
 8000148:	20000068 	.word	0x20000068
 800014c:	08008ad4 	.word	0x08008ad4

08000150 <strlen>:
 8000150:	4603      	mov	r3, r0
 8000152:	f813 2b01 	ldrb.w	r2, [r3], #1
 8000156:	2a00      	cmp	r2, #0
 8000158:	d1fb      	bne.n	8000152 <strlen+0x2>
 800015a:	1a18      	subs	r0, r3, r0
 800015c:	3801      	subs	r0, #1
 800015e:	4770      	bx	lr

08000160 <__aeabi_drsub>:
 8000160:	f081 4100 	eor.w	r1, r1, #2147483648	@ 0x80000000
 8000164:	e002      	b.n	800016c <__adddf3>
 8000166:	bf00      	nop

08000168 <__aeabi_dsub>:
 8000168:	f083 4300 	eor.w	r3, r3, #2147483648	@ 0x80000000

0800016c <__adddf3>:
 800016c:	b530      	push	{r4, r5, lr}
 800016e:	ea4f 0441 	mov.w	r4, r1, lsl #1
 8000172:	ea4f 0543 	mov.w	r5, r3, lsl #1
 8000176:	ea94 0f05 	teq	r4, r5
 800017a:	bf08      	it	eq
 800017c:	ea90 0f02 	teqeq	r0, r2
 8000180:	bf1f      	itttt	ne
 8000182:	ea54 0c00 	orrsne.w	ip, r4, r0
 8000186:	ea55 0c02 	orrsne.w	ip, r5, r2
 800018a:	ea7f 5c64 	mvnsne.w	ip, r4, asr #21
 800018e:	ea7f 5c65 	mvnsne.w	ip, r5, asr #21
 8000192:	f000 80e2 	beq.w	800035a <__adddf3+0x1ee>
 8000196:	ea4f 5454 	mov.w	r4, r4, lsr #21
 800019a:	ebd4 5555 	rsbs	r5, r4, r5, lsr #21
 800019e:	bfb8      	it	lt
 80001a0:	426d      	neglt	r5, r5
 80001a2:	dd0c      	ble.n	80001be <__adddf3+0x52>
 80001a4:	442c      	add	r4, r5
 80001a6:	ea80 0202 	eor.w	r2, r0, r2
 80001aa:	ea81 0303 	eor.w	r3, r1, r3
 80001ae:	ea82 0000 	eor.w	r0, r2, r0
 80001b2:	ea83 0101 	eor.w	r1, r3, r1
 80001b6:	ea80 0202 	eor.w	r2, r0, r2
 80001ba:	ea81 0303 	eor.w	r3, r1, r3
 80001be:	2d36      	cmp	r5, #54	@ 0x36
 80001c0:	bf88      	it	hi
 80001c2:	bd30      	pophi	{r4, r5, pc}
 80001c4:	f011 4f00 	tst.w	r1, #2147483648	@ 0x80000000
 80001c8:	ea4f 3101 	mov.w	r1, r1, lsl #12
 80001cc:	f44f 1c80 	mov.w	ip, #1048576	@ 0x100000
 80001d0:	ea4c 3111 	orr.w	r1, ip, r1, lsr #12
 80001d4:	d002      	beq.n	80001dc <__adddf3+0x70>
 80001d6:	4240      	negs	r0, r0
 80001d8:	eb61 0141 	sbc.w	r1, r1, r1, lsl #1
 80001dc:	f013 4f00 	tst.w	r3, #2147483648	@ 0x80000000
 80001e0:	ea4f 3303 	mov.w	r3, r3, lsl #12
 80001e4:	ea4c 3313 	orr.w	r3, ip, r3, lsr #12
 80001e8:	d002      	beq.n	80001f0 <__adddf3+0x84>
 80001ea:	4252      	negs	r2, r2
 80001ec:	eb63 0343 	sbc.w	r3, r3, r3, lsl #1
 80001f0:	ea94 0f05 	teq	r4, r5
 80001f4:	f000 80a7 	beq.w	8000346 <__adddf3+0x1da>
 80001f8:	f1a4 0401 	sub.w	r4, r4, #1
 80001fc:	f1d5 0e20 	rsbs	lr, r5, #32
 8000200:	db0d      	blt.n	800021e <__adddf3+0xb2>
 8000202:	fa02 fc0e 	lsl.w	ip, r2, lr
 8000206:	fa22 f205 	lsr.w	r2, r2, r5
 800020a:	1880      	adds	r0, r0, r2
 800020c:	f141 0100 	adc.w	r1, r1, #0
 8000210:	fa03 f20e 	lsl.w	r2, r3, lr
 8000214:	1880      	adds	r0, r0, r2
 8000216:	fa43 f305 	asr.w	r3, r3, r5
 800021a:	4159      	adcs	r1, r3
 800021c:	e00e      	b.n	800023c <__adddf3+0xd0>
 800021e:	f1a5 0520 	sub.w	r5, r5, #32
 8000222:	f10e 0e20 	add.w	lr, lr, #32
 8000226:	2a01      	cmp	r2, #1
 8000228:	fa03 fc0e 	lsl.w	ip, r3, lr
 800022c:	bf28      	it	cs
 800022e:	f04c 0c02 	orrcs.w	ip, ip, #2
 8000232:	fa43 f305 	asr.w	r3, r3, r5
 8000236:	18c0      	adds	r0, r0, r3
 8000238:	eb51 71e3 	adcs.w	r1, r1, r3, asr #31
 800023c:	f001 4500 	and.w	r5, r1, #2147483648	@ 0x80000000
 8000240:	d507      	bpl.n	8000252 <__adddf3+0xe6>
 8000242:	f04f 0e00 	mov.w	lr, #0
 8000246:	f1dc 0c00 	rsbs	ip, ip, #0
 800024a:	eb7e 0000 	sbcs.w	r0, lr, r0
 800024e:	eb6e 0101 	sbc.w	r1, lr, r1
 8000252:	f5b1 1f80 	cmp.w	r1, #1048576	@ 0x100000
 8000256:	d31b      	bcc.n	8000290 <__adddf3+0x124>
 8000258:	f5b1 1f00 	cmp.w	r1, #2097152	@ 0x200000
 800025c:	d30c      	bcc.n	8000278 <__adddf3+0x10c>
 800025e:	0849      	lsrs	r1, r1, #1
 8000260:	ea5f 0030 	movs.w	r0, r0, rrx
 8000264:	ea4f 0c3c 	mov.w	ip, ip, rrx
 8000268:	f104 0401 	add.w	r4, r4, #1
 800026c:	ea4f 5244 	mov.w	r2, r4, lsl #21
 8000270:	f512 0f80 	cmn.w	r2, #4194304	@ 0x400000
 8000274:	f080 809a 	bcs.w	80003ac <__adddf3+0x240>
 8000278:	f1bc 4f00 	cmp.w	ip, #2147483648	@ 0x80000000
 800027c:	bf08      	it	eq
 800027e:	ea5f 0c50 	movseq.w	ip, r0, lsr #1
 8000282:	f150 0000 	adcs.w	r0, r0, #0
 8000286:	eb41 5104 	adc.w	r1, r1, r4, lsl #20
 800028a:	ea41 0105 	orr.w	r1, r1, r5
 800028e:	bd30      	pop	{r4, r5, pc}
 8000290:	ea5f 0c4c 	movs.w	ip, ip, lsl #1
 8000294:	4140      	adcs	r0, r0
 8000296:	eb41 0101 	adc.w	r1, r1, r1
 800029a:	3c01      	subs	r4, #1
 800029c:	bf28      	it	cs
 800029e:	f5b1 1f80 	cmpcs.w	r1, #1048576	@ 0x100000
 80002a2:	d2e9      	bcs.n	8000278 <__adddf3+0x10c>
 80002a4:	f091 0f00 	teq	r1, #0
 80002a8:	bf04      	itt	eq
 80002aa:	4601      	moveq	r1, r0
 80002ac:	2000      	moveq	r0, #0
 80002ae:	fab1 f381 	clz	r3, r1
 80002b2:	bf08      	it	eq
 80002b4:	3320      	addeq	r3, #32
 80002b6:	f1a3 030b 	sub.w	r3, r3, #11
 80002ba:	f1b3 0220 	subs.w	r2, r3, #32
 80002be:	da0c      	bge.n	80002da <__adddf3+0x16e>
 80002c0:	320c      	adds	r2, #12
 80002c2:	dd08      	ble.n	80002d6 <__adddf3+0x16a>
 80002c4:	f102 0c14 	add.w	ip, r2, #20
 80002c8:	f1c2 020c 	rsb	r2, r2, #12
 80002cc:	fa01 f00c 	lsl.w	r0, r1, ip
 80002d0:	fa21 f102 	lsr.w	r1, r1, r2
 80002d4:	e00c      	b.n	80002f0 <__adddf3+0x184>
 80002d6:	f102 0214 	add.w	r2, r2, #20
 80002da:	bfd8      	it	le
 80002dc:	f1c2 0c20 	rsble	ip, r2, #32
 80002e0:	fa01 f102 	lsl.w	r1, r1, r2
 80002e4:	fa20 fc0c 	lsr.w	ip, r0, ip
 80002e8:	bfdc      	itt	le
 80002ea:	ea41 010c 	orrle.w	r1, r1, ip
 80002ee:	4090      	lslle	r0, r2
 80002f0:	1ae4      	subs	r4, r4, r3
 80002f2:	bfa2      	ittt	ge
 80002f4:	eb01 5104 	addge.w	r1, r1, r4, lsl #20
 80002f8:	4329      	orrge	r1, r5
 80002fa:	bd30      	popge	{r4, r5, pc}
 80002fc:	ea6f 0404 	mvn.w	r4, r4
 8000300:	3c1f      	subs	r4, #31
 8000302:	da1c      	bge.n	800033e <__adddf3+0x1d2>
 8000304:	340c      	adds	r4, #12
 8000306:	dc0e      	bgt.n	8000326 <__adddf3+0x1ba>
 8000308:	f104 0414 	add.w	r4, r4, #20
 800030c:	f1c4 0220 	rsb	r2, r4, #32
 8000310:	fa20 f004 	lsr.w	r0, r0, r4
 8000314:	fa01 f302 	lsl.w	r3, r1, r2
 8000318:	ea40 0003 	orr.w	r0, r0, r3
 800031c:	fa21 f304 	lsr.w	r3, r1, r4
 8000320:	ea45 0103 	orr.w	r1, r5, r3
 8000324:	bd30      	pop	{r4, r5, pc}
 8000326:	f1c4 040c 	rsb	r4, r4, #12
 800032a:	f1c4 0220 	rsb	r2, r4, #32
 800032e:	fa20 f002 	lsr.w	r0, r0, r2
 8000332:	fa01 f304 	lsl.w	r3, r1, r4
 8000336:	ea40 0003 	orr.w	r0, r0, r3
 800033a:	4629      	mov	r1, r5
 800033c:	bd30      	pop	{r4, r5, pc}
 800033e:	fa21 f004 	lsr.w	r0, r1, r4
 8000342:	4629      	mov	r1, r5
 8000344:	bd30      	pop	{r4, r5, pc}
 8000346:	f094 0f00 	teq	r4, #0
 800034a:	f483 1380 	eor.w	r3, r3, #1048576	@ 0x100000
 800034e:	bf06      	itte	eq
 8000350:	f481 1180 	eoreq.w	r1, r1, #1048576	@ 0x100000
 8000354:	3401      	addeq	r4, #1
 8000356:	3d01      	subne	r5, #1
 8000358:	e74e      	b.n	80001f8 <__adddf3+0x8c>
 800035a:	ea7f 5c64 	mvns.w	ip, r4, asr #21
 800035e:	bf18      	it	ne
 8000360:	ea7f 5c65 	mvnsne.w	ip, r5, asr #21
 8000364:	d029      	beq.n	80003ba <__adddf3+0x24e>
 8000366:	ea94 0f05 	teq	r4, r5
 800036a:	bf08      	it	eq
 800036c:	ea90 0f02 	teqeq	r0, r2
 8000370:	d005      	beq.n	800037e <__adddf3+0x212>
 8000372:	ea54 0c00 	orrs.w	ip, r4, r0
 8000376:	bf04      	itt	eq
 8000378:	4619      	moveq	r1, r3
 800037a:	4610      	moveq	r0, r2
 800037c:	bd30      	pop	{r4, r5, pc}
 800037e:	ea91 0f03 	teq	r1, r3
 8000382:	bf1e      	ittt	ne
 8000384:	2100      	movne	r1, #0
 8000386:	2000      	movne	r0, #0
 8000388:	bd30      	popne	{r4, r5, pc}
 800038a:	ea5f 5c54 	movs.w	ip, r4, lsr #21
 800038e:	d105      	bne.n	800039c <__adddf3+0x230>
 8000390:	0040      	lsls	r0, r0, #1
 8000392:	4149      	adcs	r1, r1
 8000394:	bf28      	it	cs
 8000396:	f041 4100 	orrcs.w	r1, r1, #2147483648	@ 0x80000000
 800039a:	bd30      	pop	{r4, r5, pc}
 800039c:	f514 0480 	adds.w	r4, r4, #4194304	@ 0x400000
 80003a0:	bf3c      	itt	cc
 80003a2:	f501 1180 	addcc.w	r1, r1, #1048576	@ 0x100000
 80003a6:	bd30      	popcc	{r4, r5, pc}
 80003a8:	f001 4500 	and.w	r5, r1, #2147483648	@ 0x80000000
 80003ac:	f045 41fe 	orr.w	r1, r5, #2130706432	@ 0x7f000000
 80003b0:	f441 0170 	orr.w	r1, r1, #15728640	@ 0xf00000
 80003b4:	f04f 0000 	mov.w	r0, #0
 80003b8:	bd30      	pop	{r4, r5, pc}
 80003ba:	ea7f 5c64 	mvns.w	ip, r4, asr #21
 80003be:	bf1a      	itte	ne
 80003c0:	4619      	movne	r1, r3
 80003c2:	4610      	movne	r0, r2
 80003c4:	ea7f 5c65 	mvnseq.w	ip, r5, asr #21
 80003c8:	bf1c      	itt	ne
 80003ca:	460b      	movne	r3, r1
 80003cc:	4602      	movne	r2, r0
 80003ce:	ea50 3401 	orrs.w	r4, r0, r1, lsl #12
 80003d2:	bf06      	itte	eq
 80003d4:	ea52 3503 	orrseq.w	r5, r2, r3, lsl #12
 80003d8:	ea91 0f03 	teqeq	r1, r3
 80003dc:	f441 2100 	orrne.w	r1, r1, #524288	@ 0x80000
 80003e0:	bd30      	pop	{r4, r5, pc}
 80003e2:	bf00      	nop

080003e4 <__aeabi_ui2d>:
 80003e4:	f090 0f00 	teq	r0, #0
 80003e8:	bf04      	itt	eq
 80003ea:	2100      	moveq	r1, #0
 80003ec:	4770      	bxeq	lr
 80003ee:	b530      	push	{r4, r5, lr}
 80003f0:	f44f 6480 	mov.w	r4, #1024	@ 0x400
 80003f4:	f104 0432 	add.w	r4, r4, #50	@ 0x32
 80003f8:	f04f 0500 	mov.w	r5, #0
 80003fc:	f04f 0100 	mov.w	r1, #0
 8000400:	e750      	b.n	80002a4 <__adddf3+0x138>
 8000402:	bf00      	nop

08000404 <__aeabi_i2d>:
 8000404:	f090 0f00 	teq	r0, #0
 8000408:	bf04      	itt	eq
 800040a:	2100      	moveq	r1, #0
 800040c:	4770      	bxeq	lr
 800040e:	b530      	push	{r4, r5, lr}
 8000410:	f44f 6480 	mov.w	r4, #1024	@ 0x400
 8000414:	f104 0432 	add.w	r4, r4, #50	@ 0x32
 8000418:	f010 4500 	ands.w	r5, r0, #2147483648	@ 0x80000000
 800041c:	bf48      	it	mi
 800041e:	4240      	negmi	r0, r0
 8000420:	f04f 0100 	mov.w	r1, #0
 8000424:	e73e      	b.n	80002a4 <__adddf3+0x138>
 8000426:	bf00      	nop

08000428 <__aeabi_f2d>:
 8000428:	0042      	lsls	r2, r0, #1
 800042a:	ea4f 01e2 	mov.w	r1, r2, asr #3
 800042e:	ea4f 0131 	mov.w	r1, r1, rrx
 8000432:	ea4f 7002 	mov.w	r0, r2, lsl #28
 8000436:	bf1f      	itttt	ne
 8000438:	f012 437f 	andsne.w	r3, r2, #4278190080	@ 0xff000000
 800043c:	f093 4f7f 	teqne	r3, #4278190080	@ 0xff000000
 8000440:	f081 5160 	eorne.w	r1, r1, #939524096	@ 0x38000000
 8000444:	4770      	bxne	lr
 8000446:	f032 427f 	bics.w	r2, r2, #4278190080	@ 0xff000000
 800044a:	bf08      	it	eq
 800044c:	4770      	bxeq	lr
 800044e:	f093 4f7f 	teq	r3, #4278190080	@ 0xff000000
 8000452:	bf04      	itt	eq
 8000454:	f441 2100 	orreq.w	r1, r1, #524288	@ 0x80000
 8000458:	4770      	bxeq	lr
 800045a:	b530      	push	{r4, r5, lr}
 800045c:	f44f 7460 	mov.w	r4, #896	@ 0x380
 8000460:	f001 4500 	and.w	r5, r1, #2147483648	@ 0x80000000
 8000464:	f021 4100 	bic.w	r1, r1, #2147483648	@ 0x80000000
 8000468:	e71c      	b.n	80002a4 <__adddf3+0x138>
 800046a:	bf00      	nop

0800046c <__aeabi_ul2d>:
 800046c:	ea50 0201 	orrs.w	r2, r0, r1
 8000470:	bf08      	it	eq
 8000472:	4770      	bxeq	lr
 8000474:	b530      	push	{r4, r5, lr}
 8000476:	f04f 0500 	mov.w	r5, #0
 800047a:	e00a      	b.n	8000492 <__aeabi_l2d+0x16>

0800047c <__aeabi_l2d>:
 800047c:	ea50 0201 	orrs.w	r2, r0, r1
 8000480:	bf08      	it	eq
 8000482:	4770      	bxeq	lr
 8000484:	b530      	push	{r4, r5, lr}
 8000486:	f011 4500 	ands.w	r5, r1, #2147483648	@ 0x80000000
 800048a:	d502      	bpl.n	8000492 <__aeabi_l2d+0x16>
 800048c:	4240      	negs	r0, r0
 800048e:	eb61 0141 	sbc.w	r1, r1, r1, lsl #1
 8000492:	f44f 6480 	mov.w	r4, #1024	@ 0x400
 8000496:	f104 0432 	add.w	r4, r4, #50	@ 0x32
 800049a:	ea5f 5c91 	movs.w	ip, r1, lsr #22
 800049e:	f43f aed8 	beq.w	8000252 <__adddf3+0xe6>
 80004a2:	f04f 0203 	mov.w	r2, #3
 80004a6:	ea5f 0cdc 	movs.w	ip, ip, lsr #3
 80004aa:	bf18      	it	ne
 80004ac:	3203      	addne	r2, #3
 80004ae:	ea5f 0cdc 	movs.w	ip, ip, lsr #3
 80004b2:	bf18      	it	ne
 80004b4:	3203      	addne	r2, #3
 80004b6:	eb02 02dc 	add.w	r2, r2, ip, lsr #3
 80004ba:	f1c2 0320 	rsb	r3, r2, #32
 80004be:	fa00 fc03 	lsl.w	ip, r0, r3
 80004c2:	fa20 f002 	lsr.w	r0, r0, r2
 80004c6:	fa01 fe03 	lsl.w	lr, r1, r3
 80004ca:	ea40 000e 	orr.w	r0, r0, lr
 80004ce:	fa21 f102 	lsr.w	r1, r1, r2
 80004d2:	4414      	add	r4, r2
 80004d4:	e6bd      	b.n	8000252 <__adddf3+0xe6>
 80004d6:	bf00      	nop

080004d8 <__aeabi_dmul>:
 80004d8:	b570      	push	{r4, r5, r6, lr}
 80004da:	f04f 0cff 	mov.w	ip, #255	@ 0xff
 80004de:	f44c 6ce0 	orr.w	ip, ip, #1792	@ 0x700
 80004e2:	ea1c 5411 	ands.w	r4, ip, r1, lsr #20
 80004e6:	bf1d      	ittte	ne
 80004e8:	ea1c 5513 	andsne.w	r5, ip, r3, lsr #20
 80004ec:	ea94 0f0c 	teqne	r4, ip
 80004f0:	ea95 0f0c 	teqne	r5, ip
 80004f4:	f000 f8de 	bleq	80006b4 <__aeabi_dmul+0x1dc>
 80004f8:	442c      	add	r4, r5
 80004fa:	ea81 0603 	eor.w	r6, r1, r3
 80004fe:	ea21 514c 	bic.w	r1, r1, ip, lsl #21
 8000502:	ea23 534c 	bic.w	r3, r3, ip, lsl #21
 8000506:	ea50 3501 	orrs.w	r5, r0, r1, lsl #12
 800050a:	bf18      	it	ne
 800050c:	ea52 3503 	orrsne.w	r5, r2, r3, lsl #12
 8000510:	f441 1180 	orr.w	r1, r1, #1048576	@ 0x100000
 8000514:	f443 1380 	orr.w	r3, r3, #1048576	@ 0x100000
 8000518:	d038      	beq.n	800058c <__aeabi_dmul+0xb4>
 800051a:	fba0 ce02 	umull	ip, lr, r0, r2
 800051e:	f04f 0500 	mov.w	r5, #0
 8000522:	fbe1 e502 	umlal	lr, r5, r1, r2
 8000526:	f006 4200 	and.w	r2, r6, #2147483648	@ 0x80000000
 800052a:	fbe0 e503 	umlal	lr, r5, r0, r3
 800052e:	f04f 0600 	mov.w	r6, #0
 8000532:	fbe1 5603 	umlal	r5, r6, r1, r3
 8000536:	f09c 0f00 	teq	ip, #0
 800053a:	bf18      	it	ne
 800053c:	f04e 0e01 	orrne.w	lr, lr, #1
 8000540:	f1a4 04ff 	sub.w	r4, r4, #255	@ 0xff
 8000544:	f5b6 7f00 	cmp.w	r6, #512	@ 0x200
 8000548:	f564 7440 	sbc.w	r4, r4, #768	@ 0x300
 800054c:	d204      	bcs.n	8000558 <__aeabi_dmul+0x80>
 800054e:	ea5f 0e4e 	movs.w	lr, lr, lsl #1
 8000552:	416d      	adcs	r5, r5
 8000554:	eb46 0606 	adc.w	r6, r6, r6
 8000558:	ea42 21c6 	orr.w	r1, r2, r6, lsl #11
 800055c:	ea41 5155 	orr.w	r1, r1, r5, lsr #21
 8000560:	ea4f 20c5 	mov.w	r0, r5, lsl #11
 8000564:	ea40 505e 	orr.w	r0, r0, lr, lsr #21
 8000568:	ea4f 2ece 	mov.w	lr, lr, lsl #11
 800056c:	f1b4 0cfd 	subs.w	ip, r4, #253	@ 0xfd
 8000570:	bf88      	it	hi
 8000572:	f5bc 6fe0 	cmphi.w	ip, #1792	@ 0x700
 8000576:	d81e      	bhi.n	80005b6 <__aeabi_dmul+0xde>
 8000578:	f1be 4f00 	cmp.w	lr, #2147483648	@ 0x80000000
 800057c:	bf08      	it	eq
 800057e:	ea5f 0e50 	movseq.w	lr, r0, lsr #1
 8000582:	f150 0000 	adcs.w	r0, r0, #0
 8000586:	eb41 5104 	adc.w	r1, r1, r4, lsl #20
 800058a:	bd70      	pop	{r4, r5, r6, pc}
 800058c:	f006 4600 	and.w	r6, r6, #2147483648	@ 0x80000000
 8000590:	ea46 0101 	orr.w	r1, r6, r1
 8000594:	ea40 0002 	orr.w	r0, r0, r2
 8000598:	ea81 0103 	eor.w	r1, r1, r3
 800059c:	ebb4 045c 	subs.w	r4, r4, ip, lsr #1
 80005a0:	bfc2      	ittt	gt
 80005a2:	ebd4 050c 	rsbsgt	r5, r4, ip
 80005a6:	ea41 5104 	orrgt.w	r1, r1, r4, lsl #20
 80005aa:	bd70      	popgt	{r4, r5, r6, pc}
 80005ac:	f441 1180 	orr.w	r1, r1, #1048576	@ 0x100000
 80005b0:	f04f 0e00 	mov.w	lr, #0
 80005b4:	3c01      	subs	r4, #1
 80005b6:	f300 80ab 	bgt.w	8000710 <__aeabi_dmul+0x238>
 80005ba:	f114 0f36 	cmn.w	r4, #54	@ 0x36
 80005be:	bfde      	ittt	le
 80005c0:	2000      	movle	r0, #0
 80005c2:	f001 4100 	andle.w	r1, r1, #2147483648	@ 0x80000000
 80005c6:	bd70      	pople	{r4, r5, r6, pc}
 80005c8:	f1c4 0400 	rsb	r4, r4, #0
 80005cc:	3c20      	subs	r4, #32
 80005ce:	da35      	bge.n	800063c <__aeabi_dmul+0x164>
 80005d0:	340c      	adds	r4, #12
 80005d2:	dc1b      	bgt.n	800060c <__aeabi_dmul+0x134>
 80005d4:	f104 0414 	add.w	r4, r4, #20
 80005d8:	f1c4 0520 	rsb	r5, r4, #32
 80005dc:	fa00 f305 	lsl.w	r3, r0, r5
 80005e0:	fa20 f004 	lsr.w	r0, r0, r4
 80005e4:	fa01 f205 	lsl.w	r2, r1, r5
 80005e8:	ea40 0002 	orr.w	r0, r0, r2
 80005ec:	f001 4200 	and.w	r2, r1, #2147483648	@ 0x80000000
 80005f0:	f021 4100 	bic.w	r1, r1, #2147483648	@ 0x80000000
 80005f4:	eb10 70d3 	adds.w	r0, r0, r3, lsr #31
 80005f8:	fa21 f604 	lsr.w	r6, r1, r4
 80005fc:	eb42 0106 	adc.w	r1, r2, r6
 8000600:	ea5e 0e43 	orrs.w	lr, lr, r3, lsl #1
 8000604:	bf08      	it	eq
 8000606:	ea20 70d3 	biceq.w	r0, r0, r3, lsr #31
 800060a:	bd70      	pop	{r4, r5, r6, pc}
 800060c:	f1c4 040c 	rsb	r4, r4, #12
 8000610:	f1c4 0520 	rsb	r5, r4, #32
 8000614:	fa00 f304 	lsl.w	r3, r0, r4
 8000618:	fa20 f005 	lsr.w	r0, r0, r5
 800061c:	fa01 f204 	lsl.w	r2, r1, r4
 8000620:	ea40 0002 	orr.w	r0, r0, r2
 8000624:	f001 4100 	and.w	r1, r1, #2147483648	@ 0x80000000
 8000628:	eb10 70d3 	adds.w	r0, r0, r3, lsr #31
 800062c:	f141 0100 	adc.w	r1, r1, #0
 8000630:	ea5e 0e43 	orrs.w	lr, lr, r3, lsl #1
 8000634:	bf08      	it	eq
 8000636:	ea20 70d3 	biceq.w	r0, r0, r3, lsr #31
 800063a:	bd70      	pop	{r4, r5, r6, pc}
 800063c:	f1c4 0520 	rsb	r5, r4, #32
 8000640:	fa00 f205 	lsl.w	r2, r0, r5
 8000644:	ea4e 0e02 	orr.w	lr, lr, r2
 8000648:	fa20 f304 	lsr.w	r3, r0, r4
 800064c:	fa01 f205 	lsl.w	r2, r1, r5
 8000650:	ea43 0302 	orr.w	r3, r3, r2
 8000654:	fa21 f004 	lsr.w	r0, r1, r4
 8000658:	f001 4100 	and.w	r1, r1, #2147483648	@ 0x80000000
 800065c:	fa21 f204 	lsr.w	r2, r1, r4
 8000660:	ea20 0002 	bic.w	r0, r0, r2
 8000664:	eb00 70d3 	add.w	r0, r0, r3, lsr #31
 8000668:	ea5e 0e43 	orrs.w	lr, lr, r3, lsl #1
 800066c:	bf08      	it	eq
 800066e:	ea20 70d3 	biceq.w	r0, r0, r3, lsr #31
 8000672:	bd70      	pop	{r4, r5, r6, pc}
 8000674:	f094 0f00 	teq	r4, #0
 8000678:	d10f      	bne.n	800069a <__aeabi_dmul+0x1c2>
 800067a:	f001 4600 	and.w	r6, r1, #2147483648	@ 0x80000000
 800067e:	0040      	lsls	r0, r0, #1
 8000680:	eb41 0101 	adc.w	r1, r1, r1
 8000684:	f411 1f80 	tst.w	r1, #1048576	@ 0x100000
 8000688:	bf08      	it	eq
 800068a:	3c01      	subeq	r4, #1
 800068c:	d0f7      	beq.n	800067e <__aeabi_dmul+0x1a6>
 800068e:	ea41 0106 	orr.w	r1, r1, r6
 8000692:	f095 0f00 	teq	r5, #0
 8000696:	bf18      	it	ne
 8000698:	4770      	bxne	lr
 800069a:	f003 4600 	and.w	r6, r3, #2147483648	@ 0x80000000
 800069e:	0052      	lsls	r2, r2, #1
 80006a0:	eb43 0303 	adc.w	r3, r3, r3
 80006a4:	f413 1f80 	tst.w	r3, #1048576	@ 0x100000
 80006a8:	bf08      	it	eq
 80006aa:	3d01      	subeq	r5, #1
 80006ac:	d0f7      	beq.n	800069e <__aeabi_dmul+0x1c6>
 80006ae:	ea43 0306 	orr.w	r3, r3, r6
 80006b2:	4770      	bx	lr
 80006b4:	ea94 0f0c 	teq	r4, ip
 80006b8:	ea0c 5513 	and.w	r5, ip, r3, lsr #20
 80006bc:	bf18      	it	ne
 80006be:	ea95 0f0c 	teqne	r5, ip
 80006c2:	d00c      	beq.n	80006de <__aeabi_dmul+0x206>
 80006c4:	ea50 0641 	orrs.w	r6, r0, r1, lsl #1
 80006c8:	bf18      	it	ne
 80006ca:	ea52 0643 	orrsne.w	r6, r2, r3, lsl #1
 80006ce:	d1d1      	bne.n	8000674 <__aeabi_dmul+0x19c>
 80006d0:	ea81 0103 	eor.w	r1, r1, r3
 80006d4:	f001 4100 	and.w	r1, r1, #2147483648	@ 0x80000000
 80006d8:	f04f 0000 	mov.w	r0, #0
 80006dc:	bd70      	pop	{r4, r5, r6, pc}
 80006de:	ea50 0641 	orrs.w	r6, r0, r1, lsl #1
 80006e2:	bf06      	itte	eq
 80006e4:	4610      	moveq	r0, r2
 80006e6:	4619      	moveq	r1, r3
 80006e8:	ea52 0643 	orrsne.w	r6, r2, r3, lsl #1
 80006ec:	d019      	beq.n	8000722 <__aeabi_dmul+0x24a>
 80006ee:	ea94 0f0c 	teq	r4, ip
 80006f2:	d102      	bne.n	80006fa <__aeabi_dmul+0x222>
 80006f4:	ea50 3601 	orrs.w	r6, r0, r1, lsl #12
 80006f8:	d113      	bne.n	8000722 <__aeabi_dmul+0x24a>
 80006fa:	ea95 0f0c 	teq	r5, ip
 80006fe:	d105      	bne.n	800070c <__aeabi_dmul+0x234>
 8000700:	ea52 3603 	orrs.w	r6, r2, r3, lsl #12
 8000704:	bf1c      	itt	ne
 8000706:	4610      	movne	r0, r2
 8000708:	4619      	movne	r1, r3
 800070a:	d10a      	bne.n	8000722 <__aeabi_dmul+0x24a>
 800070c:	ea81 0103 	eor.w	r1, r1, r3
 8000710:	f001 4100 	and.w	r1, r1, #2147483648	@ 0x80000000
 8000714:	f041 41fe 	orr.w	r1, r1, #2130706432	@ 0x7f000000
 8000718:	f441 0170 	orr.w	r1, r1, #15728640	@ 0xf00000
 800071c:	f04f 0000 	mov.w	r0, #0
 8000720:	bd70      	pop	{r4, r5, r6, pc}
 8000722:	f041 41fe 	orr.w	r1, r1, #2130706432	@ 0x7f000000
 8000726:	f441 0178 	orr.w	r1, r1, #16252928	@ 0xf80000
 800072a:	bd70      	pop	{r4, r5, r6, pc}

0800072c <__aeabi_ddiv>:
 800072c:	b570      	push	{r4, r5, r6, lr}
 800072e:	f04f 0cff 	mov.w	ip, #255	@ 0xff
 8000732:	f44c 6ce0 	orr.w	ip, ip, #1792	@ 0x700
 8000736:	ea1c 5411 	ands.w	r4, ip, r1, lsr #20
 800073a:	bf1d      	ittte	ne
 800073c:	ea1c 5513 	andsne.w	r5, ip, r3, lsr #20
 8000740:	ea94 0f0c 	teqne	r4, ip
 8000744:	ea95 0f0c 	teqne	r5, ip
 8000748:	f000 f8a7 	bleq	800089a <__aeabi_ddiv+0x16e>
 800074c:	eba4 0405 	sub.w	r4, r4, r5
 8000750:	ea81 0e03 	eor.w	lr, r1, r3
 8000754:	ea52 3503 	orrs.w	r5, r2, r3, lsl #12
 8000758:	ea4f 3101 	mov.w	r1, r1, lsl #12
 800075c:	f000 8088 	beq.w	8000870 <__aeabi_ddiv+0x144>
 8000760:	ea4f 3303 	mov.w	r3, r3, lsl #12
 8000764:	f04f 5580 	mov.w	r5, #268435456	@ 0x10000000
 8000768:	ea45 1313 	orr.w	r3, r5, r3, lsr #4
 800076c:	ea43 6312 	orr.w	r3, r3, r2, lsr #24
 8000770:	ea4f 2202 	mov.w	r2, r2, lsl #8
 8000774:	ea45 1511 	orr.w	r5, r5, r1, lsr #4
 8000778:	ea45 6510 	orr.w	r5, r5, r0, lsr #24
 800077c:	ea4f 2600 	mov.w	r6, r0, lsl #8
 8000780:	f00e 4100 	and.w	r1, lr, #2147483648	@ 0x80000000
 8000784:	429d      	cmp	r5, r3
 8000786:	bf08      	it	eq
 8000788:	4296      	cmpeq	r6, r2
 800078a:	f144 04fd 	adc.w	r4, r4, #253	@ 0xfd
 800078e:	f504 7440 	add.w	r4, r4, #768	@ 0x300
 8000792:	d202      	bcs.n	800079a <__aeabi_ddiv+0x6e>
 8000794:	085b      	lsrs	r3, r3, #1
 8000796:	ea4f 0232 	mov.w	r2, r2, rrx
 800079a:	1ab6      	subs	r6, r6, r2
 800079c:	eb65 0503 	sbc.w	r5, r5, r3
 80007a0:	085b      	lsrs	r3, r3, #1
 80007a2:	ea4f 0232 	mov.w	r2, r2, rrx
 80007a6:	f44f 1080 	mov.w	r0, #1048576	@ 0x100000
 80007aa:	f44f 2c00 	mov.w	ip, #524288	@ 0x80000
 80007ae:	ebb6 0e02 	subs.w	lr, r6, r2
 80007b2:	eb75 0e03 	sbcs.w	lr, r5, r3
 80007b6:	bf22      	ittt	cs
 80007b8:	1ab6      	subcs	r6, r6, r2
 80007ba:	4675      	movcs	r5, lr
 80007bc:	ea40 000c 	orrcs.w	r0, r0, ip
 80007c0:	085b      	lsrs	r3, r3, #1
 80007c2:	ea4f 0232 	mov.w	r2, r2, rrx
 80007c6:	ebb6 0e02 	subs.w	lr, r6, r2
 80007ca:	eb75 0e03 	sbcs.w	lr, r5, r3
 80007ce:	bf22      	ittt	cs
 80007d0:	1ab6      	subcs	r6, r6, r2
 80007d2:	4675      	movcs	r5, lr
 80007d4:	ea40 005c 	orrcs.w	r0, r0, ip, lsr #1
 80007d8:	085b      	lsrs	r3, r3, #1
 80007da:	ea4f 0232 	mov.w	r2, r2, rrx
 80007de:	ebb6 0e02 	subs.w	lr, r6, r2
 80007e2:	eb75 0e03 	sbcs.w	lr, r5, r3
 80007e6:	bf22      	ittt	cs
 80007e8:	1ab6      	subcs	r6, r6, r2
 80007ea:	4675      	movcs	r5, lr
 80007ec:	ea40 009c 	orrcs.w	r0, r0, ip, lsr #2
 80007f0:	085b      	lsrs	r3, r3, #1
 80007f2:	ea4f 0232 	mov.w	r2, r2, rrx
 80007f6:	ebb6 0e02 	subs.w	lr, r6, r2
 80007fa:	eb75 0e03 	sbcs.w	lr, r5, r3
 80007fe:	bf22      	ittt	cs
 8000800:	1ab6      	subcs	r6, r6, r2
 8000802:	4675      	movcs	r5, lr
 8000804:	ea40 00dc 	orrcs.w	r0, r0, ip, lsr #3
 8000808:	ea55 0e06 	orrs.w	lr, r5, r6
 800080c:	d018      	beq.n	8000840 <__aeabi_ddiv+0x114>
 800080e:	ea4f 1505 	mov.w	r5, r5, lsl #4
 8000812:	ea45 7516 	orr.w	r5, r5, r6, lsr #28
 8000816:	ea4f 1606 	mov.w	r6, r6, lsl #4
 800081a:	ea4f 03c3 	mov.w	r3, r3, lsl #3
 800081e:	ea43 7352 	orr.w	r3, r3, r2, lsr #29
 8000822:	ea4f 02c2 	mov.w	r2, r2, lsl #3
 8000826:	ea5f 1c1c 	movs.w	ip, ip, lsr #4
 800082a:	d1c0      	bne.n	80007ae <__aeabi_ddiv+0x82>
 800082c:	f411 1f80 	tst.w	r1, #1048576	@ 0x100000
 8000830:	d10b      	bne.n	800084a <__aeabi_ddiv+0x11e>
 8000832:	ea41 0100 	orr.w	r1, r1, r0
 8000836:	f04f 0000 	mov.w	r0, #0
 800083a:	f04f 4c00 	mov.w	ip, #2147483648	@ 0x80000000
 800083e:	e7b6      	b.n	80007ae <__aeabi_ddiv+0x82>
 8000840:	f411 1f80 	tst.w	r1, #1048576	@ 0x100000
 8000844:	bf04      	itt	eq
 8000846:	4301      	orreq	r1, r0
 8000848:	2000      	moveq	r0, #0
 800084a:	f1b4 0cfd 	subs.w	ip, r4, #253	@ 0xfd
 800084e:	bf88      	it	hi
 8000850:	f5bc 6fe0 	cmphi.w	ip, #1792	@ 0x700
 8000854:	f63f aeaf 	bhi.w	80005b6 <__aeabi_dmul+0xde>
 8000858:	ebb5 0c03 	subs.w	ip, r5, r3
 800085c:	bf04      	itt	eq
 800085e:	ebb6 0c02 	subseq.w	ip, r6, r2
 8000862:	ea5f 0c50 	movseq.w	ip, r0, lsr #1
 8000866:	f150 0000 	adcs.w	r0, r0, #0
 800086a:	eb41 5104 	adc.w	r1, r1, r4, lsl #20
 800086e:	bd70      	pop	{r4, r5, r6, pc}
 8000870:	f00e 4e00 	and.w	lr, lr, #2147483648	@ 0x80000000
 8000874:	ea4e 3111 	orr.w	r1, lr, r1, lsr #12
 8000878:	eb14 045c 	adds.w	r4, r4, ip, lsr #1
 800087c:	bfc2      	ittt	gt
 800087e:	ebd4 050c 	rsbsgt	r5, r4, ip
 8000882:	ea41 5104 	orrgt.w	r1, r1, r4, lsl #20
 8000886:	bd70      	popgt	{r4, r5, r6, pc}
 8000888:	f441 1180 	orr.w	r1, r1, #1048576	@ 0x100000
 800088c:	f04f 0e00 	mov.w	lr, #0
 8000890:	3c01      	subs	r4, #1
 8000892:	e690      	b.n	80005b6 <__aeabi_dmul+0xde>
 8000894:	ea45 0e06 	orr.w	lr, r5, r6
 8000898:	e68d      	b.n	80005b6 <__aeabi_dmul+0xde>
 800089a:	ea0c 5513 	and.w	r5, ip, r3, lsr #20
 800089e:	ea94 0f0c 	teq	r4, ip
 80008a2:	bf08      	it	eq
 80008a4:	ea95 0f0c 	teqeq	r5, ip
 80008a8:	f43f af3b 	beq.w	8000722 <__aeabi_dmul+0x24a>
 80008ac:	ea94 0f0c 	teq	r4, ip
 80008b0:	d10a      	bne.n	80008c8 <__aeabi_ddiv+0x19c>
 80008b2:	ea50 3401 	orrs.w	r4, r0, r1, lsl #12
 80008b6:	f47f af34 	bne.w	8000722 <__aeabi_dmul+0x24a>
 80008ba:	ea95 0f0c 	teq	r5, ip
 80008be:	f47f af25 	bne.w	800070c <__aeabi_dmul+0x234>
 80008c2:	4610      	mov	r0, r2
 80008c4:	4619      	mov	r1, r3
 80008c6:	e72c      	b.n	8000722 <__aeabi_dmul+0x24a>
 80008c8:	ea95 0f0c 	teq	r5, ip
 80008cc:	d106      	bne.n	80008dc <__aeabi_ddiv+0x1b0>
 80008ce:	ea52 3503 	orrs.w	r5, r2, r3, lsl #12
 80008d2:	f43f aefd 	beq.w	80006d0 <__aeabi_dmul+0x1f8>
 80008d6:	4610      	mov	r0, r2
 80008d8:	4619      	mov	r1, r3
 80008da:	e722      	b.n	8000722 <__aeabi_dmul+0x24a>
 80008dc:	ea50 0641 	orrs.w	r6, r0, r1, lsl #1
 80008e0:	bf18      	it	ne
 80008e2:	ea52 0643 	orrsne.w	r6, r2, r3, lsl #1
 80008e6:	f47f aec5 	bne.w	8000674 <__aeabi_dmul+0x19c>
 80008ea:	ea50 0441 	orrs.w	r4, r0, r1, lsl #1
 80008ee:	f47f af0d 	bne.w	800070c <__aeabi_dmul+0x234>
 80008f2:	ea52 0543 	orrs.w	r5, r2, r3, lsl #1
 80008f6:	f47f aeeb 	bne.w	80006d0 <__aeabi_dmul+0x1f8>
 80008fa:	e712      	b.n	8000722 <__aeabi_dmul+0x24a>

080008fc <__gedf2>:
 80008fc:	f04f 3cff 	mov.w	ip, #4294967295
 8000900:	e006      	b.n	8000910 <__cmpdf2+0x4>
 8000902:	bf00      	nop

08000904 <__ledf2>:
 8000904:	f04f 0c01 	mov.w	ip, #1
 8000908:	e002      	b.n	8000910 <__cmpdf2+0x4>
 800090a:	bf00      	nop

0800090c <__cmpdf2>:
 800090c:	f04f 0c01 	mov.w	ip, #1
 8000910:	f84d cd04 	str.w	ip, [sp, #-4]!
 8000914:	ea4f 0c41 	mov.w	ip, r1, lsl #1
 8000918:	ea7f 5c6c 	mvns.w	ip, ip, asr #21
 800091c:	ea4f 0c43 	mov.w	ip, r3, lsl #1
 8000920:	bf18      	it	ne
 8000922:	ea7f 5c6c 	mvnsne.w	ip, ip, asr #21
 8000926:	d01b      	beq.n	8000960 <__cmpdf2+0x54>
 8000928:	b001      	add	sp, #4
 800092a:	ea50 0c41 	orrs.w	ip, r0, r1, lsl #1
 800092e:	bf0c      	ite	eq
 8000930:	ea52 0c43 	orrseq.w	ip, r2, r3, lsl #1
 8000934:	ea91 0f03 	teqne	r1, r3
 8000938:	bf02      	ittt	eq
 800093a:	ea90 0f02 	teqeq	r0, r2
 800093e:	2000      	moveq	r0, #0
 8000940:	4770      	bxeq	lr
 8000942:	f110 0f00 	cmn.w	r0, #0
 8000946:	ea91 0f03 	teq	r1, r3
 800094a:	bf58      	it	pl
 800094c:	4299      	cmppl	r1, r3
 800094e:	bf08      	it	eq
 8000950:	4290      	cmpeq	r0, r2
 8000952:	bf2c      	ite	cs
 8000954:	17d8      	asrcs	r0, r3, #31
 8000956:	ea6f 70e3 	mvncc.w	r0, r3, asr #31
 800095a:	f040 0001 	orr.w	r0, r0, #1
 800095e:	4770      	bx	lr
 8000960:	ea4f 0c41 	mov.w	ip, r1, lsl #1
 8000964:	ea7f 5c6c 	mvns.w	ip, ip, asr #21
 8000968:	d102      	bne.n	8000970 <__cmpdf2+0x64>
 800096a:	ea50 3c01 	orrs.w	ip, r0, r1, lsl #12
 800096e:	d107      	bne.n	8000980 <__cmpdf2+0x74>
 8000970:	ea4f 0c43 	mov.w	ip, r3, lsl #1
 8000974:	ea7f 5c6c 	mvns.w	ip, ip, asr #21
 8000978:	d1d6      	bne.n	8000928 <__cmpdf2+0x1c>
 800097a:	ea52 3c03 	orrs.w	ip, r2, r3, lsl #12
 800097e:	d0d3      	beq.n	8000928 <__cmpdf2+0x1c>
 8000980:	f85d 0b04 	ldr.w	r0, [sp], #4
 8000984:	4770      	bx	lr
 8000986:	bf00      	nop

08000988 <__aeabi_cdrcmple>:
 8000988:	4684      	mov	ip, r0
 800098a:	4610      	mov	r0, r2
 800098c:	4662      	mov	r2, ip
 800098e:	468c      	mov	ip, r1
 8000990:	4619      	mov	r1, r3
 8000992:	4663      	mov	r3, ip
 8000994:	e000      	b.n	8000998 <__aeabi_cdcmpeq>
 8000996:	bf00      	nop

08000998 <__aeabi_cdcmpeq>:
 8000998:	b501      	push	{r0, lr}
 800099a:	f7ff ffb7 	bl	800090c <__cmpdf2>
 800099e:	2800      	cmp	r0, #0
 80009a0:	bf48      	it	mi
 80009a2:	f110 0f00 	cmnmi.w	r0, #0
 80009a6:	bd01      	pop	{r0, pc}

080009a8 <__aeabi_dcmpeq>:
 80009a8:	f84d ed08 	str.w	lr, [sp, #-8]!
 80009ac:	f7ff fff4 	bl	8000998 <__aeabi_cdcmpeq>
 80009b0:	bf0c      	ite	eq
 80009b2:	2001      	moveq	r0, #1
 80009b4:	2000      	movne	r0, #0
 80009b6:	f85d fb08 	ldr.w	pc, [sp], #8
 80009ba:	bf00      	nop

080009bc <__aeabi_dcmplt>:
 80009bc:	f84d ed08 	str.w	lr, [sp, #-8]!
 80009c0:	f7ff ffea 	bl	8000998 <__aeabi_cdcmpeq>
 80009c4:	bf34      	ite	cc
 80009c6:	2001      	movcc	r0, #1
 80009c8:	2000      	movcs	r0, #0
 80009ca:	f85d fb08 	ldr.w	pc, [sp], #8
 80009ce:	bf00      	nop

080009d0 <__aeabi_dcmple>:
 80009d0:	f84d ed08 	str.w	lr, [sp, #-8]!
 80009d4:	f7ff ffe0 	bl	8000998 <__aeabi_cdcmpeq>
 80009d8:	bf94      	ite	ls
 80009da:	2001      	movls	r0, #1
 80009dc:	2000      	movhi	r0, #0
 80009de:	f85d fb08 	ldr.w	pc, [sp], #8
 80009e2:	bf00      	nop

080009e4 <__aeabi_dcmpge>:
 80009e4:	f84d ed08 	str.w	lr, [sp, #-8]!
 80009e8:	f7ff ffce 	bl	8000988 <__aeabi_cdrcmple>
 80009ec:	bf94      	ite	ls
 80009ee:	2001      	movls	r0, #1
 80009f0:	2000      	movhi	r0, #0
 80009f2:	f85d fb08 	ldr.w	pc, [sp], #8
 80009f6:	bf00      	nop

080009f8 <__aeabi_dcmpgt>:
 80009f8:	f84d ed08 	str.w	lr, [sp, #-8]!
 80009fc:	f7ff ffc4 	bl	8000988 <__aeabi_cdrcmple>
 8000a00:	bf34      	ite	cc
 8000a02:	2001      	movcc	r0, #1
 8000a04:	2000      	movcs	r0, #0
 8000a06:	f85d fb08 	ldr.w	pc, [sp], #8
 8000a0a:	bf00      	nop

08000a0c <__aeabi_d2uiz>:
 8000a0c:	004a      	lsls	r2, r1, #1
 8000a0e:	d211      	bcs.n	8000a34 <__aeabi_d2uiz+0x28>
 8000a10:	f512 1200 	adds.w	r2, r2, #2097152	@ 0x200000
 8000a14:	d211      	bcs.n	8000a3a <__aeabi_d2uiz+0x2e>
 8000a16:	d50d      	bpl.n	8000a34 <__aeabi_d2uiz+0x28>
 8000a18:	f46f 7378 	mvn.w	r3, #992	@ 0x3e0
 8000a1c:	ebb3 5262 	subs.w	r2, r3, r2, asr #21
 8000a20:	d40e      	bmi.n	8000a40 <__aeabi_d2uiz+0x34>
 8000a22:	ea4f 23c1 	mov.w	r3, r1, lsl #11
 8000a26:	f043 4300 	orr.w	r3, r3, #2147483648	@ 0x80000000
 8000a2a:	ea43 5350 	orr.w	r3, r3, r0, lsr #21
 8000a2e:	fa23 f002 	lsr.w	r0, r3, r2
 8000a32:	4770      	bx	lr
 8000a34:	f04f 0000 	mov.w	r0, #0
 8000a38:	4770      	bx	lr
 8000a3a:	ea50 3001 	orrs.w	r0, r0, r1, lsl #12
 8000a3e:	d102      	bne.n	8000a46 <__aeabi_d2uiz+0x3a>
 8000a40:	f04f 30ff 	mov.w	r0, #4294967295
 8000a44:	4770      	bx	lr
 8000a46:	f04f 0000 	mov.w	r0, #0
 8000a4a:	4770      	bx	lr

08000a4c <__aeabi_d2f>:
 8000a4c:	ea4f 0241 	mov.w	r2, r1, lsl #1
 8000a50:	f1b2 43e0 	subs.w	r3, r2, #1879048192	@ 0x70000000
 8000a54:	bf24      	itt	cs
 8000a56:	f5b3 1c00 	subscs.w	ip, r3, #2097152	@ 0x200000
 8000a5a:	f1dc 5cfe 	rsbscs	ip, ip, #532676608	@ 0x1fc00000
 8000a5e:	d90d      	bls.n	8000a7c <__aeabi_d2f+0x30>
 8000a60:	f001 4c00 	and.w	ip, r1, #2147483648	@ 0x80000000
 8000a64:	ea4f 02c0 	mov.w	r2, r0, lsl #3
 8000a68:	ea4c 7050 	orr.w	r0, ip, r0, lsr #29
 8000a6c:	f1b2 4f00 	cmp.w	r2, #2147483648	@ 0x80000000
 8000a70:	eb40 0083 	adc.w	r0, r0, r3, lsl #2
 8000a74:	bf08      	it	eq
 8000a76:	f020 0001 	biceq.w	r0, r0, #1
 8000a7a:	4770      	bx	lr
 8000a7c:	f011 4f80 	tst.w	r1, #1073741824	@ 0x40000000
 8000a80:	d121      	bne.n	8000ac6 <__aeabi_d2f+0x7a>
 8000a82:	f113 7238 	adds.w	r2, r3, #48234496	@ 0x2e00000
 8000a86:	bfbc      	itt	lt
 8000a88:	f001 4000 	andlt.w	r0, r1, #2147483648	@ 0x80000000
 8000a8c:	4770      	bxlt	lr
 8000a8e:	f441 1180 	orr.w	r1, r1, #1048576	@ 0x100000
 8000a92:	ea4f 5252 	mov.w	r2, r2, lsr #21
 8000a96:	f1c2 0218 	rsb	r2, r2, #24
 8000a9a:	f1c2 0c20 	rsb	ip, r2, #32
 8000a9e:	fa10 f30c 	lsls.w	r3, r0, ip
 8000aa2:	fa20 f002 	lsr.w	r0, r0, r2
 8000aa6:	bf18      	it	ne
 8000aa8:	f040 0001 	orrne.w	r0, r0, #1
 8000aac:	ea4f 23c1 	mov.w	r3, r1, lsl #11
 8000ab0:	ea4f 23d3 	mov.w	r3, r3, lsr #11
 8000ab4:	fa03 fc0c 	lsl.w	ip, r3, ip
 8000ab8:	ea40 000c 	orr.w	r0, r0, ip
 8000abc:	fa23 f302 	lsr.w	r3, r3, r2
 8000ac0:	ea4f 0343 	mov.w	r3, r3, lsl #1
 8000ac4:	e7cc      	b.n	8000a60 <__aeabi_d2f+0x14>
 8000ac6:	ea7f 5362 	mvns.w	r3, r2, asr #21
 8000aca:	d107      	bne.n	8000adc <__aeabi_d2f+0x90>
 8000acc:	ea50 3301 	orrs.w	r3, r0, r1, lsl #12
 8000ad0:	bf1e      	ittt	ne
 8000ad2:	f04f 40fe 	movne.w	r0, #2130706432	@ 0x7f000000
 8000ad6:	f440 0040 	orrne.w	r0, r0, #12582912	@ 0xc00000
 8000ada:	4770      	bxne	lr
 8000adc:	f001 4000 	and.w	r0, r1, #2147483648	@ 0x80000000
 8000ae0:	f040 40fe 	orr.w	r0, r0, #2130706432	@ 0x7f000000
 8000ae4:	f440 0000 	orr.w	r0, r0, #8388608	@ 0x800000
 8000ae8:	4770      	bx	lr
 8000aea:	bf00      	nop

08000aec <__aeabi_frsub>:
 8000aec:	f080 4000 	eor.w	r0, r0, #2147483648	@ 0x80000000
 8000af0:	e002      	b.n	8000af8 <__addsf3>
 8000af2:	bf00      	nop

08000af4 <__aeabi_fsub>:
 8000af4:	f081 4100 	eor.w	r1, r1, #2147483648	@ 0x80000000

08000af8 <__addsf3>:
 8000af8:	0042      	lsls	r2, r0, #1
 8000afa:	bf1f      	itttt	ne
 8000afc:	ea5f 0341 	movsne.w	r3, r1, lsl #1
 8000b00:	ea92 0f03 	teqne	r2, r3
 8000b04:	ea7f 6c22 	mvnsne.w	ip, r2, asr #24
 8000b08:	ea7f 6c23 	mvnsne.w	ip, r3, asr #24
 8000b0c:	d06a      	beq.n	8000be4 <__addsf3+0xec>
 8000b0e:	ea4f 6212 	mov.w	r2, r2, lsr #24
 8000b12:	ebd2 6313 	rsbs	r3, r2, r3, lsr #24
 8000b16:	bfc1      	itttt	gt
 8000b18:	18d2      	addgt	r2, r2, r3
 8000b1a:	4041      	eorgt	r1, r0
 8000b1c:	4048      	eorgt	r0, r1
 8000b1e:	4041      	eorgt	r1, r0
 8000b20:	bfb8      	it	lt
 8000b22:	425b      	neglt	r3, r3
 8000b24:	2b19      	cmp	r3, #25
 8000b26:	bf88      	it	hi
 8000b28:	4770      	bxhi	lr
 8000b2a:	f010 4f00 	tst.w	r0, #2147483648	@ 0x80000000
 8000b2e:	f440 0000 	orr.w	r0, r0, #8388608	@ 0x800000
 8000b32:	f020 407f 	bic.w	r0, r0, #4278190080	@ 0xff000000
 8000b36:	bf18      	it	ne
 8000b38:	4240      	negne	r0, r0
 8000b3a:	f011 4f00 	tst.w	r1, #2147483648	@ 0x80000000
 8000b3e:	f441 0100 	orr.w	r1, r1, #8388608	@ 0x800000
 8000b42:	f021 417f 	bic.w	r1, r1, #4278190080	@ 0xff000000
 8000b46:	bf18      	it	ne
 8000b48:	4249      	negne	r1, r1
 8000b4a:	ea92 0f03 	teq	r2, r3
 8000b4e:	d03f      	beq.n	8000bd0 <__addsf3+0xd8>
 8000b50:	f1a2 0201 	sub.w	r2, r2, #1
 8000b54:	fa41 fc03 	asr.w	ip, r1, r3
 8000b58:	eb10 000c 	adds.w	r0, r0, ip
 8000b5c:	f1c3 0320 	rsb	r3, r3, #32
 8000b60:	fa01 f103 	lsl.w	r1, r1, r3
 8000b64:	f000 4300 	and.w	r3, r0, #2147483648	@ 0x80000000
 8000b68:	d502      	bpl.n	8000b70 <__addsf3+0x78>
 8000b6a:	4249      	negs	r1, r1
 8000b6c:	eb60 0040 	sbc.w	r0, r0, r0, lsl #1
 8000b70:	f5b0 0f00 	cmp.w	r0, #8388608	@ 0x800000
 8000b74:	d313      	bcc.n	8000b9e <__addsf3+0xa6>
 8000b76:	f1b0 7f80 	cmp.w	r0, #16777216	@ 0x1000000
 8000b7a:	d306      	bcc.n	8000b8a <__addsf3+0x92>
 8000b7c:	0840      	lsrs	r0, r0, #1
 8000b7e:	ea4f 0131 	mov.w	r1, r1, rrx
 8000b82:	f102 0201 	add.w	r2, r2, #1
 8000b86:	2afe      	cmp	r2, #254	@ 0xfe
 8000b88:	d251      	bcs.n	8000c2e <__addsf3+0x136>
 8000b8a:	f1b1 4f00 	cmp.w	r1, #2147483648	@ 0x80000000
 8000b8e:	eb40 50c2 	adc.w	r0, r0, r2, lsl #23
 8000b92:	bf08      	it	eq
 8000b94:	f020 0001 	biceq.w	r0, r0, #1
 8000b98:	ea40 0003 	orr.w	r0, r0, r3
 8000b9c:	4770      	bx	lr
 8000b9e:	0049      	lsls	r1, r1, #1
 8000ba0:	eb40 0000 	adc.w	r0, r0, r0
 8000ba4:	3a01      	subs	r2, #1
 8000ba6:	bf28      	it	cs
 8000ba8:	f5b0 0f00 	cmpcs.w	r0, #8388608	@ 0x800000
 8000bac:	d2ed      	bcs.n	8000b8a <__addsf3+0x92>
 8000bae:	fab0 fc80 	clz	ip, r0
 8000bb2:	f1ac 0c08 	sub.w	ip, ip, #8
 8000bb6:	ebb2 020c 	subs.w	r2, r2, ip
 8000bba:	fa00 f00c 	lsl.w	r0, r0, ip
 8000bbe:	bfaa      	itet	ge
 8000bc0:	eb00 50c2 	addge.w	r0, r0, r2, lsl #23
 8000bc4:	4252      	neglt	r2, r2
 8000bc6:	4318      	orrge	r0, r3
 8000bc8:	bfbc      	itt	lt
 8000bca:	40d0      	lsrlt	r0, r2
 8000bcc:	4318      	orrlt	r0, r3
 8000bce:	4770      	bx	lr
 8000bd0:	f092 0f00 	teq	r2, #0
 8000bd4:	f481 0100 	eor.w	r1, r1, #8388608	@ 0x800000
 8000bd8:	bf06      	itte	eq
 8000bda:	f480 0000 	eoreq.w	r0, r0, #8388608	@ 0x800000
 8000bde:	3201      	addeq	r2, #1
 8000be0:	3b01      	subne	r3, #1
 8000be2:	e7b5      	b.n	8000b50 <__addsf3+0x58>
 8000be4:	ea4f 0341 	mov.w	r3, r1, lsl #1
 8000be8:	ea7f 6c22 	mvns.w	ip, r2, asr #24
 8000bec:	bf18      	it	ne
 8000bee:	ea7f 6c23 	mvnsne.w	ip, r3, asr #24
 8000bf2:	d021      	beq.n	8000c38 <__addsf3+0x140>
 8000bf4:	ea92 0f03 	teq	r2, r3
 8000bf8:	d004      	beq.n	8000c04 <__addsf3+0x10c>
 8000bfa:	f092 0f00 	teq	r2, #0
 8000bfe:	bf08      	it	eq
 8000c00:	4608      	moveq	r0, r1
 8000c02:	4770      	bx	lr
 8000c04:	ea90 0f01 	teq	r0, r1
 8000c08:	bf1c      	itt	ne
 8000c0a:	2000      	movne	r0, #0
 8000c0c:	4770      	bxne	lr
 8000c0e:	f012 4f7f 	tst.w	r2, #4278190080	@ 0xff000000
 8000c12:	d104      	bne.n	8000c1e <__addsf3+0x126>
 8000c14:	0040      	lsls	r0, r0, #1
 8000c16:	bf28      	it	cs
 8000c18:	f040 4000 	orrcs.w	r0, r0, #2147483648	@ 0x80000000
 8000c1c:	4770      	bx	lr
 8000c1e:	f112 7200 	adds.w	r2, r2, #33554432	@ 0x2000000
 8000c22:	bf3c      	itt	cc
 8000c24:	f500 0000 	addcc.w	r0, r0, #8388608	@ 0x800000
 8000c28:	4770      	bxcc	lr
 8000c2a:	f000 4300 	and.w	r3, r0, #2147483648	@ 0x80000000
 8000c2e:	f043 40fe 	orr.w	r0, r3, #2130706432	@ 0x7f000000
 8000c32:	f440 0000 	orr.w	r0, r0, #8388608	@ 0x800000
 8000c36:	4770      	bx	lr
 8000c38:	ea7f 6222 	mvns.w	r2, r2, asr #24
 8000c3c:	bf16      	itet	ne
 8000c3e:	4608      	movne	r0, r1
 8000c40:	ea7f 6323 	mvnseq.w	r3, r3, asr #24
 8000c44:	4601      	movne	r1, r0
 8000c46:	0242      	lsls	r2, r0, #9
 8000c48:	bf06      	itte	eq
 8000c4a:	ea5f 2341 	movseq.w	r3, r1, lsl #9
 8000c4e:	ea90 0f01 	teqeq	r0, r1
 8000c52:	f440 0080 	orrne.w	r0, r0, #4194304	@ 0x400000
 8000c56:	4770      	bx	lr

08000c58 <__aeabi_ui2f>:
 8000c58:	f04f 0300 	mov.w	r3, #0
 8000c5c:	e004      	b.n	8000c68 <__aeabi_i2f+0x8>
 8000c5e:	bf00      	nop

08000c60 <__aeabi_i2f>:
 8000c60:	f010 4300 	ands.w	r3, r0, #2147483648	@ 0x80000000
 8000c64:	bf48      	it	mi
 8000c66:	4240      	negmi	r0, r0
 8000c68:	ea5f 0c00 	movs.w	ip, r0
 8000c6c:	bf08      	it	eq
 8000c6e:	4770      	bxeq	lr
 8000c70:	f043 4396 	orr.w	r3, r3, #1258291200	@ 0x4b000000
 8000c74:	4601      	mov	r1, r0
 8000c76:	f04f 0000 	mov.w	r0, #0
 8000c7a:	e01c      	b.n	8000cb6 <__aeabi_l2f+0x2a>

08000c7c <__aeabi_ul2f>:
 8000c7c:	ea50 0201 	orrs.w	r2, r0, r1
 8000c80:	bf08      	it	eq
 8000c82:	4770      	bxeq	lr
 8000c84:	f04f 0300 	mov.w	r3, #0
 8000c88:	e00a      	b.n	8000ca0 <__aeabi_l2f+0x14>
 8000c8a:	bf00      	nop

08000c8c <__aeabi_l2f>:
 8000c8c:	ea50 0201 	orrs.w	r2, r0, r1
 8000c90:	bf08      	it	eq
 8000c92:	4770      	bxeq	lr
 8000c94:	f011 4300 	ands.w	r3, r1, #2147483648	@ 0x80000000
 8000c98:	d502      	bpl.n	8000ca0 <__aeabi_l2f+0x14>
 8000c9a:	4240      	negs	r0, r0
 8000c9c:	eb61 0141 	sbc.w	r1, r1, r1, lsl #1
 8000ca0:	ea5f 0c01 	movs.w	ip, r1
 8000ca4:	bf02      	ittt	eq
 8000ca6:	4684      	moveq	ip, r0
 8000ca8:	4601      	moveq	r1, r0
 8000caa:	2000      	moveq	r0, #0
 8000cac:	f043 43b6 	orr.w	r3, r3, #1526726656	@ 0x5b000000
 8000cb0:	bf08      	it	eq
 8000cb2:	f1a3 5380 	subeq.w	r3, r3, #268435456	@ 0x10000000
 8000cb6:	f5a3 0300 	sub.w	r3, r3, #8388608	@ 0x800000
 8000cba:	fabc f28c 	clz	r2, ip
 8000cbe:	3a08      	subs	r2, #8
 8000cc0:	eba3 53c2 	sub.w	r3, r3, r2, lsl #23
 8000cc4:	db10      	blt.n	8000ce8 <__aeabi_l2f+0x5c>
 8000cc6:	fa01 fc02 	lsl.w	ip, r1, r2
 8000cca:	4463      	add	r3, ip
 8000ccc:	fa00 fc02 	lsl.w	ip, r0, r2
 8000cd0:	f1c2 0220 	rsb	r2, r2, #32
 8000cd4:	f1bc 4f00 	cmp.w	ip, #2147483648	@ 0x80000000
 8000cd8:	fa20 f202 	lsr.w	r2, r0, r2
 8000cdc:	eb43 0002 	adc.w	r0, r3, r2
 8000ce0:	bf08      	it	eq
 8000ce2:	f020 0001 	biceq.w	r0, r0, #1
 8000ce6:	4770      	bx	lr
 8000ce8:	f102 0220 	add.w	r2, r2, #32
 8000cec:	fa01 fc02 	lsl.w	ip, r1, r2
 8000cf0:	f1c2 0220 	rsb	r2, r2, #32
 8000cf4:	ea50 004c 	orrs.w	r0, r0, ip, lsl #1
 8000cf8:	fa21 f202 	lsr.w	r2, r1, r2
 8000cfc:	eb43 0002 	adc.w	r0, r3, r2
 8000d00:	bf08      	it	eq
 8000d02:	ea20 70dc 	biceq.w	r0, r0, ip, lsr #31
 8000d06:	4770      	bx	lr

08000d08 <__aeabi_fmul>:
 8000d08:	f04f 0cff 	mov.w	ip, #255	@ 0xff
 8000d0c:	ea1c 52d0 	ands.w	r2, ip, r0, lsr #23
 8000d10:	bf1e      	ittt	ne
 8000d12:	ea1c 53d1 	andsne.w	r3, ip, r1, lsr #23
 8000d16:	ea92 0f0c 	teqne	r2, ip
 8000d1a:	ea93 0f0c 	teqne	r3, ip
 8000d1e:	d06f      	beq.n	8000e00 <__aeabi_fmul+0xf8>
 8000d20:	441a      	add	r2, r3
 8000d22:	ea80 0c01 	eor.w	ip, r0, r1
 8000d26:	0240      	lsls	r0, r0, #9
 8000d28:	bf18      	it	ne
 8000d2a:	ea5f 2141 	movsne.w	r1, r1, lsl #9
 8000d2e:	d01e      	beq.n	8000d6e <__aeabi_fmul+0x66>
 8000d30:	f04f 6300 	mov.w	r3, #134217728	@ 0x8000000
 8000d34:	ea43 1050 	orr.w	r0, r3, r0, lsr #5
 8000d38:	ea43 1151 	orr.w	r1, r3, r1, lsr #5
 8000d3c:	fba0 3101 	umull	r3, r1, r0, r1
 8000d40:	f00c 4000 	and.w	r0, ip, #2147483648	@ 0x80000000
 8000d44:	f5b1 0f00 	cmp.w	r1, #8388608	@ 0x800000
 8000d48:	bf3e      	ittt	cc
 8000d4a:	0049      	lslcc	r1, r1, #1
 8000d4c:	ea41 71d3 	orrcc.w	r1, r1, r3, lsr #31
 8000d50:	005b      	lslcc	r3, r3, #1
 8000d52:	ea40 0001 	orr.w	r0, r0, r1
 8000d56:	f162 027f 	sbc.w	r2, r2, #127	@ 0x7f
 8000d5a:	2afd      	cmp	r2, #253	@ 0xfd
 8000d5c:	d81d      	bhi.n	8000d9a <__aeabi_fmul+0x92>
 8000d5e:	f1b3 4f00 	cmp.w	r3, #2147483648	@ 0x80000000
 8000d62:	eb40 50c2 	adc.w	r0, r0, r2, lsl #23
 8000d66:	bf08      	it	eq
 8000d68:	f020 0001 	biceq.w	r0, r0, #1
 8000d6c:	4770      	bx	lr
 8000d6e:	f090 0f00 	teq	r0, #0
 8000d72:	f00c 4c00 	and.w	ip, ip, #2147483648	@ 0x80000000
 8000d76:	bf08      	it	eq
 8000d78:	0249      	lsleq	r1, r1, #9
 8000d7a:	ea4c 2050 	orr.w	r0, ip, r0, lsr #9
 8000d7e:	ea40 2051 	orr.w	r0, r0, r1, lsr #9
 8000d82:	3a7f      	subs	r2, #127	@ 0x7f
 8000d84:	bfc2      	ittt	gt
 8000d86:	f1d2 03ff 	rsbsgt	r3, r2, #255	@ 0xff
 8000d8a:	ea40 50c2 	orrgt.w	r0, r0, r2, lsl #23
 8000d8e:	4770      	bxgt	lr
 8000d90:	f440 0000 	orr.w	r0, r0, #8388608	@ 0x800000
 8000d94:	f04f 0300 	mov.w	r3, #0
 8000d98:	3a01      	subs	r2, #1
 8000d9a:	dc5d      	bgt.n	8000e58 <__aeabi_fmul+0x150>
 8000d9c:	f112 0f19 	cmn.w	r2, #25
 8000da0:	bfdc      	itt	le
 8000da2:	f000 4000 	andle.w	r0, r0, #2147483648	@ 0x80000000
 8000da6:	4770      	bxle	lr
 8000da8:	f1c2 0200 	rsb	r2, r2, #0
 8000dac:	0041      	lsls	r1, r0, #1
 8000dae:	fa21 f102 	lsr.w	r1, r1, r2
 8000db2:	f1c2 0220 	rsb	r2, r2, #32
 8000db6:	fa00 fc02 	lsl.w	ip, r0, r2
 8000dba:	ea5f 0031 	movs.w	r0, r1, rrx
 8000dbe:	f140 0000 	adc.w	r0, r0, #0
 8000dc2:	ea53 034c 	orrs.w	r3, r3, ip, lsl #1
 8000dc6:	bf08      	it	eq
 8000dc8:	ea20 70dc 	biceq.w	r0, r0, ip, lsr #31
 8000dcc:	4770      	bx	lr
 8000dce:	f092 0f00 	teq	r2, #0
 8000dd2:	f000 4c00 	and.w	ip, r0, #2147483648	@ 0x80000000
 8000dd6:	bf02      	ittt	eq
 8000dd8:	0040      	lsleq	r0, r0, #1
 8000dda:	f410 0f00 	tsteq.w	r0, #8388608	@ 0x800000
 8000dde:	3a01      	subeq	r2, #1
 8000de0:	d0f9      	beq.n	8000dd6 <__aeabi_fmul+0xce>
 8000de2:	ea40 000c 	orr.w	r0, r0, ip
 8000de6:	f093 0f00 	teq	r3, #0
 8000dea:	f001 4c00 	and.w	ip, r1, #2147483648	@ 0x80000000
 8000dee:	bf02      	ittt	eq
 8000df0:	0049      	lsleq	r1, r1, #1
 8000df2:	f411 0f00 	tsteq.w	r1, #8388608	@ 0x800000
 8000df6:	3b01      	subeq	r3, #1
 8000df8:	d0f9      	beq.n	8000dee <__aeabi_fmul+0xe6>
 8000dfa:	ea41 010c 	orr.w	r1, r1, ip
 8000dfe:	e78f      	b.n	8000d20 <__aeabi_fmul+0x18>
 8000e00:	ea0c 53d1 	and.w	r3, ip, r1, lsr #23
 8000e04:	ea92 0f0c 	teq	r2, ip
 8000e08:	bf18      	it	ne
 8000e0a:	ea93 0f0c 	teqne	r3, ip
 8000e0e:	d00a      	beq.n	8000e26 <__aeabi_fmul+0x11e>
 8000e10:	f030 4c00 	bics.w	ip, r0, #2147483648	@ 0x80000000
 8000e14:	bf18      	it	ne
 8000e16:	f031 4c00 	bicsne.w	ip, r1, #2147483648	@ 0x80000000
 8000e1a:	d1d8      	bne.n	8000dce <__aeabi_fmul+0xc6>
 8000e1c:	ea80 0001 	eor.w	r0, r0, r1
 8000e20:	f000 4000 	and.w	r0, r0, #2147483648	@ 0x80000000
 8000e24:	4770      	bx	lr
 8000e26:	f090 0f00 	teq	r0, #0
 8000e2a:	bf17      	itett	ne
 8000e2c:	f090 4f00 	teqne	r0, #2147483648	@ 0x80000000
 8000e30:	4608      	moveq	r0, r1
 8000e32:	f091 0f00 	teqne	r1, #0
 8000e36:	f091 4f00 	teqne	r1, #2147483648	@ 0x80000000
 8000e3a:	d014      	beq.n	8000e66 <__aeabi_fmul+0x15e>
 8000e3c:	ea92 0f0c 	teq	r2, ip
 8000e40:	d101      	bne.n	8000e46 <__aeabi_fmul+0x13e>
 8000e42:	0242      	lsls	r2, r0, #9
 8000e44:	d10f      	bne.n	8000e66 <__aeabi_fmul+0x15e>
 8000e46:	ea93 0f0c 	teq	r3, ip
 8000e4a:	d103      	bne.n	8000e54 <__aeabi_fmul+0x14c>
 8000e4c:	024b      	lsls	r3, r1, #9
 8000e4e:	bf18      	it	ne
 8000e50:	4608      	movne	r0, r1
 8000e52:	d108      	bne.n	8000e66 <__aeabi_fmul+0x15e>
 8000e54:	ea80 0001 	eor.w	r0, r0, r1
 8000e58:	f000 4000 	and.w	r0, r0, #2147483648	@ 0x80000000
 8000e5c:	f040 40fe 	orr.w	r0, r0, #2130706432	@ 0x7f000000
 8000e60:	f440 0000 	orr.w	r0, r0, #8388608	@ 0x800000
 8000e64:	4770      	bx	lr
 8000e66:	f040 40fe 	orr.w	r0, r0, #2130706432	@ 0x7f000000
 8000e6a:	f440 0040 	orr.w	r0, r0, #12582912	@ 0xc00000
 8000e6e:	4770      	bx	lr

08000e70 <__aeabi_fdiv>:
 8000e70:	f04f 0cff 	mov.w	ip, #255	@ 0xff
 8000e74:	ea1c 52d0 	ands.w	r2, ip, r0, lsr #23
 8000e78:	bf1e      	ittt	ne
 8000e7a:	ea1c 53d1 	andsne.w	r3, ip, r1, lsr #23
 8000e7e:	ea92 0f0c 	teqne	r2, ip
 8000e82:	ea93 0f0c 	teqne	r3, ip
 8000e86:	d069      	beq.n	8000f5c <__aeabi_fdiv+0xec>
 8000e88:	eba2 0203 	sub.w	r2, r2, r3
 8000e8c:	ea80 0c01 	eor.w	ip, r0, r1
 8000e90:	0249      	lsls	r1, r1, #9
 8000e92:	ea4f 2040 	mov.w	r0, r0, lsl #9
 8000e96:	d037      	beq.n	8000f08 <__aeabi_fdiv+0x98>
 8000e98:	f04f 5380 	mov.w	r3, #268435456	@ 0x10000000
 8000e9c:	ea43 1111 	orr.w	r1, r3, r1, lsr #4
 8000ea0:	ea43 1310 	orr.w	r3, r3, r0, lsr #4
 8000ea4:	f00c 4000 	and.w	r0, ip, #2147483648	@ 0x80000000
 8000ea8:	428b      	cmp	r3, r1
 8000eaa:	bf38      	it	cc
 8000eac:	005b      	lslcc	r3, r3, #1
 8000eae:	f142 027d 	adc.w	r2, r2, #125	@ 0x7d
 8000eb2:	f44f 0c00 	mov.w	ip, #8388608	@ 0x800000
 8000eb6:	428b      	cmp	r3, r1
 8000eb8:	bf24      	itt	cs
 8000eba:	1a5b      	subcs	r3, r3, r1
 8000ebc:	ea40 000c 	orrcs.w	r0, r0, ip
 8000ec0:	ebb3 0f51 	cmp.w	r3, r1, lsr #1
 8000ec4:	bf24      	itt	cs
 8000ec6:	eba3 0351 	subcs.w	r3, r3, r1, lsr #1
 8000eca:	ea40 005c 	orrcs.w	r0, r0, ip, lsr #1
 8000ece:	ebb3 0f91 	cmp.w	r3, r1, lsr #2
 8000ed2:	bf24      	itt	cs
 8000ed4:	eba3 0391 	subcs.w	r3, r3, r1, lsr #2
 8000ed8:	ea40 009c 	orrcs.w	r0, r0, ip, lsr #2
 8000edc:	ebb3 0fd1 	cmp.w	r3, r1, lsr #3
 8000ee0:	bf24      	itt	cs
 8000ee2:	eba3 03d1 	subcs.w	r3, r3, r1, lsr #3
 8000ee6:	ea40 00dc 	orrcs.w	r0, r0, ip, lsr #3
 8000eea:	011b      	lsls	r3, r3, #4
 8000eec:	bf18      	it	ne
 8000eee:	ea5f 1c1c 	movsne.w	ip, ip, lsr #4
 8000ef2:	d1e0      	bne.n	8000eb6 <__aeabi_fdiv+0x46>
 8000ef4:	2afd      	cmp	r2, #253	@ 0xfd
 8000ef6:	f63f af50 	bhi.w	8000d9a <__aeabi_fmul+0x92>
 8000efa:	428b      	cmp	r3, r1
 8000efc:	eb40 50c2 	adc.w	r0, r0, r2, lsl #23
 8000f00:	bf08      	it	eq
 8000f02:	f020 0001 	biceq.w	r0, r0, #1
 8000f06:	4770      	bx	lr
 8000f08:	f00c 4c00 	and.w	ip, ip, #2147483648	@ 0x80000000
 8000f0c:	ea4c 2050 	orr.w	r0, ip, r0, lsr #9
 8000f10:	327f      	adds	r2, #127	@ 0x7f
 8000f12:	bfc2      	ittt	gt
 8000f14:	f1d2 03ff 	rsbsgt	r3, r2, #255	@ 0xff
 8000f18:	ea40 50c2 	orrgt.w	r0, r0, r2, lsl #23
 8000f1c:	4770      	bxgt	lr
 8000f1e:	f440 0000 	orr.w	r0, r0, #8388608	@ 0x800000
 8000f22:	f04f 0300 	mov.w	r3, #0
 8000f26:	3a01      	subs	r2, #1
 8000f28:	e737      	b.n	8000d9a <__aeabi_fmul+0x92>
 8000f2a:	f092 0f00 	teq	r2, #0
 8000f2e:	f000 4c00 	and.w	ip, r0, #2147483648	@ 0x80000000
 8000f32:	bf02      	ittt	eq
 8000f34:	0040      	lsleq	r0, r0, #1
 8000f36:	f410 0f00 	tsteq.w	r0, #8388608	@ 0x800000
 8000f3a:	3a01      	subeq	r2, #1
 8000f3c:	d0f9      	beq.n	8000f32 <__aeabi_fdiv+0xc2>
 8000f3e:	ea40 000c 	orr.w	r0, r0, ip
 8000f42:	f093 0f00 	teq	r3, #0
 8000f46:	f001 4c00 	and.w	ip, r1, #2147483648	@ 0x80000000
 8000f4a:	bf02      	ittt	eq
 8000f4c:	0049      	lsleq	r1, r1, #1
 8000f4e:	f411 0f00 	tsteq.w	r1, #8388608	@ 0x800000
 8000f52:	3b01      	subeq	r3, #1
 8000f54:	d0f9      	beq.n	8000f4a <__aeabi_fdiv+0xda>
 8000f56:	ea41 010c 	orr.w	r1, r1, ip
 8000f5a:	e795      	b.n	8000e88 <__aeabi_fdiv+0x18>
 8000f5c:	ea0c 53d1 	and.w	r3, ip, r1, lsr #23
 8000f60:	ea92 0f0c 	teq	r2, ip
 8000f64:	d108      	bne.n	8000f78 <__aeabi_fdiv+0x108>
 8000f66:	0242      	lsls	r2, r0, #9
 8000f68:	f47f af7d 	bne.w	8000e66 <__aeabi_fmul+0x15e>
 8000f6c:	ea93 0f0c 	teq	r3, ip
 8000f70:	f47f af70 	bne.w	8000e54 <__aeabi_fmul+0x14c>
 8000f74:	4608      	mov	r0, r1
 8000f76:	e776      	b.n	8000e66 <__aeabi_fmul+0x15e>
 8000f78:	ea93 0f0c 	teq	r3, ip
 8000f7c:	d104      	bne.n	8000f88 <__aeabi_fdiv+0x118>
 8000f7e:	024b      	lsls	r3, r1, #9
 8000f80:	f43f af4c 	beq.w	8000e1c <__aeabi_fmul+0x114>
 8000f84:	4608      	mov	r0, r1
 8000f86:	e76e      	b.n	8000e66 <__aeabi_fmul+0x15e>
 8000f88:	f030 4c00 	bics.w	ip, r0, #2147483648	@ 0x80000000
 8000f8c:	bf18      	it	ne
 8000f8e:	f031 4c00 	bicsne.w	ip, r1, #2147483648	@ 0x80000000
 8000f92:	d1ca      	bne.n	8000f2a <__aeabi_fdiv+0xba>
 8000f94:	f030 4200 	bics.w	r2, r0, #2147483648	@ 0x80000000
 8000f98:	f47f af5c 	bne.w	8000e54 <__aeabi_fmul+0x14c>
 8000f9c:	f031 4300 	bics.w	r3, r1, #2147483648	@ 0x80000000
 8000fa0:	f47f af3c 	bne.w	8000e1c <__aeabi_fmul+0x114>
 8000fa4:	e75f      	b.n	8000e66 <__aeabi_fmul+0x15e>
 8000fa6:	bf00      	nop

08000fa8 <__gesf2>:
 8000fa8:	f04f 3cff 	mov.w	ip, #4294967295
 8000fac:	e006      	b.n	8000fbc <__cmpsf2+0x4>
 8000fae:	bf00      	nop

08000fb0 <__lesf2>:
 8000fb0:	f04f 0c01 	mov.w	ip, #1
 8000fb4:	e002      	b.n	8000fbc <__cmpsf2+0x4>
 8000fb6:	bf00      	nop

08000fb8 <__cmpsf2>:
 8000fb8:	f04f 0c01 	mov.w	ip, #1
 8000fbc:	f84d cd04 	str.w	ip, [sp, #-4]!
 8000fc0:	ea4f 0240 	mov.w	r2, r0, lsl #1
 8000fc4:	ea4f 0341 	mov.w	r3, r1, lsl #1
 8000fc8:	ea7f 6c22 	mvns.w	ip, r2, asr #24
 8000fcc:	bf18      	it	ne
 8000fce:	ea7f 6c23 	mvnsne.w	ip, r3, asr #24
 8000fd2:	d011      	beq.n	8000ff8 <__cmpsf2+0x40>
 8000fd4:	b001      	add	sp, #4
 8000fd6:	ea52 0c53 	orrs.w	ip, r2, r3, lsr #1
 8000fda:	bf18      	it	ne
 8000fdc:	ea90 0f01 	teqne	r0, r1
 8000fe0:	bf58      	it	pl
 8000fe2:	ebb2 0003 	subspl.w	r0, r2, r3
 8000fe6:	bf88      	it	hi
 8000fe8:	17c8      	asrhi	r0, r1, #31
 8000fea:	bf38      	it	cc
 8000fec:	ea6f 70e1 	mvncc.w	r0, r1, asr #31
 8000ff0:	bf18      	it	ne
 8000ff2:	f040 0001 	orrne.w	r0, r0, #1
 8000ff6:	4770      	bx	lr
 8000ff8:	ea7f 6c22 	mvns.w	ip, r2, asr #24
 8000ffc:	d102      	bne.n	8001004 <__cmpsf2+0x4c>
 8000ffe:	ea5f 2c40 	movs.w	ip, r0, lsl #9
 8001002:	d105      	bne.n	8001010 <__cmpsf2+0x58>
 8001004:	ea7f 6c23 	mvns.w	ip, r3, asr #24
 8001008:	d1e4      	bne.n	8000fd4 <__cmpsf2+0x1c>
 800100a:	ea5f 2c41 	movs.w	ip, r1, lsl #9
 800100e:	d0e1      	beq.n	8000fd4 <__cmpsf2+0x1c>
 8001010:	f85d 0b04 	ldr.w	r0, [sp], #4
 8001014:	4770      	bx	lr
 8001016:	bf00      	nop

08001018 <__aeabi_cfrcmple>:
 8001018:	4684      	mov	ip, r0
 800101a:	4608      	mov	r0, r1
 800101c:	4661      	mov	r1, ip
 800101e:	e7ff      	b.n	8001020 <__aeabi_cfcmpeq>

08001020 <__aeabi_cfcmpeq>:
 8001020:	b50f      	push	{r0, r1, r2, r3, lr}
 8001022:	f7ff ffc9 	bl	8000fb8 <__cmpsf2>
 8001026:	2800      	cmp	r0, #0
 8001028:	bf48      	it	mi
 800102a:	f110 0f00 	cmnmi.w	r0, #0
 800102e:	bd0f      	pop	{r0, r1, r2, r3, pc}

08001030 <__aeabi_fcmpeq>:
 8001030:	f84d ed08 	str.w	lr, [sp, #-8]!
 8001034:	f7ff fff4 	bl	8001020 <__aeabi_cfcmpeq>
 8001038:	bf0c      	ite	eq
 800103a:	2001      	moveq	r0, #1
 800103c:	2000      	movne	r0, #0
 800103e:	f85d fb08 	ldr.w	pc, [sp], #8
 8001042:	bf00      	nop

08001044 <__aeabi_fcmplt>:
 8001044:	f84d ed08 	str.w	lr, [sp, #-8]!
 8001048:	f7ff ffea 	bl	8001020 <__aeabi_cfcmpeq>
 800104c:	bf34      	ite	cc
 800104e:	2001      	movcc	r0, #1
 8001050:	2000      	movcs	r0, #0
 8001052:	f85d fb08 	ldr.w	pc, [sp], #8
 8001056:	bf00      	nop

08001058 <__aeabi_fcmple>:
 8001058:	f84d ed08 	str.w	lr, [sp, #-8]!
 800105c:	f7ff ffe0 	bl	8001020 <__aeabi_cfcmpeq>
 8001060:	bf94      	ite	ls
 8001062:	2001      	movls	r0, #1
 8001064:	2000      	movhi	r0, #0
 8001066:	f85d fb08 	ldr.w	pc, [sp], #8
 800106a:	bf00      	nop

0800106c <__aeabi_fcmpge>:
 800106c:	f84d ed08 	str.w	lr, [sp, #-8]!
 8001070:	f7ff ffd2 	bl	8001018 <__aeabi_cfrcmple>
 8001074:	bf94      	ite	ls
 8001076:	2001      	movls	r0, #1
 8001078:	2000      	movhi	r0, #0
 800107a:	f85d fb08 	ldr.w	pc, [sp], #8
 800107e:	bf00      	nop

08001080 <__aeabi_fcmpgt>:
 8001080:	f84d ed08 	str.w	lr, [sp, #-8]!
 8001084:	f7ff ffc8 	bl	8001018 <__aeabi_cfrcmple>
 8001088:	bf34      	ite	cc
 800108a:	2001      	movcc	r0, #1
 800108c:	2000      	movcs	r0, #0
 800108e:	f85d fb08 	ldr.w	pc, [sp], #8
 8001092:	bf00      	nop

08001094 <__aeabi_fcmpun>:
 8001094:	ea4f 0240 	mov.w	r2, r0, lsl #1
 8001098:	ea4f 0341 	mov.w	r3, r1, lsl #1
 800109c:	ea7f 6c22 	mvns.w	ip, r2, asr #24
 80010a0:	d102      	bne.n	80010a8 <__aeabi_fcmpun+0x14>
 80010a2:	ea5f 2c40 	movs.w	ip, r0, lsl #9
 80010a6:	d108      	bne.n	80010ba <__aeabi_fcmpun+0x26>
 80010a8:	ea7f 6c23 	mvns.w	ip, r3, asr #24
 80010ac:	d102      	bne.n	80010b4 <__aeabi_fcmpun+0x20>
 80010ae:	ea5f 2c41 	movs.w	ip, r1, lsl #9
 80010b2:	d102      	bne.n	80010ba <__aeabi_fcmpun+0x26>
 80010b4:	f04f 0000 	mov.w	r0, #0
 80010b8:	4770      	bx	lr
 80010ba:	f04f 0001 	mov.w	r0, #1
 80010be:	4770      	bx	lr

080010c0 <__aeabi_f2uiz>:
 80010c0:	0042      	lsls	r2, r0, #1
 80010c2:	d20e      	bcs.n	80010e2 <__aeabi_f2uiz+0x22>
 80010c4:	f1b2 4ffe 	cmp.w	r2, #2130706432	@ 0x7f000000
 80010c8:	d30b      	bcc.n	80010e2 <__aeabi_f2uiz+0x22>
 80010ca:	f04f 039e 	mov.w	r3, #158	@ 0x9e
 80010ce:	ebb3 6212 	subs.w	r2, r3, r2, lsr #24
 80010d2:	d409      	bmi.n	80010e8 <__aeabi_f2uiz+0x28>
 80010d4:	ea4f 2300 	mov.w	r3, r0, lsl #8
 80010d8:	f043 4300 	orr.w	r3, r3, #2147483648	@ 0x80000000
 80010dc:	fa23 f002 	lsr.w	r0, r3, r2
 80010e0:	4770      	bx	lr
 80010e2:	f04f 0000 	mov.w	r0, #0
 80010e6:	4770      	bx	lr
 80010e8:	f112 0f61 	cmn.w	r2, #97	@ 0x61
 80010ec:	d101      	bne.n	80010f2 <__aeabi_f2uiz+0x32>
 80010ee:	0242      	lsls	r2, r0, #9
 80010f0:	d102      	bne.n	80010f8 <__aeabi_f2uiz+0x38>
 80010f2:	f04f 30ff 	mov.w	r0, #4294967295
 80010f6:	4770      	bx	lr
 80010f8:	f04f 0000 	mov.w	r0, #0
 80010fc:	4770      	bx	lr
 80010fe:	bf00      	nop

08001100 <changeManualServo>:
#include <Brazo.h>

uint8_t selected_servo = 0;

void changeManualServo(uint8_t new_servo){
 8001100:	b480      	push	{r7}
 8001102:	b083      	sub	sp, #12
 8001104:	af00      	add	r7, sp, #0
 8001106:	4603      	mov	r3, r0
 8001108:	71fb      	strb	r3, [r7, #7]
	selected_servo = new_servo;
 800110a:	4a04      	ldr	r2, [pc, #16]	@ (800111c <changeManualServo+0x1c>)
 800110c:	79fb      	ldrb	r3, [r7, #7]
 800110e:	7013      	strb	r3, [r2, #0]
}
 8001110:	bf00      	nop
 8001112:	370c      	adds	r7, #12
 8001114:	46bd      	mov	sp, r7
 8001116:	bc80      	pop	{r7}
 8001118:	4770      	bx	lr
 800111a:	bf00      	nop
 800111c:	20000080 	.word	0x20000080

08001120 <UpdateBrazo>:

void UpdateBrazo(uint8_t posicion[7]){
 8001120:	b580      	push	{r7, lr}
 8001122:	b082      	sub	sp, #8
 8001124:	af00      	add	r7, sp, #0
 8001126:	6078      	str	r0, [r7, #4]
	PCA9685_SetServoAngle(0, posicion[0]);
 8001128:	687b      	ldr	r3, [r7, #4]
 800112a:	781b      	ldrb	r3, [r3, #0]
 800112c:	4618      	mov	r0, r3
 800112e:	f7ff fd93 	bl	8000c58 <__aeabi_ui2f>
 8001132:	4603      	mov	r3, r0
 8001134:	4619      	mov	r1, r3
 8001136:	2000      	movs	r0, #0
 8001138:	f001 fa22 	bl	8002580 <PCA9685_SetServoAngle>
	PCA9685_SetServoAngle(1, posicion[1]);
 800113c:	687b      	ldr	r3, [r7, #4]
 800113e:	3301      	adds	r3, #1
 8001140:	781b      	ldrb	r3, [r3, #0]
 8001142:	4618      	mov	r0, r3
 8001144:	f7ff fd88 	bl	8000c58 <__aeabi_ui2f>
 8001148:	4603      	mov	r3, r0
 800114a:	4619      	mov	r1, r3
 800114c:	2001      	movs	r0, #1
 800114e:	f001 fa17 	bl	8002580 <PCA9685_SetServoAngle>
	PCA9685_SetServoAngle(2, posicion[2]);
 8001152:	687b      	ldr	r3, [r7, #4]
 8001154:	3302      	adds	r3, #2
 8001156:	781b      	ldrb	r3, [r3, #0]
 8001158:	4618      	mov	r0, r3
 800115a:	f7ff fd7d 	bl	8000c58 <__aeabi_ui2f>
 800115e:	4603      	mov	r3, r0
 8001160:	4619      	mov	r1, r3
 8001162:	2002      	movs	r0, #2
 8001164:	f001 fa0c 	bl	8002580 <PCA9685_SetServoAngle>
	PCA9685_SetServoAngle(3, posicion[3]);
 8001168:	687b      	ldr	r3, [r7, #4]
 800116a:	3303      	adds	r3, #3
 800116c:	781b      	ldrb	r3, [r3, #0]
 800116e:	4618      	mov	r0, r3
 8001170:	f7ff fd72 	bl	8000c58 <__aeabi_ui2f>
 8001174:	4603      	mov	r3, r0
 8001176:	4619      	mov	r1, r3
 8001178:	2003      	movs	r0, #3
 800117a:	f001 fa01 	bl	8002580 <PCA9685_SetServoAngle>
	PCA9685_SetServoAngle(4, posicion[4]);
 800117e:	687b      	ldr	r3, [r7, #4]
 8001180:	3304      	adds	r3, #4
 8001182:	781b      	ldrb	r3, [r3, #0]
 8001184:	4618      	mov	r0, r3
 8001186:	f7ff fd67 	bl	8000c58 <__aeabi_ui2f>
 800118a:	4603      	mov	r3, r0
 800118c:	4619      	mov	r1, r3
 800118e:	2004      	movs	r0, #4
 8001190:	f001 f9f6 	bl	8002580 <PCA9685_SetServoAngle>
	PCA9685_SetServoAngle(5, posicion[5]);
 8001194:	687b      	ldr	r3, [r7, #4]
 8001196:	3305      	adds	r3, #5
 8001198:	781b      	ldrb	r3, [r3, #0]
 800119a:	4618      	mov	r0, r3
 800119c:	f7ff fd5c 	bl	8000c58 <__aeabi_ui2f>
 80011a0:	4603      	mov	r3, r0
 80011a2:	4619      	mov	r1, r3
 80011a4:	2005      	movs	r0, #5
 80011a6:	f001 f9eb 	bl	8002580 <PCA9685_SetServoAngle>
	PCA9685_SetServoAngle(6, posicion[6]);
 80011aa:	687b      	ldr	r3, [r7, #4]
 80011ac:	3306      	adds	r3, #6
 80011ae:	781b      	ldrb	r3, [r3, #0]
 80011b0:	4618      	mov	r0, r3
 80011b2:	f7ff fd51 	bl	8000c58 <__aeabi_ui2f>
 80011b6:	4603      	mov	r3, r0
 80011b8:	4619      	mov	r1, r3
 80011ba:	2006      	movs	r0, #6
 80011bc:	f001 f9e0 	bl	8002580 <PCA9685_SetServoAngle>
}
 80011c0:	bf00      	nop
 80011c2:	3708      	adds	r7, #8
 80011c4:	46bd      	mov	sp, r7
 80011c6:	bd80      	pop	{r7, pc}

080011c8 <park>:
	//que el brazo trabajaría en algo bastante más complejo que coordenadas esféricas dada
	//la articulación del codo, así que esta función es un bardo bárbaro de implementar.
	//veremos si de la filtración de kalman se pueden sacar datos de posición absoluta viables.
}

void park(uint8_t posicion[7]){
 80011c8:	b580      	push	{r7, lr}
 80011ca:	b082      	sub	sp, #8
 80011cc:	af00      	add	r7, sp, #0
 80011ce:	6078      	str	r0, [r7, #4]
	posicion[0] = 180;
 80011d0:	687b      	ldr	r3, [r7, #4]
 80011d2:	22b4      	movs	r2, #180	@ 0xb4
 80011d4:	701a      	strb	r2, [r3, #0]
	posicion[1] = 75;
 80011d6:	687b      	ldr	r3, [r7, #4]
 80011d8:	3301      	adds	r3, #1
 80011da:	224b      	movs	r2, #75	@ 0x4b
 80011dc:	701a      	strb	r2, [r3, #0]
	posicion[2] = 0;
 80011de:	687b      	ldr	r3, [r7, #4]
 80011e0:	3302      	adds	r3, #2
 80011e2:	2200      	movs	r2, #0
 80011e4:	701a      	strb	r2, [r3, #0]
	posicion[3] = 180;
 80011e6:	687b      	ldr	r3, [r7, #4]
 80011e8:	3303      	adds	r3, #3
 80011ea:	22b4      	movs	r2, #180	@ 0xb4
 80011ec:	701a      	strb	r2, [r3, #0]
	posicion[4] = 90;
 80011ee:	687b      	ldr	r3, [r7, #4]
 80011f0:	3304      	adds	r3, #4
 80011f2:	225a      	movs	r2, #90	@ 0x5a
 80011f4:	701a      	strb	r2, [r3, #0]
	posicion[5] = 45;
 80011f6:	687b      	ldr	r3, [r7, #4]
 80011f8:	3305      	adds	r3, #5
 80011fa:	222d      	movs	r2, #45	@ 0x2d
 80011fc:	701a      	strb	r2, [r3, #0]
	posicion[6] = 30;
 80011fe:	687b      	ldr	r3, [r7, #4]
 8001200:	3306      	adds	r3, #6
 8001202:	221e      	movs	r2, #30
 8001204:	701a      	strb	r2, [r3, #0]
	UpdateBrazo(posicion);
 8001206:	6878      	ldr	r0, [r7, #4]
 8001208:	f7ff ff8a 	bl	8001120 <UpdateBrazo>
}
 800120c:	bf00      	nop
 800120e:	3708      	adds	r7, #8
 8001210:	46bd      	mov	sp, r7
 8001212:	bd80      	pop	{r7, pc}

08001214 <Brazo_getSelectedServo>:

uint8_t Brazo_getSelectedServo(){
 8001214:	b480      	push	{r7}
 8001216:	af00      	add	r7, sp, #0
	return selected_servo;
 8001218:	4b02      	ldr	r3, [pc, #8]	@ (8001224 <Brazo_getSelectedServo+0x10>)
 800121a:	781b      	ldrb	r3, [r3, #0]
}
 800121c:	4618      	mov	r0, r3
 800121e:	46bd      	mov	sp, r7
 8001220:	bc80      	pop	{r7}
 8001222:	4770      	bx	lr
 8001224:	20000080 	.word	0x20000080

08001228 <Brazo_increaseAngle>:

void Brazo_increaseAngle(uint8_t pos[7]){
 8001228:	b590      	push	{r4, r7, lr}
 800122a:	b083      	sub	sp, #12
 800122c:	af00      	add	r7, sp, #0
 800122e:	6078      	str	r0, [r7, #4]
	if(pos[selected_servo] >= 180)
 8001230:	4b12      	ldr	r3, [pc, #72]	@ (800127c <Brazo_increaseAngle+0x54>)
 8001232:	781b      	ldrb	r3, [r3, #0]
 8001234:	461a      	mov	r2, r3
 8001236:	687b      	ldr	r3, [r7, #4]
 8001238:	4413      	add	r3, r2
 800123a:	781b      	ldrb	r3, [r3, #0]
 800123c:	2bb3      	cmp	r3, #179	@ 0xb3
 800123e:	d819      	bhi.n	8001274 <Brazo_increaseAngle+0x4c>
		return;

	pos[selected_servo]++;
 8001240:	4b0e      	ldr	r3, [pc, #56]	@ (800127c <Brazo_increaseAngle+0x54>)
 8001242:	781b      	ldrb	r3, [r3, #0]
 8001244:	461a      	mov	r2, r3
 8001246:	687b      	ldr	r3, [r7, #4]
 8001248:	4413      	add	r3, r2
 800124a:	781a      	ldrb	r2, [r3, #0]
 800124c:	3201      	adds	r2, #1
 800124e:	b2d2      	uxtb	r2, r2
 8001250:	701a      	strb	r2, [r3, #0]
	PCA9685_SetServoAngle(selected_servo, pos[selected_servo]);
 8001252:	4b0a      	ldr	r3, [pc, #40]	@ (800127c <Brazo_increaseAngle+0x54>)
 8001254:	781c      	ldrb	r4, [r3, #0]
 8001256:	4b09      	ldr	r3, [pc, #36]	@ (800127c <Brazo_increaseAngle+0x54>)
 8001258:	781b      	ldrb	r3, [r3, #0]
 800125a:	461a      	mov	r2, r3
 800125c:	687b      	ldr	r3, [r7, #4]
 800125e:	4413      	add	r3, r2
 8001260:	781b      	ldrb	r3, [r3, #0]
 8001262:	4618      	mov	r0, r3
 8001264:	f7ff fcf8 	bl	8000c58 <__aeabi_ui2f>
 8001268:	4603      	mov	r3, r0
 800126a:	4619      	mov	r1, r3
 800126c:	4620      	mov	r0, r4
 800126e:	f001 f987 	bl	8002580 <PCA9685_SetServoAngle>
 8001272:	e000      	b.n	8001276 <Brazo_increaseAngle+0x4e>
		return;
 8001274:	bf00      	nop
}
 8001276:	370c      	adds	r7, #12
 8001278:	46bd      	mov	sp, r7
 800127a:	bd90      	pop	{r4, r7, pc}
 800127c:	20000080 	.word	0x20000080

08001280 <Brazo_decreaseAngle>:

void Brazo_decreaseAngle(uint8_t pos[7]){
 8001280:	b590      	push	{r4, r7, lr}
 8001282:	b083      	sub	sp, #12
 8001284:	af00      	add	r7, sp, #0
 8001286:	6078      	str	r0, [r7, #4]
	if(pos[selected_servo] >= 180)
 8001288:	4b12      	ldr	r3, [pc, #72]	@ (80012d4 <Brazo_decreaseAngle+0x54>)
 800128a:	781b      	ldrb	r3, [r3, #0]
 800128c:	461a      	mov	r2, r3
 800128e:	687b      	ldr	r3, [r7, #4]
 8001290:	4413      	add	r3, r2
 8001292:	781b      	ldrb	r3, [r3, #0]
 8001294:	2bb3      	cmp	r3, #179	@ 0xb3
 8001296:	d819      	bhi.n	80012cc <Brazo_decreaseAngle+0x4c>
		return;

	pos[selected_servo]--;
 8001298:	4b0e      	ldr	r3, [pc, #56]	@ (80012d4 <Brazo_decreaseAngle+0x54>)
 800129a:	781b      	ldrb	r3, [r3, #0]
 800129c:	461a      	mov	r2, r3
 800129e:	687b      	ldr	r3, [r7, #4]
 80012a0:	4413      	add	r3, r2
 80012a2:	781a      	ldrb	r2, [r3, #0]
 80012a4:	3a01      	subs	r2, #1
 80012a6:	b2d2      	uxtb	r2, r2
 80012a8:	701a      	strb	r2, [r3, #0]
	PCA9685_SetServoAngle(selected_servo, pos[selected_servo]);
 80012aa:	4b0a      	ldr	r3, [pc, #40]	@ (80012d4 <Brazo_decreaseAngle+0x54>)
 80012ac:	781c      	ldrb	r4, [r3, #0]
 80012ae:	4b09      	ldr	r3, [pc, #36]	@ (80012d4 <Brazo_decreaseAngle+0x54>)
 80012b0:	781b      	ldrb	r3, [r3, #0]
 80012b2:	461a      	mov	r2, r3
 80012b4:	687b      	ldr	r3, [r7, #4]
 80012b6:	4413      	add	r3, r2
 80012b8:	781b      	ldrb	r3, [r3, #0]
 80012ba:	4618      	mov	r0, r3
 80012bc:	f7ff fccc 	bl	8000c58 <__aeabi_ui2f>
 80012c0:	4603      	mov	r3, r0
 80012c2:	4619      	mov	r1, r3
 80012c4:	4620      	mov	r0, r4
 80012c6:	f001 f95b 	bl	8002580 <PCA9685_SetServoAngle>
 80012ca:	e000      	b.n	80012ce <Brazo_decreaseAngle+0x4e>
		return;
 80012cc:	bf00      	nop
}
 80012ce:	370c      	adds	r7, #12
 80012d0:	46bd      	mov	sp, r7
 80012d2:	bd90      	pop	{r4, r7, pc}
 80012d4:	20000080 	.word	0x20000080

080012d8 <FSM_Brazo>:
UART_HandleTypeDef *huart;
static uint8_t selected_servo = 0;


/* Process event and execute actions */
void FSM_Brazo(Brazo *B, evento event) {
 80012d8:	b5b0      	push	{r4, r5, r7, lr}
 80012da:	b08a      	sub	sp, #40	@ 0x28
 80012dc:	af04      	add	r7, sp, #16
 80012de:	6078      	str	r0, [r7, #4]
 80012e0:	460b      	mov	r3, r1
 80012e2:	70fb      	strb	r3, [r7, #3]
	switch (B->actual) {
 80012e4:	687b      	ldr	r3, [r7, #4]
 80012e6:	781b      	ldrb	r3, [r3, #0]
 80012e8:	2b04      	cmp	r3, #4
 80012ea:	f200 8148 	bhi.w	800157e <FSM_Brazo+0x2a6>
 80012ee:	a201      	add	r2, pc, #4	@ (adr r2, 80012f4 <FSM_Brazo+0x1c>)
 80012f0:	f852 f023 	ldr.w	pc, [r2, r3, lsl #2]
 80012f4:	08001309 	.word	0x08001309
 80012f8:	08001373 	.word	0x08001373
 80012fc:	0800157f 	.word	0x0800157f
 8001300:	0800143b 	.word	0x0800143b
 8001304:	080014af 	.word	0x080014af
	case STATE_INICIO:
		switch(event) {
 8001308:	78fb      	ldrb	r3, [r7, #3]
 800130a:	2b00      	cmp	r3, #0
 800130c:	d002      	beq.n	8001314 <FSM_Brazo+0x3c>
 800130e:	2b06      	cmp	r3, #6
 8001310:	d020      	beq.n	8001354 <FSM_Brazo+0x7c>
			B->actual = STATE_MANUAL;
			char *msg = "ACTIVADO MODO MANUAL\r\n\n";
			HAL_UART_Transmit(huart, (uint8_t *) msg, sizeof(msg), HAL_MAX_DELAY);
			break;
		default:
			break;
 8001312:	e02d      	b.n	8001370 <FSM_Brazo+0x98>
			B->actual = STATE_ACTIVO;
 8001314:	687b      	ldr	r3, [r7, #4]
 8001316:	2201      	movs	r2, #1
 8001318:	701a      	strb	r2, [r3, #0]
			HAL_GPIO_TogglePin(GPIOC, GPIO_PIN_13);
 800131a:	f44f 5100 	mov.w	r1, #8192	@ 0x2000
 800131e:	489a      	ldr	r0, [pc, #616]	@ (8001588 <FSM_Brazo+0x2b0>)
 8001320:	f002 fc22 	bl	8003b68 <HAL_GPIO_TogglePin>
			nrf24_receive((uint8_t*) &rx_buffer, sizeof(rx_data));
 8001324:	2124      	movs	r1, #36	@ 0x24
 8001326:	4899      	ldr	r0, [pc, #612]	@ (800158c <FSM_Brazo+0x2b4>)
 8001328:	f006 fc14 	bl	8007b54 <nrf24_receive>
			B->last_rf_comm = rx_buffer;
 800132c:	687b      	ldr	r3, [r7, #4]
 800132e:	4a97      	ldr	r2, [pc, #604]	@ (800158c <FSM_Brazo+0x2b4>)
 8001330:	f103 040c 	add.w	r4, r3, #12
 8001334:	4615      	mov	r5, r2
 8001336:	cd0f      	ldmia	r5!, {r0, r1, r2, r3}
 8001338:	c40f      	stmia	r4!, {r0, r1, r2, r3}
 800133a:	cd0f      	ldmia	r5!, {r0, r1, r2, r3}
 800133c:	c40f      	stmia	r4!, {r0, r1, r2, r3}
 800133e:	682b      	ldr	r3, [r5, #0]
 8001340:	6023      	str	r3, [r4, #0]
			processComm(B);
 8001342:	6878      	ldr	r0, [r7, #4]
 8001344:	f000 f990 	bl	8001668 <processComm>
			UpdateBrazo(B->pos);
 8001348:	687b      	ldr	r3, [r7, #4]
 800134a:	3301      	adds	r3, #1
 800134c:	4618      	mov	r0, r3
 800134e:	f7ff fee7 	bl	8001120 <UpdateBrazo>
			break;
 8001352:	e00d      	b.n	8001370 <FSM_Brazo+0x98>
			B->actual = STATE_MANUAL;
 8001354:	687b      	ldr	r3, [r7, #4]
 8001356:	2204      	movs	r2, #4
 8001358:	701a      	strb	r2, [r3, #0]
			char *msg = "ACTIVADO MODO MANUAL\r\n\n";
 800135a:	4b8d      	ldr	r3, [pc, #564]	@ (8001590 <FSM_Brazo+0x2b8>)
 800135c:	60bb      	str	r3, [r7, #8]
			HAL_UART_Transmit(huart, (uint8_t *) msg, sizeof(msg), HAL_MAX_DELAY);
 800135e:	4b8d      	ldr	r3, [pc, #564]	@ (8001594 <FSM_Brazo+0x2bc>)
 8001360:	6818      	ldr	r0, [r3, #0]
 8001362:	f04f 33ff 	mov.w	r3, #4294967295
 8001366:	2204      	movs	r2, #4
 8001368:	68b9      	ldr	r1, [r7, #8]
 800136a:	f005 fa19 	bl	80067a0 <HAL_UART_Transmit>
			break;
 800136e:	bf00      	nop
		}
		break;
 8001370:	e106      	b.n	8001580 <FSM_Brazo+0x2a8>
	case STATE_ACTIVO:
		switch (event) {
 8001372:	78fb      	ldrb	r3, [r7, #3]
 8001374:	2b06      	cmp	r3, #6
 8001376:	d85e      	bhi.n	8001436 <FSM_Brazo+0x15e>
 8001378:	a201      	add	r2, pc, #4	@ (adr r2, 8001380 <FSM_Brazo+0xa8>)
 800137a:	f852 f023 	ldr.w	pc, [r2, r3, lsl #2]
 800137e:	bf00      	nop
 8001380:	0800139d 	.word	0x0800139d
 8001384:	08001437 	.word	0x08001437
 8001388:	080013f9 	.word	0x080013f9
 800138c:	080013d7 	.word	0x080013d7
 8001390:	080013d7 	.word	0x080013d7
 8001394:	08001437 	.word	0x08001437
 8001398:	08001411 	.word	0x08001411
		case EVENT_NEW_DATA:
			HAL_GPIO_TogglePin(GPIOC, GPIO_PIN_13);
 800139c:	f44f 5100 	mov.w	r1, #8192	@ 0x2000
 80013a0:	4879      	ldr	r0, [pc, #484]	@ (8001588 <FSM_Brazo+0x2b0>)
 80013a2:	f002 fbe1 	bl	8003b68 <HAL_GPIO_TogglePin>
			nrf24_receive((uint8_t*) &rx_buffer, sizeof(rx_data));
 80013a6:	2124      	movs	r1, #36	@ 0x24
 80013a8:	4878      	ldr	r0, [pc, #480]	@ (800158c <FSM_Brazo+0x2b4>)
 80013aa:	f006 fbd3 	bl	8007b54 <nrf24_receive>
			mensaje_ssd(txt, Font_6x8, 0, 2, 0);
			mensaje_ssd("Sincronizado", Font_6x8, 0, 3, 0);
			*/
			//HAL_Delay(100);

			B->last_rf_comm = rx_buffer;
 80013ae:	687b      	ldr	r3, [r7, #4]
 80013b0:	4a76      	ldr	r2, [pc, #472]	@ (800158c <FSM_Brazo+0x2b4>)
 80013b2:	f103 040c 	add.w	r4, r3, #12
 80013b6:	4615      	mov	r5, r2
 80013b8:	cd0f      	ldmia	r5!, {r0, r1, r2, r3}
 80013ba:	c40f      	stmia	r4!, {r0, r1, r2, r3}
 80013bc:	cd0f      	ldmia	r5!, {r0, r1, r2, r3}
 80013be:	c40f      	stmia	r4!, {r0, r1, r2, r3}
 80013c0:	682b      	ldr	r3, [r5, #0]
 80013c2:	6023      	str	r3, [r4, #0]
			processComm(B);
 80013c4:	6878      	ldr	r0, [r7, #4]
 80013c6:	f000 f94f 	bl	8001668 <processComm>
			UpdateBrazo(B->pos);
 80013ca:	687b      	ldr	r3, [r7, #4]
 80013cc:	3301      	adds	r3, #1
 80013ce:	4618      	mov	r0, r3
 80013d0:	f7ff fea6 	bl	8001120 <UpdateBrazo>
			break;
 80013d4:	e030      	b.n	8001438 <FSM_Brazo+0x160>
		case EVENT_TIMEOUT:
		case EVENT_PARKEAR:
			mensaje_ssd("parkeado bien chill", Font_6x8, 0, 0, 1);
 80013d6:	4b70      	ldr	r3, [pc, #448]	@ (8001598 <FSM_Brazo+0x2c0>)
 80013d8:	2201      	movs	r2, #1
 80013da:	9202      	str	r2, [sp, #8]
 80013dc:	2200      	movs	r2, #0
 80013de:	9201      	str	r2, [sp, #4]
 80013e0:	2200      	movs	r2, #0
 80013e2:	9200      	str	r2, [sp, #0]
 80013e4:	cb0e      	ldmia	r3, {r1, r2, r3}
 80013e6:	486d      	ldr	r0, [pc, #436]	@ (800159c <FSM_Brazo+0x2c4>)
 80013e8:	f001 fb6c 	bl	8002ac4 <mensaje_ssd>
			// HAL_TIM_Base_Start_IT(&htim1);
			park(B->pos);
 80013ec:	687b      	ldr	r3, [r7, #4]
 80013ee:	3301      	adds	r3, #1
 80013f0:	4618      	mov	r0, r3
 80013f2:	f7ff fee9 	bl	80011c8 <park>
			break;
 80013f6:	e01f      	b.n	8001438 <FSM_Brazo+0x160>
		case EVENT_EVIL_DATA:
			mensaje_ssd("err: datos corruptos", Font_6x8, 0, 0, 1);
 80013f8:	4b67      	ldr	r3, [pc, #412]	@ (8001598 <FSM_Brazo+0x2c0>)
 80013fa:	2201      	movs	r2, #1
 80013fc:	9202      	str	r2, [sp, #8]
 80013fe:	2200      	movs	r2, #0
 8001400:	9201      	str	r2, [sp, #4]
 8001402:	2200      	movs	r2, #0
 8001404:	9200      	str	r2, [sp, #0]
 8001406:	cb0e      	ldmia	r3, {r1, r2, r3}
 8001408:	4865      	ldr	r0, [pc, #404]	@ (80015a0 <FSM_Brazo+0x2c8>)
 800140a:	f001 fb5b 	bl	8002ac4 <mensaje_ssd>
			break;
 800140e:	e013      	b.n	8001438 <FSM_Brazo+0x160>
		case EVENT_MANUAL:
			B->actual = STATE_MANUAL;
 8001410:	687b      	ldr	r3, [r7, #4]
 8001412:	2204      	movs	r2, #4
 8001414:	701a      	strb	r2, [r3, #0]
			char *msg = "ACTIVADO MODO MANUAL\r\n\n";
 8001416:	4b5e      	ldr	r3, [pc, #376]	@ (8001590 <FSM_Brazo+0x2b8>)
 8001418:	60fb      	str	r3, [r7, #12]
			HAL_UART_Transmit(huart, (uint8_t *) msg, strlen(msg), HAL_MAX_DELAY);
 800141a:	4b5e      	ldr	r3, [pc, #376]	@ (8001594 <FSM_Brazo+0x2bc>)
 800141c:	681c      	ldr	r4, [r3, #0]
 800141e:	68f8      	ldr	r0, [r7, #12]
 8001420:	f7fe fe96 	bl	8000150 <strlen>
 8001424:	4603      	mov	r3, r0
 8001426:	b29a      	uxth	r2, r3
 8001428:	f04f 33ff 	mov.w	r3, #4294967295
 800142c:	68f9      	ldr	r1, [r7, #12]
 800142e:	4620      	mov	r0, r4
 8001430:	f005 f9b6 	bl	80067a0 <HAL_UART_Transmit>
			break;
 8001434:	e000      	b.n	8001438 <FSM_Brazo+0x160>
		default:
			break;
 8001436:	bf00      	nop
	}
	break;
 8001438:	e0a2      	b.n	8001580 <FSM_Brazo+0x2a8>

	case STATE_PARK:
		switch(event) {
 800143a:	78fb      	ldrb	r3, [r7, #3]
 800143c:	2b00      	cmp	r3, #0
 800143e:	d002      	beq.n	8001446 <FSM_Brazo+0x16e>
 8001440:	2b06      	cmp	r3, #6
 8001442:	d020      	beq.n	8001486 <FSM_Brazo+0x1ae>
			B->actual = STATE_MANUAL;
			char *msg = "ACTIVADO MODO MANUAL\r\n\n";
			HAL_UART_Transmit(huart, (uint8_t *) msg, strlen(msg), HAL_MAX_DELAY);
			break;
		default:
			break;
 8001444:	e032      	b.n	80014ac <FSM_Brazo+0x1d4>
			B->actual = STATE_ACTIVO;
 8001446:	687b      	ldr	r3, [r7, #4]
 8001448:	2201      	movs	r2, #1
 800144a:	701a      	strb	r2, [r3, #0]
			HAL_GPIO_TogglePin(GPIOC, GPIO_PIN_13);
 800144c:	f44f 5100 	mov.w	r1, #8192	@ 0x2000
 8001450:	484d      	ldr	r0, [pc, #308]	@ (8001588 <FSM_Brazo+0x2b0>)
 8001452:	f002 fb89 	bl	8003b68 <HAL_GPIO_TogglePin>
			nrf24_receive((uint8_t*) &rx_buffer, sizeof(rx_data));
 8001456:	2124      	movs	r1, #36	@ 0x24
 8001458:	484c      	ldr	r0, [pc, #304]	@ (800158c <FSM_Brazo+0x2b4>)
 800145a:	f006 fb7b 	bl	8007b54 <nrf24_receive>
			B->last_rf_comm = rx_buffer;
 800145e:	687b      	ldr	r3, [r7, #4]
 8001460:	4a4a      	ldr	r2, [pc, #296]	@ (800158c <FSM_Brazo+0x2b4>)
 8001462:	f103 040c 	add.w	r4, r3, #12
 8001466:	4615      	mov	r5, r2
 8001468:	cd0f      	ldmia	r5!, {r0, r1, r2, r3}
 800146a:	c40f      	stmia	r4!, {r0, r1, r2, r3}
 800146c:	cd0f      	ldmia	r5!, {r0, r1, r2, r3}
 800146e:	c40f      	stmia	r4!, {r0, r1, r2, r3}
 8001470:	682b      	ldr	r3, [r5, #0]
 8001472:	6023      	str	r3, [r4, #0]
			processComm(B);
 8001474:	6878      	ldr	r0, [r7, #4]
 8001476:	f000 f8f7 	bl	8001668 <processComm>
			UpdateBrazo(B->pos);
 800147a:	687b      	ldr	r3, [r7, #4]
 800147c:	3301      	adds	r3, #1
 800147e:	4618      	mov	r0, r3
 8001480:	f7ff fe4e 	bl	8001120 <UpdateBrazo>
			break;
 8001484:	e012      	b.n	80014ac <FSM_Brazo+0x1d4>
			B->actual = STATE_MANUAL;
 8001486:	687b      	ldr	r3, [r7, #4]
 8001488:	2204      	movs	r2, #4
 800148a:	701a      	strb	r2, [r3, #0]
			char *msg = "ACTIVADO MODO MANUAL\r\n\n";
 800148c:	4b40      	ldr	r3, [pc, #256]	@ (8001590 <FSM_Brazo+0x2b8>)
 800148e:	613b      	str	r3, [r7, #16]
			HAL_UART_Transmit(huart, (uint8_t *) msg, strlen(msg), HAL_MAX_DELAY);
 8001490:	4b40      	ldr	r3, [pc, #256]	@ (8001594 <FSM_Brazo+0x2bc>)
 8001492:	681c      	ldr	r4, [r3, #0]
 8001494:	6938      	ldr	r0, [r7, #16]
 8001496:	f7fe fe5b 	bl	8000150 <strlen>
 800149a:	4603      	mov	r3, r0
 800149c:	b29a      	uxth	r2, r3
 800149e:	f04f 33ff 	mov.w	r3, #4294967295
 80014a2:	6939      	ldr	r1, [r7, #16]
 80014a4:	4620      	mov	r0, r4
 80014a6:	f005 f97b 	bl	80067a0 <HAL_UART_Transmit>
			break;
 80014aa:	bf00      	nop
		}
		break;
 80014ac:	e068      	b.n	8001580 <FSM_Brazo+0x2a8>

	case STATE_MANUAL:
		switch(event){
 80014ae:	78fb      	ldrb	r3, [r7, #3]
 80014b0:	2b09      	cmp	r3, #9
 80014b2:	d02c      	beq.n	800150e <FSM_Brazo+0x236>
 80014b4:	2b09      	cmp	r3, #9
 80014b6:	dc60      	bgt.n	800157a <FSM_Brazo+0x2a2>
 80014b8:	2b07      	cmp	r3, #7
 80014ba:	d04f      	beq.n	800155c <FSM_Brazo+0x284>
 80014bc:	2b08      	cmp	r3, #8
 80014be:	d15c      	bne.n	800157a <FSM_Brazo+0x2a2>
		case EVENT_MAS:
			Brazo_increaseAngle(B->pos);
 80014c0:	687b      	ldr	r3, [r7, #4]
 80014c2:	3301      	adds	r3, #1
 80014c4:	4618      	mov	r0, r3
 80014c6:	f7ff feaf 	bl	8001228 <Brazo_increaseAngle>
			selected_servo = Brazo_getSelectedServo();
 80014ca:	f7ff fea3 	bl	8001214 <Brazo_getSelectedServo>
 80014ce:	4603      	mov	r3, r0
 80014d0:	461a      	mov	r2, r3
 80014d2:	4b34      	ldr	r3, [pc, #208]	@ (80015a4 <FSM_Brazo+0x2cc>)
 80014d4:	701a      	strb	r2, [r3, #0]
			sprintf(txt, "Posicion actual del servo %d: %d\r\n", selected_servo, B->pos[selected_servo]);
 80014d6:	4b33      	ldr	r3, [pc, #204]	@ (80015a4 <FSM_Brazo+0x2cc>)
 80014d8:	781b      	ldrb	r3, [r3, #0]
 80014da:	4619      	mov	r1, r3
 80014dc:	4b31      	ldr	r3, [pc, #196]	@ (80015a4 <FSM_Brazo+0x2cc>)
 80014de:	781b      	ldrb	r3, [r3, #0]
 80014e0:	461a      	mov	r2, r3
 80014e2:	687b      	ldr	r3, [r7, #4]
 80014e4:	4413      	add	r3, r2
 80014e6:	785b      	ldrb	r3, [r3, #1]
 80014e8:	460a      	mov	r2, r1
 80014ea:	492f      	ldr	r1, [pc, #188]	@ (80015a8 <FSM_Brazo+0x2d0>)
 80014ec:	482f      	ldr	r0, [pc, #188]	@ (80015ac <FSM_Brazo+0x2d4>)
 80014ee:	f006 fb7f 	bl	8007bf0 <siprintf>
			HAL_UART_Transmit(huart, (uint8_t *) txt, strlen(txt), HAL_MAX_DELAY);
 80014f2:	4b28      	ldr	r3, [pc, #160]	@ (8001594 <FSM_Brazo+0x2bc>)
 80014f4:	681c      	ldr	r4, [r3, #0]
 80014f6:	482d      	ldr	r0, [pc, #180]	@ (80015ac <FSM_Brazo+0x2d4>)
 80014f8:	f7fe fe2a 	bl	8000150 <strlen>
 80014fc:	4603      	mov	r3, r0
 80014fe:	b29a      	uxth	r2, r3
 8001500:	f04f 33ff 	mov.w	r3, #4294967295
 8001504:	4929      	ldr	r1, [pc, #164]	@ (80015ac <FSM_Brazo+0x2d4>)
 8001506:	4620      	mov	r0, r4
 8001508:	f005 f94a 	bl	80067a0 <HAL_UART_Transmit>
			break;
 800150c:	e036      	b.n	800157c <FSM_Brazo+0x2a4>
		case EVENT_MENOS:
			Brazo_decreaseAngle(B->pos);
 800150e:	687b      	ldr	r3, [r7, #4]
 8001510:	3301      	adds	r3, #1
 8001512:	4618      	mov	r0, r3
 8001514:	f7ff feb4 	bl	8001280 <Brazo_decreaseAngle>
			selected_servo = Brazo_getSelectedServo();
 8001518:	f7ff fe7c 	bl	8001214 <Brazo_getSelectedServo>
 800151c:	4603      	mov	r3, r0
 800151e:	461a      	mov	r2, r3
 8001520:	4b20      	ldr	r3, [pc, #128]	@ (80015a4 <FSM_Brazo+0x2cc>)
 8001522:	701a      	strb	r2, [r3, #0]
			sprintf(txt, "Posicion actual del servo %d: %d\r\n", selected_servo, B->pos[selected_servo]);
 8001524:	4b1f      	ldr	r3, [pc, #124]	@ (80015a4 <FSM_Brazo+0x2cc>)
 8001526:	781b      	ldrb	r3, [r3, #0]
 8001528:	4619      	mov	r1, r3
 800152a:	4b1e      	ldr	r3, [pc, #120]	@ (80015a4 <FSM_Brazo+0x2cc>)
 800152c:	781b      	ldrb	r3, [r3, #0]
 800152e:	461a      	mov	r2, r3
 8001530:	687b      	ldr	r3, [r7, #4]
 8001532:	4413      	add	r3, r2
 8001534:	785b      	ldrb	r3, [r3, #1]
 8001536:	460a      	mov	r2, r1
 8001538:	491b      	ldr	r1, [pc, #108]	@ (80015a8 <FSM_Brazo+0x2d0>)
 800153a:	481c      	ldr	r0, [pc, #112]	@ (80015ac <FSM_Brazo+0x2d4>)
 800153c:	f006 fb58 	bl	8007bf0 <siprintf>
			HAL_UART_Transmit(huart, (uint8_t *) txt, strlen(txt), HAL_MAX_DELAY);
 8001540:	4b14      	ldr	r3, [pc, #80]	@ (8001594 <FSM_Brazo+0x2bc>)
 8001542:	681c      	ldr	r4, [r3, #0]
 8001544:	4819      	ldr	r0, [pc, #100]	@ (80015ac <FSM_Brazo+0x2d4>)
 8001546:	f7fe fe03 	bl	8000150 <strlen>
 800154a:	4603      	mov	r3, r0
 800154c:	b29a      	uxth	r2, r3
 800154e:	f04f 33ff 	mov.w	r3, #4294967295
 8001552:	4916      	ldr	r1, [pc, #88]	@ (80015ac <FSM_Brazo+0x2d4>)
 8001554:	4620      	mov	r0, r4
 8001556:	f005 f923 	bl	80067a0 <HAL_UART_Transmit>
			break;
 800155a:	e00f      	b.n	800157c <FSM_Brazo+0x2a4>
		case EVENT_AUTO:
			char *msgAuto = "CAMBIANDO A MODO AUTOMATICO\r\n\n";
 800155c:	4b14      	ldr	r3, [pc, #80]	@ (80015b0 <FSM_Brazo+0x2d8>)
 800155e:	617b      	str	r3, [r7, #20]
			HAL_UART_Transmit(huart, (uint8_t *) msgAuto, strlen(msgAuto), HAL_MAX_DELAY);
 8001560:	4b0c      	ldr	r3, [pc, #48]	@ (8001594 <FSM_Brazo+0x2bc>)
 8001562:	681c      	ldr	r4, [r3, #0]
 8001564:	6978      	ldr	r0, [r7, #20]
 8001566:	f7fe fdf3 	bl	8000150 <strlen>
 800156a:	4603      	mov	r3, r0
 800156c:	b29a      	uxth	r2, r3
 800156e:	f04f 33ff 	mov.w	r3, #4294967295
 8001572:	6979      	ldr	r1, [r7, #20]
 8001574:	4620      	mov	r0, r4
 8001576:	f005 f913 	bl	80067a0 <HAL_UART_Transmit>
		default:
			break;
 800157a:	bf00      	nop
		}
		break;
 800157c:	e000      	b.n	8001580 <FSM_Brazo+0x2a8>

	default:
		break;
 800157e:	bf00      	nop
	}
}
 8001580:	bf00      	nop
 8001582:	3718      	adds	r7, #24
 8001584:	46bd      	mov	sp, r7
 8001586:	bdb0      	pop	{r4, r5, r7, pc}
 8001588:	40011000 	.word	0x40011000
 800158c:	20000084 	.word	0x20000084
 8001590:	08008aec 	.word	0x08008aec
 8001594:	200000e0 	.word	0x200000e0
 8001598:	080091e0 	.word	0x080091e0
 800159c:	08008b04 	.word	0x08008b04
 80015a0:	08008b18 	.word	0x08008b18
 80015a4:	200000e4 	.word	0x200000e4
 80015a8:	08008b30 	.word	0x08008b30
 80015ac:	200000a8 	.word	0x200000a8
 80015b0:	08008b54 	.word	0x08008b54

080015b4 <FSM_Brazo_init>:

/* Initialize FSM */
void FSM_Brazo_init(Brazo *B, UART_HandleTypeDef *huartf) {
 80015b4:	b480      	push	{r7}
 80015b6:	b083      	sub	sp, #12
 80015b8:	af00      	add	r7, sp, #0
 80015ba:	6078      	str	r0, [r7, #4]
 80015bc:	6039      	str	r1, [r7, #0]
	B->actual = STATE_INICIO;
 80015be:	687b      	ldr	r3, [r7, #4]
 80015c0:	2200      	movs	r2, #0
 80015c2:	701a      	strb	r2, [r3, #0]
	huart = huartf;
 80015c4:	4a03      	ldr	r2, [pc, #12]	@ (80015d4 <FSM_Brazo_init+0x20>)
 80015c6:	683b      	ldr	r3, [r7, #0]
 80015c8:	6013      	str	r3, [r2, #0]
}
 80015ca:	bf00      	nop
 80015cc:	370c      	adds	r7, #12
 80015ce:	46bd      	mov	sp, r7
 80015d0:	bc80      	pop	{r7}
 80015d2:	4770      	bx	lr
 80015d4:	200000e0 	.word	0x200000e0

080015d8 <clampf>:
#define GYRO_SENS_250   131.0f      // LSB/(°/s) para ±250°/s
#define ALPHA           0.98f       // filtro complementario
#define POTE_0			0			// límite inferior potenciómetro codo
#define POTE_180		255			// límite superior potenciómetro codo

static float clampf(float v, float min, float max){
 80015d8:	b580      	push	{r7, lr}
 80015da:	b084      	sub	sp, #16
 80015dc:	af00      	add	r7, sp, #0
 80015de:	60f8      	str	r0, [r7, #12]
 80015e0:	60b9      	str	r1, [r7, #8]
 80015e2:	607a      	str	r2, [r7, #4]
    if (v < min) return min;
 80015e4:	68b9      	ldr	r1, [r7, #8]
 80015e6:	68f8      	ldr	r0, [r7, #12]
 80015e8:	f7ff fd2c 	bl	8001044 <__aeabi_fcmplt>
 80015ec:	4603      	mov	r3, r0
 80015ee:	2b00      	cmp	r3, #0
 80015f0:	d001      	beq.n	80015f6 <clampf+0x1e>
 80015f2:	68bb      	ldr	r3, [r7, #8]
 80015f4:	e009      	b.n	800160a <clampf+0x32>
    if (v > max) return max;
 80015f6:	6879      	ldr	r1, [r7, #4]
 80015f8:	68f8      	ldr	r0, [r7, #12]
 80015fa:	f7ff fd41 	bl	8001080 <__aeabi_fcmpgt>
 80015fe:	4603      	mov	r3, r0
 8001600:	2b00      	cmp	r3, #0
 8001602:	d001      	beq.n	8001608 <clampf+0x30>
 8001604:	687b      	ldr	r3, [r7, #4]
 8001606:	e000      	b.n	800160a <clampf+0x32>
    return v;
 8001608:	68fb      	ldr	r3, [r7, #12]
}
 800160a:	4618      	mov	r0, r3
 800160c:	3710      	adds	r7, #16
 800160e:	46bd      	mov	sp, r7
 8001610:	bd80      	pop	{r7, pc}

08001612 <mapf>:

static float mapf(float x, float in_min, float in_max, float out_min, float out_max){
 8001612:	b590      	push	{r4, r7, lr}
 8001614:	b085      	sub	sp, #20
 8001616:	af00      	add	r7, sp, #0
 8001618:	60f8      	str	r0, [r7, #12]
 800161a:	60b9      	str	r1, [r7, #8]
 800161c:	607a      	str	r2, [r7, #4]
 800161e:	603b      	str	r3, [r7, #0]
    return (x - in_min) * (out_max - out_min) / (in_max - in_min) + out_min;
 8001620:	68b9      	ldr	r1, [r7, #8]
 8001622:	68f8      	ldr	r0, [r7, #12]
 8001624:	f7ff fa66 	bl	8000af4 <__aeabi_fsub>
 8001628:	4603      	mov	r3, r0
 800162a:	461c      	mov	r4, r3
 800162c:	6839      	ldr	r1, [r7, #0]
 800162e:	6a38      	ldr	r0, [r7, #32]
 8001630:	f7ff fa60 	bl	8000af4 <__aeabi_fsub>
 8001634:	4603      	mov	r3, r0
 8001636:	4619      	mov	r1, r3
 8001638:	4620      	mov	r0, r4
 800163a:	f7ff fb65 	bl	8000d08 <__aeabi_fmul>
 800163e:	4603      	mov	r3, r0
 8001640:	461c      	mov	r4, r3
 8001642:	68b9      	ldr	r1, [r7, #8]
 8001644:	6878      	ldr	r0, [r7, #4]
 8001646:	f7ff fa55 	bl	8000af4 <__aeabi_fsub>
 800164a:	4603      	mov	r3, r0
 800164c:	4619      	mov	r1, r3
 800164e:	4620      	mov	r0, r4
 8001650:	f7ff fc0e 	bl	8000e70 <__aeabi_fdiv>
 8001654:	4603      	mov	r3, r0
 8001656:	6839      	ldr	r1, [r7, #0]
 8001658:	4618      	mov	r0, r3
 800165a:	f7ff fa4d 	bl	8000af8 <__addsf3>
 800165e:	4603      	mov	r3, r0
}
 8001660:	4618      	mov	r0, r3
 8001662:	3714      	adds	r7, #20
 8001664:	46bd      	mov	sp, r7
 8001666:	bd90      	pop	{r4, r7, pc}

08001668 <processComm>:

static void processComm(Brazo *B)
{
 8001668:	b5b0      	push	{r4, r5, r7, lr}
 800166a:	b08e      	sub	sp, #56	@ 0x38
 800166c:	af02      	add	r7, sp, #8
 800166e:	6078      	str	r0, [r7, #4]
    static float roll_f[2]  = {0.0f, 0.0f};
    static float pitch_f[2] = {0.0f, 0.0f};

    if(!last_ms){
 8001670:	4b0f      	ldr	r3, [pc, #60]	@ (80016b0 <processComm+0x48>)
 8001672:	681b      	ldr	r3, [r3, #0]
 8001674:	2b00      	cmp	r3, #0
 8001676:	d104      	bne.n	8001682 <processComm+0x1a>
        last_ms = B->last_rf_comm.timeStamp;
 8001678:	687b      	ldr	r3, [r7, #4]
 800167a:	6a9b      	ldr	r3, [r3, #40]	@ 0x28
 800167c:	4a0c      	ldr	r2, [pc, #48]	@ (80016b0 <processComm+0x48>)
 800167e:	6013      	str	r3, [r2, #0]
    	return;
 8001680:	e164      	b.n	800194c <processComm+0x2e4>
    }

    float dt = ((B->last_rf_comm.timeStamp - last_ms) / 1000.0f);
 8001682:	687b      	ldr	r3, [r7, #4]
 8001684:	6a9a      	ldr	r2, [r3, #40]	@ 0x28
 8001686:	4b0a      	ldr	r3, [pc, #40]	@ (80016b0 <processComm+0x48>)
 8001688:	681b      	ldr	r3, [r3, #0]
 800168a:	1ad3      	subs	r3, r2, r3
 800168c:	4618      	mov	r0, r3
 800168e:	f7ff fae3 	bl	8000c58 <__aeabi_ui2f>
 8001692:	4603      	mov	r3, r0
 8001694:	4907      	ldr	r1, [pc, #28]	@ (80016b4 <processComm+0x4c>)
 8001696:	4618      	mov	r0, r3
 8001698:	f7ff fbea 	bl	8000e70 <__aeabi_fdiv>
 800169c:	4603      	mov	r3, r0
 800169e:	62bb      	str	r3, [r7, #40]	@ 0x28
    last_ms = B->last_rf_comm.timeStamp;
 80016a0:	687b      	ldr	r3, [r7, #4]
 80016a2:	6a9b      	ldr	r3, [r3, #40]	@ 0x28
 80016a4:	4a02      	ldr	r2, [pc, #8]	@ (80016b0 <processComm+0x48>)
 80016a6:	6013      	str	r3, [r2, #0]

    for (int s = 0; s < 2; s++)
 80016a8:	2300      	movs	r3, #0
 80016aa:	62fb      	str	r3, [r7, #44]	@ 0x2c
 80016ac:	e0ca      	b.n	8001844 <processComm+0x1dc>
 80016ae:	bf00      	nop
 80016b0:	200000dc 	.word	0x200000dc
 80016b4:	447a0000 	.word	0x447a0000
    {
        float ax = (float)B->last_rf_comm.acelerometros[s][0];
 80016b8:	6879      	ldr	r1, [r7, #4]
 80016ba:	6afa      	ldr	r2, [r7, #44]	@ 0x2c
 80016bc:	4613      	mov	r3, r2
 80016be:	005b      	lsls	r3, r3, #1
 80016c0:	4413      	add	r3, r2
 80016c2:	005b      	lsls	r3, r3, #1
 80016c4:	440b      	add	r3, r1
 80016c6:	330c      	adds	r3, #12
 80016c8:	881b      	ldrh	r3, [r3, #0]
 80016ca:	4618      	mov	r0, r3
 80016cc:	f7ff fac4 	bl	8000c58 <__aeabi_ui2f>
 80016d0:	4603      	mov	r3, r0
 80016d2:	627b      	str	r3, [r7, #36]	@ 0x24
        float ay = (float)B->last_rf_comm.acelerometros[s][1];
 80016d4:	6879      	ldr	r1, [r7, #4]
 80016d6:	6afa      	ldr	r2, [r7, #44]	@ 0x2c
 80016d8:	4613      	mov	r3, r2
 80016da:	005b      	lsls	r3, r3, #1
 80016dc:	4413      	add	r3, r2
 80016de:	005b      	lsls	r3, r3, #1
 80016e0:	440b      	add	r3, r1
 80016e2:	330e      	adds	r3, #14
 80016e4:	881b      	ldrh	r3, [r3, #0]
 80016e6:	4618      	mov	r0, r3
 80016e8:	f7ff fab6 	bl	8000c58 <__aeabi_ui2f>
 80016ec:	4603      	mov	r3, r0
 80016ee:	623b      	str	r3, [r7, #32]
        float az = (float)B->last_rf_comm.acelerometros[s][2];
 80016f0:	6879      	ldr	r1, [r7, #4]
 80016f2:	6afa      	ldr	r2, [r7, #44]	@ 0x2c
 80016f4:	4613      	mov	r3, r2
 80016f6:	005b      	lsls	r3, r3, #1
 80016f8:	4413      	add	r3, r2
 80016fa:	005b      	lsls	r3, r3, #1
 80016fc:	440b      	add	r3, r1
 80016fe:	3310      	adds	r3, #16
 8001700:	881b      	ldrh	r3, [r3, #0]
 8001702:	4618      	mov	r0, r3
 8001704:	f7ff faa8 	bl	8000c58 <__aeabi_ui2f>
 8001708:	4603      	mov	r3, r0
 800170a:	61fb      	str	r3, [r7, #28]

        float gx = (float)B->last_rf_comm.giroscopios[s][0] / GYRO_SENS_250;
 800170c:	6879      	ldr	r1, [r7, #4]
 800170e:	6afa      	ldr	r2, [r7, #44]	@ 0x2c
 8001710:	4613      	mov	r3, r2
 8001712:	005b      	lsls	r3, r3, #1
 8001714:	4413      	add	r3, r2
 8001716:	005b      	lsls	r3, r3, #1
 8001718:	440b      	add	r3, r1
 800171a:	3318      	adds	r3, #24
 800171c:	881b      	ldrh	r3, [r3, #0]
 800171e:	4618      	mov	r0, r3
 8001720:	f7ff fa9a 	bl	8000c58 <__aeabi_ui2f>
 8001724:	4603      	mov	r3, r0
 8001726:	498b      	ldr	r1, [pc, #556]	@ (8001954 <processComm+0x2ec>)
 8001728:	4618      	mov	r0, r3
 800172a:	f7ff fba1 	bl	8000e70 <__aeabi_fdiv>
 800172e:	4603      	mov	r3, r0
 8001730:	61bb      	str	r3, [r7, #24]
        float gy = (float)B->last_rf_comm.giroscopios[s][1] / GYRO_SENS_250;
 8001732:	6879      	ldr	r1, [r7, #4]
 8001734:	6afa      	ldr	r2, [r7, #44]	@ 0x2c
 8001736:	4613      	mov	r3, r2
 8001738:	005b      	lsls	r3, r3, #1
 800173a:	4413      	add	r3, r2
 800173c:	005b      	lsls	r3, r3, #1
 800173e:	440b      	add	r3, r1
 8001740:	331a      	adds	r3, #26
 8001742:	881b      	ldrh	r3, [r3, #0]
 8001744:	4618      	mov	r0, r3
 8001746:	f7ff fa87 	bl	8000c58 <__aeabi_ui2f>
 800174a:	4603      	mov	r3, r0
 800174c:	4981      	ldr	r1, [pc, #516]	@ (8001954 <processComm+0x2ec>)
 800174e:	4618      	mov	r0, r3
 8001750:	f7ff fb8e 	bl	8000e70 <__aeabi_fdiv>
 8001754:	4603      	mov	r3, r0
 8001756:	617b      	str	r3, [r7, #20]

        float roll_acc  = atan2f(ay, az) * RAD_TO_DEG;
 8001758:	69f9      	ldr	r1, [r7, #28]
 800175a:	6a38      	ldr	r0, [r7, #32]
 800175c:	f006 ff00 	bl	8008560 <atan2f>
 8001760:	4603      	mov	r3, r0
 8001762:	497d      	ldr	r1, [pc, #500]	@ (8001958 <processComm+0x2f0>)
 8001764:	4618      	mov	r0, r3
 8001766:	f7ff facf 	bl	8000d08 <__aeabi_fmul>
 800176a:	4603      	mov	r3, r0
 800176c:	613b      	str	r3, [r7, #16]
        float pitch_acc = atan2f(-ax, sqrtf(ay * ay + az * az)) * RAD_TO_DEG;
 800176e:	6a7b      	ldr	r3, [r7, #36]	@ 0x24
 8001770:	f083 4400 	eor.w	r4, r3, #2147483648	@ 0x80000000
 8001774:	6a39      	ldr	r1, [r7, #32]
 8001776:	6a38      	ldr	r0, [r7, #32]
 8001778:	f7ff fac6 	bl	8000d08 <__aeabi_fmul>
 800177c:	4603      	mov	r3, r0
 800177e:	461d      	mov	r5, r3
 8001780:	69f9      	ldr	r1, [r7, #28]
 8001782:	69f8      	ldr	r0, [r7, #28]
 8001784:	f7ff fac0 	bl	8000d08 <__aeabi_fmul>
 8001788:	4603      	mov	r3, r0
 800178a:	4619      	mov	r1, r3
 800178c:	4628      	mov	r0, r5
 800178e:	f7ff f9b3 	bl	8000af8 <__addsf3>
 8001792:	4603      	mov	r3, r0
 8001794:	4618      	mov	r0, r3
 8001796:	f006 fee5 	bl	8008564 <sqrtf>
 800179a:	4603      	mov	r3, r0
 800179c:	4619      	mov	r1, r3
 800179e:	4620      	mov	r0, r4
 80017a0:	f006 fede 	bl	8008560 <atan2f>
 80017a4:	4603      	mov	r3, r0
 80017a6:	496c      	ldr	r1, [pc, #432]	@ (8001958 <processComm+0x2f0>)
 80017a8:	4618      	mov	r0, r3
 80017aa:	f7ff faad 	bl	8000d08 <__aeabi_fmul>
 80017ae:	4603      	mov	r3, r0
 80017b0:	60fb      	str	r3, [r7, #12]

        roll_f[s]  = ALPHA * (roll_f[s]  + gx * dt) + (1.0f - ALPHA) * roll_acc;
 80017b2:	4a6a      	ldr	r2, [pc, #424]	@ (800195c <processComm+0x2f4>)
 80017b4:	6afb      	ldr	r3, [r7, #44]	@ 0x2c
 80017b6:	f852 4023 	ldr.w	r4, [r2, r3, lsl #2]
 80017ba:	6ab9      	ldr	r1, [r7, #40]	@ 0x28
 80017bc:	69b8      	ldr	r0, [r7, #24]
 80017be:	f7ff faa3 	bl	8000d08 <__aeabi_fmul>
 80017c2:	4603      	mov	r3, r0
 80017c4:	4619      	mov	r1, r3
 80017c6:	4620      	mov	r0, r4
 80017c8:	f7ff f996 	bl	8000af8 <__addsf3>
 80017cc:	4603      	mov	r3, r0
 80017ce:	4964      	ldr	r1, [pc, #400]	@ (8001960 <processComm+0x2f8>)
 80017d0:	4618      	mov	r0, r3
 80017d2:	f7ff fa99 	bl	8000d08 <__aeabi_fmul>
 80017d6:	4603      	mov	r3, r0
 80017d8:	461c      	mov	r4, r3
 80017da:	4962      	ldr	r1, [pc, #392]	@ (8001964 <processComm+0x2fc>)
 80017dc:	6938      	ldr	r0, [r7, #16]
 80017de:	f7ff fa93 	bl	8000d08 <__aeabi_fmul>
 80017e2:	4603      	mov	r3, r0
 80017e4:	4619      	mov	r1, r3
 80017e6:	4620      	mov	r0, r4
 80017e8:	f7ff f986 	bl	8000af8 <__addsf3>
 80017ec:	4603      	mov	r3, r0
 80017ee:	4619      	mov	r1, r3
 80017f0:	4a5a      	ldr	r2, [pc, #360]	@ (800195c <processComm+0x2f4>)
 80017f2:	6afb      	ldr	r3, [r7, #44]	@ 0x2c
 80017f4:	f842 1023 	str.w	r1, [r2, r3, lsl #2]
        pitch_f[s] = ALPHA * (pitch_f[s] + gy * dt) + (1.0f - ALPHA) * pitch_acc;
 80017f8:	4a5b      	ldr	r2, [pc, #364]	@ (8001968 <processComm+0x300>)
 80017fa:	6afb      	ldr	r3, [r7, #44]	@ 0x2c
 80017fc:	f852 4023 	ldr.w	r4, [r2, r3, lsl #2]
 8001800:	6ab9      	ldr	r1, [r7, #40]	@ 0x28
 8001802:	6978      	ldr	r0, [r7, #20]
 8001804:	f7ff fa80 	bl	8000d08 <__aeabi_fmul>
 8001808:	4603      	mov	r3, r0
 800180a:	4619      	mov	r1, r3
 800180c:	4620      	mov	r0, r4
 800180e:	f7ff f973 	bl	8000af8 <__addsf3>
 8001812:	4603      	mov	r3, r0
 8001814:	4952      	ldr	r1, [pc, #328]	@ (8001960 <processComm+0x2f8>)
 8001816:	4618      	mov	r0, r3
 8001818:	f7ff fa76 	bl	8000d08 <__aeabi_fmul>
 800181c:	4603      	mov	r3, r0
 800181e:	461c      	mov	r4, r3
 8001820:	4950      	ldr	r1, [pc, #320]	@ (8001964 <processComm+0x2fc>)
 8001822:	68f8      	ldr	r0, [r7, #12]
 8001824:	f7ff fa70 	bl	8000d08 <__aeabi_fmul>
 8001828:	4603      	mov	r3, r0
 800182a:	4619      	mov	r1, r3
 800182c:	4620      	mov	r0, r4
 800182e:	f7ff f963 	bl	8000af8 <__addsf3>
 8001832:	4603      	mov	r3, r0
 8001834:	4619      	mov	r1, r3
 8001836:	4a4c      	ldr	r2, [pc, #304]	@ (8001968 <processComm+0x300>)
 8001838:	6afb      	ldr	r3, [r7, #44]	@ 0x2c
 800183a:	f842 1023 	str.w	r1, [r2, r3, lsl #2]
    for (int s = 0; s < 2; s++)
 800183e:	6afb      	ldr	r3, [r7, #44]	@ 0x2c
 8001840:	3301      	adds	r3, #1
 8001842:	62fb      	str	r3, [r7, #44]	@ 0x2c
 8001844:	6afb      	ldr	r3, [r7, #44]	@ 0x2c
 8001846:	2b01      	cmp	r3, #1
 8001848:	f77f af36 	ble.w	80016b8 <processComm+0x50>
      OJO: estos rangos son de ejemplo.
      Hay que ajustarlos según el recorrido mecánico real de cada servo.
      Si pos[] no guarda grados sino PWM, cambia esta parte.
    */

    B->pos[0] = (uint8_t)clampf(mapf(roll_f[0],  -45.0f,  45.0f,   0.0f, 180.0f), 0.0f, 180.0f);  // hombro: abducción
 800184c:	4b43      	ldr	r3, [pc, #268]	@ (800195c <processComm+0x2f4>)
 800184e:	6818      	ldr	r0, [r3, #0]
 8001850:	4b46      	ldr	r3, [pc, #280]	@ (800196c <processComm+0x304>)
 8001852:	9300      	str	r3, [sp, #0]
 8001854:	f04f 0300 	mov.w	r3, #0
 8001858:	4a45      	ldr	r2, [pc, #276]	@ (8001970 <processComm+0x308>)
 800185a:	4946      	ldr	r1, [pc, #280]	@ (8001974 <processComm+0x30c>)
 800185c:	f7ff fed9 	bl	8001612 <mapf>
 8001860:	4603      	mov	r3, r0
 8001862:	4a42      	ldr	r2, [pc, #264]	@ (800196c <processComm+0x304>)
 8001864:	f04f 0100 	mov.w	r1, #0
 8001868:	4618      	mov	r0, r3
 800186a:	f7ff feb5 	bl	80015d8 <clampf>
 800186e:	4603      	mov	r3, r0
 8001870:	4618      	mov	r0, r3
 8001872:	f7ff fc25 	bl	80010c0 <__aeabi_f2uiz>
 8001876:	4603      	mov	r3, r0
 8001878:	b2da      	uxtb	r2, r3
 800187a:	687b      	ldr	r3, [r7, #4]
 800187c:	705a      	strb	r2, [r3, #1]
    B->pos[1] = (uint8_t)clampf(mapf(pitch_f[0], -45.0f,  45.0f,   0.0f, 180.0f), 0.0f, 180.0f);  // hombro: flex/ext
 800187e:	4b3a      	ldr	r3, [pc, #232]	@ (8001968 <processComm+0x300>)
 8001880:	6818      	ldr	r0, [r3, #0]
 8001882:	4b3a      	ldr	r3, [pc, #232]	@ (800196c <processComm+0x304>)
 8001884:	9300      	str	r3, [sp, #0]
 8001886:	f04f 0300 	mov.w	r3, #0
 800188a:	4a39      	ldr	r2, [pc, #228]	@ (8001970 <processComm+0x308>)
 800188c:	4939      	ldr	r1, [pc, #228]	@ (8001974 <processComm+0x30c>)
 800188e:	f7ff fec0 	bl	8001612 <mapf>
 8001892:	4603      	mov	r3, r0
 8001894:	4a35      	ldr	r2, [pc, #212]	@ (800196c <processComm+0x304>)
 8001896:	f04f 0100 	mov.w	r1, #0
 800189a:	4618      	mov	r0, r3
 800189c:	f7ff fe9c 	bl	80015d8 <clampf>
 80018a0:	4603      	mov	r3, r0
 80018a2:	4618      	mov	r0, r3
 80018a4:	f7ff fc0c 	bl	80010c0 <__aeabi_f2uiz>
 80018a8:	4603      	mov	r3, r0
 80018aa:	b2da      	uxtb	r2, r3
 80018ac:	687b      	ldr	r3, [r7, #4]
 80018ae:	709a      	strb	r2, [r3, #2]
    B->pos[4] = (uint8_t)clampf(mapf(roll_f[1],  -90.0f,  90.0f,   0.0f, 180.0f), 0.0f, 180.0f);  // muñeca: giro
 80018b0:	4b2a      	ldr	r3, [pc, #168]	@ (800195c <processComm+0x2f4>)
 80018b2:	6858      	ldr	r0, [r3, #4]
 80018b4:	4b2d      	ldr	r3, [pc, #180]	@ (800196c <processComm+0x304>)
 80018b6:	9300      	str	r3, [sp, #0]
 80018b8:	f04f 0300 	mov.w	r3, #0
 80018bc:	4a2e      	ldr	r2, [pc, #184]	@ (8001978 <processComm+0x310>)
 80018be:	492f      	ldr	r1, [pc, #188]	@ (800197c <processComm+0x314>)
 80018c0:	f7ff fea7 	bl	8001612 <mapf>
 80018c4:	4603      	mov	r3, r0
 80018c6:	4a29      	ldr	r2, [pc, #164]	@ (800196c <processComm+0x304>)
 80018c8:	f04f 0100 	mov.w	r1, #0
 80018cc:	4618      	mov	r0, r3
 80018ce:	f7ff fe83 	bl	80015d8 <clampf>
 80018d2:	4603      	mov	r3, r0
 80018d4:	4618      	mov	r0, r3
 80018d6:	f7ff fbf3 	bl	80010c0 <__aeabi_f2uiz>
 80018da:	4603      	mov	r3, r0
 80018dc:	b2da      	uxtb	r2, r3
 80018de:	687b      	ldr	r3, [r7, #4]
 80018e0:	715a      	strb	r2, [r3, #5]
    B->pos[5] = (uint8_t)clampf(mapf(pitch_f[1], -90.0f,  90.0f,   0.0f, 180.0f), 0.0f, 180.0f);  // muñeca: flexión
 80018e2:	4b21      	ldr	r3, [pc, #132]	@ (8001968 <processComm+0x300>)
 80018e4:	6858      	ldr	r0, [r3, #4]
 80018e6:	4b21      	ldr	r3, [pc, #132]	@ (800196c <processComm+0x304>)
 80018e8:	9300      	str	r3, [sp, #0]
 80018ea:	f04f 0300 	mov.w	r3, #0
 80018ee:	4a22      	ldr	r2, [pc, #136]	@ (8001978 <processComm+0x310>)
 80018f0:	4922      	ldr	r1, [pc, #136]	@ (800197c <processComm+0x314>)
 80018f2:	f7ff fe8e 	bl	8001612 <mapf>
 80018f6:	4603      	mov	r3, r0
 80018f8:	4a1c      	ldr	r2, [pc, #112]	@ (800196c <processComm+0x304>)
 80018fa:	f04f 0100 	mov.w	r1, #0
 80018fe:	4618      	mov	r0, r3
 8001900:	f7ff fe6a 	bl	80015d8 <clampf>
 8001904:	4603      	mov	r3, r0
 8001906:	4618      	mov	r0, r3
 8001908:	f7ff fbda 	bl	80010c0 <__aeabi_f2uiz>
 800190c:	4603      	mov	r3, r0
 800190e:	b2da      	uxtb	r2, r3
 8001910:	687b      	ldr	r3, [r7, #4]
 8001912:	719a      	strb	r2, [r3, #6]


    //codo
    B->pos[3] = B->last_rf_comm.pote;
 8001914:	687b      	ldr	r3, [r7, #4]
 8001916:	f893 2024 	ldrb.w	r2, [r3, #36]	@ 0x24
 800191a:	687b      	ldr	r3, [r7, #4]
 800191c:	711a      	strb	r2, [r3, #4]

    //pinza
    if(B->last_rf_comm.flag & FLAG_APRETAR_PINZA){
 800191e:	687b      	ldr	r3, [r7, #4]
 8001920:	f893 302e 	ldrb.w	r3, [r3, #46]	@ 0x2e
 8001924:	f003 0308 	and.w	r3, r3, #8
 8001928:	2b00      	cmp	r3, #0
 800192a:	d003      	beq.n	8001934 <processComm+0x2cc>
    	B->pos[6] = 180;
 800192c:	687b      	ldr	r3, [r7, #4]
 800192e:	22b4      	movs	r2, #180	@ 0xb4
 8001930:	71da      	strb	r2, [r3, #7]
 8001932:	e002      	b.n	800193a <processComm+0x2d2>
	} else{
		B->pos[6] = 0;
 8001934:	687b      	ldr	r3, [r7, #4]
 8001936:	2200      	movs	r2, #0
 8001938:	71da      	strb	r2, [r3, #7]
	}



    if (B->last_rf_comm.flag == FLAG_DORMIR) {
 800193a:	687b      	ldr	r3, [r7, #4]
 800193c:	f893 302e 	ldrb.w	r3, [r3, #46]	@ 0x2e
 8001940:	2b02      	cmp	r3, #2
 8001942:	d103      	bne.n	800194c <processComm+0x2e4>
		B->last_pr_comm.dormido = 1;
 8001944:	687b      	ldr	r3, [r7, #4]
 8001946:	2201      	movs	r2, #1
 8001948:	f883 2038 	strb.w	r2, [r3, #56]	@ 0x38

	 CalcularOrientacion(d, &out);

	 CalcularServos(d, &out);
	 */
}
 800194c:	3730      	adds	r7, #48	@ 0x30
 800194e:	46bd      	mov	sp, r7
 8001950:	bdb0      	pop	{r4, r5, r7, pc}
 8001952:	bf00      	nop
 8001954:	43030000 	.word	0x43030000
 8001958:	42652ee1 	.word	0x42652ee1
 800195c:	200000e8 	.word	0x200000e8
 8001960:	3f7ae148 	.word	0x3f7ae148
 8001964:	3ca3d700 	.word	0x3ca3d700
 8001968:	200000f0 	.word	0x200000f0
 800196c:	43340000 	.word	0x43340000
 8001970:	42340000 	.word	0x42340000
 8001974:	c2340000 	.word	0xc2340000
 8001978:	42b40000 	.word	0x42b40000
 800197c:	c2b40000 	.word	0xc2b40000

08001980 <main>:

/**
 * @brief  The application entry point.
 * @retval int
 */
int main(void) {
 8001980:	b580      	push	{r7, lr}
 8001982:	b08c      	sub	sp, #48	@ 0x30
 8001984:	af04      	add	r7, sp, #16
	/* USER CODE END 1 */

	/* MCU Configuration--------------------------------------------------------*/

	/* Reset of all peripherals, Initializes the Flash interface and the Systick. */
	HAL_Init();
 8001986:	f001 fafb 	bl	8002f80 <HAL_Init>
	/* USER CODE BEGIN Init */

	/* USER CODE END Init */

	/* Configure the system clock */
	SystemClock_Config();
 800198a:	f000 f9ab 	bl	8001ce4 <SystemClock_Config>
	/* USER CODE BEGIN SysInit */

	/* USER CODE END SysInit */

	/* Initialize all configured peripherals */
	MX_GPIO_Init();
 800198e:	f000 fb4f 	bl	8002030 <MX_GPIO_Init>
	MX_ADC1_Init();
 8001992:	f000 fa01 	bl	8001d98 <MX_ADC1_Init>
	MX_I2C1_Init();
 8001996:	f000 fa3d 	bl	8001e14 <MX_I2C1_Init>
	MX_I2C2_Init();
 800199a:	f000 fa69 	bl	8001e70 <MX_I2C2_Init>
	MX_SPI1_Init();
 800199e:	f000 fa95 	bl	8001ecc <MX_SPI1_Init>
	MX_TIM1_Init();
 80019a2:	f000 fac9 	bl	8001f38 <MX_TIM1_Init>
	MX_USART1_UART_Init();
 80019a6:	f000 fb19 	bl	8001fdc <MX_USART1_UART_Init>
	/* USER CODE BEGIN 2 */

//-------------------iniciar pantalla-----------------------
	ssd1306_Init();
 80019aa:	f000 fe8d 	bl	80026c8 <ssd1306_Init>
//-------------------iniciar pca9685------------------------
	PCA9685_Init(&hi2c1);
 80019ae:	48b5      	ldr	r0, [pc, #724]	@ (8001c84 <main+0x304>)
 80019b0:	f000 fe3c 	bl	800262c <PCA9685_Init>
	mensaje_ssd("iniciando PCA96", Font_6x8, 0, 0, 1);
 80019b4:	4bb4      	ldr	r3, [pc, #720]	@ (8001c88 <main+0x308>)
 80019b6:	2201      	movs	r2, #1
 80019b8:	9202      	str	r2, [sp, #8]
 80019ba:	2200      	movs	r2, #0
 80019bc:	9201      	str	r2, [sp, #4]
 80019be:	2200      	movs	r2, #0
 80019c0:	9200      	str	r2, [sp, #0]
 80019c2:	cb0e      	ldmia	r3, {r1, r2, r3}
 80019c4:	48b1      	ldr	r0, [pc, #708]	@ (8001c8c <main+0x30c>)
 80019c6:	f001 f87d 	bl	8002ac4 <mensaje_ssd>
	HAL_Delay(800);
 80019ca:	f44f 7048 	mov.w	r0, #800	@ 0x320
 80019ce:	f001 fb39 	bl	8003044 <HAL_Delay>
//-------------------FSM------------------------------------

	FSM_Brazo_init(&B, &huart1);
 80019d2:	49af      	ldr	r1, [pc, #700]	@ (8001c90 <main+0x310>)
 80019d4:	48af      	ldr	r0, [pc, #700]	@ (8001c94 <main+0x314>)
 80019d6:	f7ff fded 	bl	80015b4 <FSM_Brazo_init>

// INICIALIZAR NRF24 Hacer una funcion?? UN NRFinit()? tarea para jere? PutO?
	csn_high();
 80019da:	f005 fcfb 	bl	80073d4 <csn_high>
	HAL_Delay(5);
 80019de:	2005      	movs	r0, #5
 80019e0:	f001 fb30 	bl	8003044 <HAL_Delay>
	ce_low();
 80019e4:	f005 fd1a 	bl	800741c <ce_low>
	nrf24_init();
 80019e8:	f006 f8e8 	bl	8007bbc <nrf24_init>
	mensaje_ssd("inicio el NRF24", Font_6x8, 0, 0, 1);
 80019ec:	4ba6      	ldr	r3, [pc, #664]	@ (8001c88 <main+0x308>)
 80019ee:	2201      	movs	r2, #1
 80019f0:	9202      	str	r2, [sp, #8]
 80019f2:	2200      	movs	r2, #0
 80019f4:	9201      	str	r2, [sp, #4]
 80019f6:	2200      	movs	r2, #0
 80019f8:	9200      	str	r2, [sp, #0]
 80019fa:	cb0e      	ldmia	r3, {r1, r2, r3}
 80019fc:	48a6      	ldr	r0, [pc, #664]	@ (8001c98 <main+0x318>)
 80019fe:	f001 f861 	bl	8002ac4 <mensaje_ssd>
	HAL_Delay(800);
 8001a02:	f44f 7048 	mov.w	r0, #800	@ 0x320
 8001a06:	f001 fb1d 	bl	8003044 <HAL_Delay>
	nrf24_auto_ack_all(auto_ack);
 8001a0a:	2001      	movs	r0, #1
 8001a0c:	f005 fff6 	bl	80079fc <nrf24_auto_ack_all>
	nrf24_en_ack_pld(disable);
 8001a10:	2000      	movs	r0, #0
 8001a12:	f006 f811 	bl	8007a38 <nrf24_en_ack_pld>
	nrf24_en_dyn_ack(disable);
 8001a16:	2000      	movs	r0, #0
 8001a18:	f006 f832 	bl	8007a80 <nrf24_en_dyn_ack>
	nrf24_dpl(disable);
 8001a1c:	2000      	movs	r0, #0
 8001a1e:	f005 ff8f 	bl	8007940 <nrf24_dpl>
	nrf24_set_crc(en_crc, _1byte);
 8001a22:	2100      	movs	r1, #0
 8001a24:	2001      	movs	r0, #1
 8001a26:	f005 feb3 	bl	8007790 <nrf24_set_crc>
	nrf24_tx_pwr(n18dbm);
 8001a2a:	2000      	movs	r0, #0
 8001a2c:	f005 fd82 	bl	8007534 <nrf24_tx_pwr>
	nrf24_data_rate(_250kbps);
 8001a30:	2002      	movs	r0, #2
 8001a32:	f005 fda6 	bl	8007582 <nrf24_data_rate>
	nrf24_set_channel(100);
 8001a36:	2064      	movs	r0, #100	@ 0x64
 8001a38:	f005 fdd1 	bl	80075de <nrf24_set_channel>
	nrf24_set_addr_width(5);
 8001a3c:	2005      	movs	r0, #5
 8001a3e:	f005 fed5 	bl	80077ec <nrf24_set_addr_width>
	nrf24_set_rx_dpl(0, disable);
 8001a42:	2100      	movs	r1, #0
 8001a44:	2000      	movs	r0, #0
 8001a46:	f005 ff9f 	bl	8007988 <nrf24_set_rx_dpl>
	nrf24_set_rx_dpl(1, disable);
 8001a4a:	2100      	movs	r1, #0
 8001a4c:	2001      	movs	r0, #1
 8001a4e:	f005 ff9b 	bl	8007988 <nrf24_set_rx_dpl>
	nrf24_set_rx_dpl(2, disable);
 8001a52:	2100      	movs	r1, #0
 8001a54:	2002      	movs	r0, #2
 8001a56:	f005 ff97 	bl	8007988 <nrf24_set_rx_dpl>
	nrf24_set_rx_dpl(3, disable);
 8001a5a:	2100      	movs	r1, #0
 8001a5c:	2003      	movs	r0, #3
 8001a5e:	f005 ff93 	bl	8007988 <nrf24_set_rx_dpl>
	nrf24_set_rx_dpl(4, disable);
 8001a62:	2100      	movs	r1, #0
 8001a64:	2004      	movs	r0, #4
 8001a66:	f005 ff8f 	bl	8007988 <nrf24_set_rx_dpl>
	nrf24_set_rx_dpl(5, disable);
 8001a6a:	2100      	movs	r1, #0
 8001a6c:	2005      	movs	r0, #5
 8001a6e:	f005 ff8b 	bl	8007988 <nrf24_set_rx_dpl>
	nrf24_pipe_pld_size(0, PLD_S);
 8001a72:	2124      	movs	r1, #36	@ 0x24
 8001a74:	2000      	movs	r0, #0
 8001a76:	f005 fdcf 	bl	8007618 <nrf24_pipe_pld_size>
	nrf24_auto_retr_delay(4);
 8001a7a:	2004      	movs	r0, #4
 8001a7c:	f006 f824 	bl	8007ac8 <nrf24_auto_retr_delay>
	nrf24_auto_retr_limit(10);
 8001a80:	200a      	movs	r0, #10
 8001a82:	f006 f846 	bl	8007b12 <nrf24_auto_retr_limit>
	nrf24_open_tx_pipe(addr);
 8001a86:	4885      	ldr	r0, [pc, #532]	@ (8001c9c <main+0x31c>)
 8001a88:	f005 fdb8 	bl	80075fc <nrf24_open_tx_pipe>
	nrf24_open_rx_pipe(0, addr);
 8001a8c:	4983      	ldr	r1, [pc, #524]	@ (8001c9c <main+0x31c>)
 8001a8e:	2000      	movs	r0, #0
 8001a90:	f005 fe10 	bl	80076b4 <nrf24_open_rx_pipe>
	nrf24_listen();
 8001a94:	f005 ff38 	bl	8007908 <nrf24_listen>
	ce_high();
 8001a98:	f005 fcb4 	bl	8007404 <ce_high>

//-------------------Deberia estar tod0 listo-------------------
	ssd1306_Fill(Black);
 8001a9c:	2000      	movs	r0, #0
 8001a9e:	f000 fe7d 	bl	800279c <ssd1306_Fill>
	ssd1306_SetCursor(0, 0);
 8001aa2:	2100      	movs	r1, #0
 8001aa4:	2000      	movs	r0, #0
 8001aa6:	f000 ffc3 	bl	8002a30 <ssd1306_SetCursor>
	ssd1306_WriteString("NRF24 listo", Font_6x8, White);
 8001aaa:	4b77      	ldr	r3, [pc, #476]	@ (8001c88 <main+0x308>)
 8001aac:	2201      	movs	r2, #1
 8001aae:	9200      	str	r2, [sp, #0]
 8001ab0:	cb0e      	ldmia	r3, {r1, r2, r3}
 8001ab2:	487b      	ldr	r0, [pc, #492]	@ (8001ca0 <main+0x320>)
 8001ab4:	f000 ff96 	bl	80029e4 <ssd1306_WriteString>
	ssd1306_UpdateScreen();
 8001ab8:	f000 fe88 	bl	80027cc <ssd1306_UpdateScreen>

	HAL_UART_Receive_IT(&huart1, &UARTbuffer, 1);
 8001abc:	2201      	movs	r2, #1
 8001abe:	4979      	ldr	r1, [pc, #484]	@ (8001ca4 <main+0x324>)
 8001ac0:	4873      	ldr	r0, [pc, #460]	@ (8001c90 <main+0x310>)
 8001ac2:	f004 fef8 	bl	80068b6 <HAL_UART_Receive_IT>
	HAL_Delay(2000);
 8001ac6:	f44f 60fa 	mov.w	r0, #2000	@ 0x7d0
 8001aca:	f001 fabb 	bl	8003044 <HAL_Delay>

	park(B.pos);
 8001ace:	4876      	ldr	r0, [pc, #472]	@ (8001ca8 <main+0x328>)
 8001ad0:	f7ff fb7a 	bl	80011c8 <park>
	mensaje_ssd("parkeado bien chill", Font_6x8, 0, 0, 1);
 8001ad4:	4b6c      	ldr	r3, [pc, #432]	@ (8001c88 <main+0x308>)
 8001ad6:	2201      	movs	r2, #1
 8001ad8:	9202      	str	r2, [sp, #8]
 8001ada:	2200      	movs	r2, #0
 8001adc:	9201      	str	r2, [sp, #4]
 8001ade:	2200      	movs	r2, #0
 8001ae0:	9200      	str	r2, [sp, #0]
 8001ae2:	cb0e      	ldmia	r3, {r1, r2, r3}
 8001ae4:	4871      	ldr	r0, [pc, #452]	@ (8001cac <main+0x32c>)
 8001ae6:	f000 ffed 	bl	8002ac4 <mensaje_ssd>

	/* Infinite loop */
	/* USER CODE BEGIN WHILE */

	while (1) {
		if (nrf_irq) {
 8001aea:	4b71      	ldr	r3, [pc, #452]	@ (8001cb0 <main+0x330>)
 8001aec:	781b      	ldrb	r3, [r3, #0]
 8001aee:	b2db      	uxtb	r3, r3
 8001af0:	2b00      	cmp	r3, #0
 8001af2:	d019      	beq.n	8001b28 <main+0x1a8>
			nrf_irq = 0;
 8001af4:	4b6e      	ldr	r3, [pc, #440]	@ (8001cb0 <main+0x330>)
 8001af6:	2200      	movs	r2, #0
 8001af8:	701a      	strb	r2, [r3, #0]
			UPaquete_TimeStamp = HAL_GetTick();
 8001afa:	f001 fa99 	bl	8003030 <HAL_GetTick>
 8001afe:	4603      	mov	r3, r0
 8001b00:	4a6c      	ldr	r2, [pc, #432]	@ (8001cb4 <main+0x334>)
 8001b02:	6013      	str	r3, [r2, #0]
			uint8_t stat = nrf24_r_status();
 8001b04:	f005 fe9c 	bl	8007840 <nrf24_r_status>
 8001b08:	4603      	mov	r3, r0
 8001b0a:	77fb      	strb	r3, [r7, #31]
			if (stat & (1 << RX_DR)) {
 8001b0c:	7ffb      	ldrb	r3, [r7, #31]
 8001b0e:	f003 0340 	and.w	r3, r3, #64	@ 0x40
 8001b12:	2b00      	cmp	r3, #0
 8001b14:	d004      	beq.n	8001b20 <main+0x1a0>
				FSM_Brazo(&B, EVENT_NEW_DATA);
 8001b16:	2100      	movs	r1, #0
 8001b18:	485e      	ldr	r0, [pc, #376]	@ (8001c94 <main+0x314>)
 8001b1a:	f7ff fbdd 	bl	80012d8 <FSM_Brazo>
 8001b1e:	e003      	b.n	8001b28 <main+0x1a8>
			} else {
				FSM_Brazo(&B, EVENT_EVIL_DATA);
 8001b20:	2102      	movs	r1, #2
 8001b22:	485c      	ldr	r0, [pc, #368]	@ (8001c94 <main+0x314>)
 8001b24:	f7ff fbd8 	bl	80012d8 <FSM_Brazo>
			}
		}

		if(HAL_GetTick() - UPaquete_TimeStamp > 100000){
 8001b28:	f001 fa82 	bl	8003030 <HAL_GetTick>
 8001b2c:	4602      	mov	r2, r0
 8001b2e:	4b61      	ldr	r3, [pc, #388]	@ (8001cb4 <main+0x334>)
 8001b30:	681b      	ldr	r3, [r3, #0]
 8001b32:	1ad3      	subs	r3, r2, r3
 8001b34:	4a60      	ldr	r2, [pc, #384]	@ (8001cb8 <main+0x338>)
 8001b36:	4293      	cmp	r3, r2
 8001b38:	d903      	bls.n	8001b42 <main+0x1c2>
			FSM_Brazo(&B, EVENT_TIMEOUT);
 8001b3a:	2103      	movs	r1, #3
 8001b3c:	4855      	ldr	r0, [pc, #340]	@ (8001c94 <main+0x314>)
 8001b3e:	f7ff fbcb 	bl	80012d8 <FSM_Brazo>
		}

		if (B.actual == STATE_PARK) {
 8001b42:	4b54      	ldr	r3, [pc, #336]	@ (8001c94 <main+0x314>)
 8001b44:	781b      	ldrb	r3, [r3, #0]
 8001b46:	2b03      	cmp	r3, #3
 8001b48:	d10e      	bne.n	8001b68 <main+0x1e8>
			if (HAL_GetTick() - UltimoWakeup > 5000) {
 8001b4a:	f001 fa71 	bl	8003030 <HAL_GetTick>
 8001b4e:	4602      	mov	r2, r0
 8001b50:	4b5a      	ldr	r3, [pc, #360]	@ (8001cbc <main+0x33c>)
 8001b52:	681b      	ldr	r3, [r3, #0]
 8001b54:	1ad3      	subs	r3, r2, r3
 8001b56:	f241 3288 	movw	r2, #5000	@ 0x1388
 8001b5a:	4293      	cmp	r3, r2
 8001b5c:	d904      	bls.n	8001b68 <main+0x1e8>
				UltimoWakeup = HAL_GetTick();
 8001b5e:	f001 fa67 	bl	8003030 <HAL_GetTick>
 8001b62:	4603      	mov	r3, r0
 8001b64:	4a55      	ldr	r2, [pc, #340]	@ (8001cbc <main+0x33c>)
 8001b66:	6013      	str	r3, [r2, #0]
			}
		}

		if(flag_a){
 8001b68:	4b55      	ldr	r3, [pc, #340]	@ (8001cc0 <main+0x340>)
 8001b6a:	781b      	ldrb	r3, [r3, #0]
 8001b6c:	b2db      	uxtb	r3, r3
 8001b6e:	2b00      	cmp	r3, #0
 8001b70:	d006      	beq.n	8001b80 <main+0x200>
			flag_a = 0;
 8001b72:	4b53      	ldr	r3, [pc, #332]	@ (8001cc0 <main+0x340>)
 8001b74:	2200      	movs	r2, #0
 8001b76:	701a      	strb	r2, [r3, #0]
			FSM_Brazo(&B, EVENT_AUTO);
 8001b78:	2107      	movs	r1, #7
 8001b7a:	4846      	ldr	r0, [pc, #280]	@ (8001c94 <main+0x314>)
 8001b7c:	f7ff fbac 	bl	80012d8 <FSM_Brazo>
		}
		if(flag_m){
 8001b80:	4b50      	ldr	r3, [pc, #320]	@ (8001cc4 <main+0x344>)
 8001b82:	781b      	ldrb	r3, [r3, #0]
 8001b84:	b2db      	uxtb	r3, r3
 8001b86:	2b00      	cmp	r3, #0
 8001b88:	d006      	beq.n	8001b98 <main+0x218>
			flag_m = 0;
 8001b8a:	4b4e      	ldr	r3, [pc, #312]	@ (8001cc4 <main+0x344>)
 8001b8c:	2200      	movs	r2, #0
 8001b8e:	701a      	strb	r2, [r3, #0]
			FSM_Brazo(&B, EVENT_MANUAL);
 8001b90:	2106      	movs	r1, #6
 8001b92:	4840      	ldr	r0, [pc, #256]	@ (8001c94 <main+0x314>)
 8001b94:	f7ff fba0 	bl	80012d8 <FSM_Brazo>
		}

		if(flag_mas){
 8001b98:	4b4b      	ldr	r3, [pc, #300]	@ (8001cc8 <main+0x348>)
 8001b9a:	781b      	ldrb	r3, [r3, #0]
 8001b9c:	b2db      	uxtb	r3, r3
 8001b9e:	2b00      	cmp	r3, #0
 8001ba0:	d006      	beq.n	8001bb0 <main+0x230>
			flag_mas = 0;
 8001ba2:	4b49      	ldr	r3, [pc, #292]	@ (8001cc8 <main+0x348>)
 8001ba4:	2200      	movs	r2, #0
 8001ba6:	701a      	strb	r2, [r3, #0]
			FSM_Brazo(&B, EVENT_MAS);
 8001ba8:	2108      	movs	r1, #8
 8001baa:	483a      	ldr	r0, [pc, #232]	@ (8001c94 <main+0x314>)
 8001bac:	f7ff fb94 	bl	80012d8 <FSM_Brazo>
		}

		if(flag_menos){
 8001bb0:	4b46      	ldr	r3, [pc, #280]	@ (8001ccc <main+0x34c>)
 8001bb2:	781b      	ldrb	r3, [r3, #0]
 8001bb4:	b2db      	uxtb	r3, r3
 8001bb6:	2b00      	cmp	r3, #0
 8001bb8:	d006      	beq.n	8001bc8 <main+0x248>
			flag_menos = 0;
 8001bba:	4b44      	ldr	r3, [pc, #272]	@ (8001ccc <main+0x34c>)
 8001bbc:	2200      	movs	r2, #0
 8001bbe:	701a      	strb	r2, [r3, #0]
			FSM_Brazo(&B, EVENT_MENOS);
 8001bc0:	2109      	movs	r1, #9
 8001bc2:	4834      	ldr	r0, [pc, #208]	@ (8001c94 <main+0x314>)
 8001bc4:	f7ff fb88 	bl	80012d8 <FSM_Brazo>
		}

		if(flag_select_servo && B.actual == STATE_MANUAL){
 8001bc8:	4b41      	ldr	r3, [pc, #260]	@ (8001cd0 <main+0x350>)
 8001bca:	781b      	ldrb	r3, [r3, #0]
 8001bcc:	b2db      	uxtb	r3, r3
 8001bce:	2b00      	cmp	r3, #0
 8001bd0:	d020      	beq.n	8001c14 <main+0x294>
 8001bd2:	4b30      	ldr	r3, [pc, #192]	@ (8001c94 <main+0x314>)
 8001bd4:	781b      	ldrb	r3, [r3, #0]
 8001bd6:	2b04      	cmp	r3, #4
 8001bd8:	d11c      	bne.n	8001c14 <main+0x294>
			flag_select_servo = 0;
 8001bda:	4b3d      	ldr	r3, [pc, #244]	@ (8001cd0 <main+0x350>)
 8001bdc:	2200      	movs	r2, #0
 8001bde:	701a      	strb	r2, [r3, #0]
			uint8_t new_servo = UARTbuffer - '0';
 8001be0:	4b30      	ldr	r3, [pc, #192]	@ (8001ca4 <main+0x324>)
 8001be2:	781b      	ldrb	r3, [r3, #0]
 8001be4:	3b30      	subs	r3, #48	@ 0x30
 8001be6:	77bb      	strb	r3, [r7, #30]
			changeManualServo(new_servo);
 8001be8:	7fbb      	ldrb	r3, [r7, #30]
 8001bea:	4618      	mov	r0, r3
 8001bec:	f7ff fa88 	bl	8001100 <changeManualServo>
			char cdeservo[30];
			sprintf(cdeservo, "Moviendo servo n° %d", new_servo);
 8001bf0:	7fba      	ldrb	r2, [r7, #30]
 8001bf2:	463b      	mov	r3, r7
 8001bf4:	4937      	ldr	r1, [pc, #220]	@ (8001cd4 <main+0x354>)
 8001bf6:	4618      	mov	r0, r3
 8001bf8:	f005 fffa 	bl	8007bf0 <siprintf>
			HAL_UART_Transmit(&huart1, (uint8_t *) cdeservo, strlen(cdeservo), HAL_MAX_DELAY);
 8001bfc:	463b      	mov	r3, r7
 8001bfe:	4618      	mov	r0, r3
 8001c00:	f7fe faa6 	bl	8000150 <strlen>
 8001c04:	4603      	mov	r3, r0
 8001c06:	b29a      	uxth	r2, r3
 8001c08:	4639      	mov	r1, r7
 8001c0a:	f04f 33ff 	mov.w	r3, #4294967295
 8001c0e:	4820      	ldr	r0, [pc, #128]	@ (8001c90 <main+0x310>)
 8001c10:	f004 fdc6 	bl	80067a0 <HAL_UART_Transmit>



//-------------------------MANEJAR ERORRES--------------------------------

		switch (B.Error) {
 8001c14:	4b1f      	ldr	r3, [pc, #124]	@ (8001c94 <main+0x314>)
 8001c16:	7a1b      	ldrb	r3, [r3, #8]
 8001c18:	2b04      	cmp	r3, #4
 8001c1a:	d831      	bhi.n	8001c80 <main+0x300>
 8001c1c:	a201      	add	r2, pc, #4	@ (adr r2, 8001c24 <main+0x2a4>)
 8001c1e:	f852 f023 	ldr.w	pc, [r2, r3, lsl #2]
 8001c22:	bf00      	nop
 8001c24:	08001c81 	.word	0x08001c81
 8001c28:	08001c81 	.word	0x08001c81
 8001c2c:	08001c39 	.word	0x08001c39
 8001c30:	08001c51 	.word	0x08001c51
 8001c34:	08001c69 	.word	0x08001c69
		case ERR_NONE:
			break;

		case ERR_NRF_SYNC_LOST:
			mensaje_ssd("LOST SYNC", Font_6x8, 0, 0, 1);
 8001c38:	4b13      	ldr	r3, [pc, #76]	@ (8001c88 <main+0x308>)
 8001c3a:	2201      	movs	r2, #1
 8001c3c:	9202      	str	r2, [sp, #8]
 8001c3e:	2200      	movs	r2, #0
 8001c40:	9201      	str	r2, [sp, #4]
 8001c42:	2200      	movs	r2, #0
 8001c44:	9200      	str	r2, [sp, #0]
 8001c46:	cb0e      	ldmia	r3, {r1, r2, r3}
 8001c48:	4823      	ldr	r0, [pc, #140]	@ (8001cd8 <main+0x358>)
 8001c4a:	f000 ff3b 	bl	8002ac4 <mensaje_ssd>
			break;
 8001c4e:	e018      	b.n	8001c82 <main+0x302>

		case ERR_PCA9685_NOT_FOUND:
			mensaje_ssd("ERROR PCA96", Font_6x8, 0, 0, 1);
 8001c50:	4b0d      	ldr	r3, [pc, #52]	@ (8001c88 <main+0x308>)
 8001c52:	2201      	movs	r2, #1
 8001c54:	9202      	str	r2, [sp, #8]
 8001c56:	2200      	movs	r2, #0
 8001c58:	9201      	str	r2, [sp, #4]
 8001c5a:	2200      	movs	r2, #0
 8001c5c:	9200      	str	r2, [sp, #0]
 8001c5e:	cb0e      	ldmia	r3, {r1, r2, r3}
 8001c60:	481e      	ldr	r0, [pc, #120]	@ (8001cdc <main+0x35c>)
 8001c62:	f000 ff2f 	bl	8002ac4 <mensaje_ssd>
			break;
 8001c66:	e00c      	b.n	8001c82 <main+0x302>
		case ERR_DATA_CORRUPTED:
			mensaje_ssd("ERROR DATA", Font_6x8, 0, 0, 1);
 8001c68:	4b07      	ldr	r3, [pc, #28]	@ (8001c88 <main+0x308>)
 8001c6a:	2201      	movs	r2, #1
 8001c6c:	9202      	str	r2, [sp, #8]
 8001c6e:	2200      	movs	r2, #0
 8001c70:	9201      	str	r2, [sp, #4]
 8001c72:	2200      	movs	r2, #0
 8001c74:	9200      	str	r2, [sp, #0]
 8001c76:	cb0e      	ldmia	r3, {r1, r2, r3}
 8001c78:	4819      	ldr	r0, [pc, #100]	@ (8001ce0 <main+0x360>)
 8001c7a:	f000 ff23 	bl	8002ac4 <mensaje_ssd>
			break;
 8001c7e:	e000      	b.n	8001c82 <main+0x302>
		default:
			break;
 8001c80:	bf00      	nop
		if (nrf_irq) {
 8001c82:	e732      	b.n	8001aea <main+0x16a>
 8001c84:	20000128 	.word	0x20000128
 8001c88:	080091e0 	.word	0x080091e0
 8001c8c:	08008b74 	.word	0x08008b74
 8001c90:	20000270 	.word	0x20000270
 8001c94:	200002c0 	.word	0x200002c0
 8001c98:	08008b84 	.word	0x08008b84
 8001c9c:	20000000 	.word	0x20000000
 8001ca0:	08008b94 	.word	0x08008b94
 8001ca4:	200002fc 	.word	0x200002fc
 8001ca8:	200002c1 	.word	0x200002c1
 8001cac:	08008ba0 	.word	0x08008ba0
 8001cb0:	200002fd 	.word	0x200002fd
 8001cb4:	200002b8 	.word	0x200002b8
 8001cb8:	000186a0 	.word	0x000186a0
 8001cbc:	200002bc 	.word	0x200002bc
 8001cc0:	200002ff 	.word	0x200002ff
 8001cc4:	200002fe 	.word	0x200002fe
 8001cc8:	20000300 	.word	0x20000300
 8001ccc:	20000301 	.word	0x20000301
 8001cd0:	20000302 	.word	0x20000302
 8001cd4:	08008bb4 	.word	0x08008bb4
 8001cd8:	08008bcc 	.word	0x08008bcc
 8001cdc:	08008bd8 	.word	0x08008bd8
 8001ce0:	08008be4 	.word	0x08008be4

08001ce4 <SystemClock_Config>:

/**
 * @brief System Clock Configuration
 * @retval None
 */
void SystemClock_Config(void) {
 8001ce4:	b580      	push	{r7, lr}
 8001ce6:	b094      	sub	sp, #80	@ 0x50
 8001ce8:	af00      	add	r7, sp, #0
	RCC_OscInitTypeDef RCC_OscInitStruct = { 0 };
 8001cea:	f107 0328 	add.w	r3, r7, #40	@ 0x28
 8001cee:	2228      	movs	r2, #40	@ 0x28
 8001cf0:	2100      	movs	r1, #0
 8001cf2:	4618      	mov	r0, r3
 8001cf4:	f005 ffb7 	bl	8007c66 <memset>
	RCC_ClkInitTypeDef RCC_ClkInitStruct = { 0 };
 8001cf8:	f107 0314 	add.w	r3, r7, #20
 8001cfc:	2200      	movs	r2, #0
 8001cfe:	601a      	str	r2, [r3, #0]
 8001d00:	605a      	str	r2, [r3, #4]
 8001d02:	609a      	str	r2, [r3, #8]
 8001d04:	60da      	str	r2, [r3, #12]
 8001d06:	611a      	str	r2, [r3, #16]
	RCC_PeriphCLKInitTypeDef PeriphClkInit = { 0 };
 8001d08:	1d3b      	adds	r3, r7, #4
 8001d0a:	2200      	movs	r2, #0
 8001d0c:	601a      	str	r2, [r3, #0]
 8001d0e:	605a      	str	r2, [r3, #4]
 8001d10:	609a      	str	r2, [r3, #8]
 8001d12:	60da      	str	r2, [r3, #12]

	/** Initializes the RCC Oscillators according to the specified parameters
	 * in the RCC_OscInitTypeDef structure.
	 */
	RCC_OscInitStruct.OscillatorType = RCC_OSCILLATORTYPE_HSE;
 8001d14:	2301      	movs	r3, #1
 8001d16:	62bb      	str	r3, [r7, #40]	@ 0x28
	RCC_OscInitStruct.HSEState = RCC_HSE_ON;
 8001d18:	f44f 3380 	mov.w	r3, #65536	@ 0x10000
 8001d1c:	62fb      	str	r3, [r7, #44]	@ 0x2c
	RCC_OscInitStruct.HSEPredivValue = RCC_HSE_PREDIV_DIV1;
 8001d1e:	2300      	movs	r3, #0
 8001d20:	633b      	str	r3, [r7, #48]	@ 0x30
	RCC_OscInitStruct.HSIState = RCC_HSI_ON;
 8001d22:	2301      	movs	r3, #1
 8001d24:	63bb      	str	r3, [r7, #56]	@ 0x38
	RCC_OscInitStruct.PLL.PLLState = RCC_PLL_ON;
 8001d26:	2302      	movs	r3, #2
 8001d28:	647b      	str	r3, [r7, #68]	@ 0x44
	RCC_OscInitStruct.PLL.PLLSource = RCC_PLLSOURCE_HSE;
 8001d2a:	f44f 3380 	mov.w	r3, #65536	@ 0x10000
 8001d2e:	64bb      	str	r3, [r7, #72]	@ 0x48
	RCC_OscInitStruct.PLL.PLLMUL = RCC_PLL_MUL2;
 8001d30:	2300      	movs	r3, #0
 8001d32:	64fb      	str	r3, [r7, #76]	@ 0x4c
	if (HAL_RCC_OscConfig(&RCC_OscInitStruct) != HAL_OK) {
 8001d34:	f107 0328 	add.w	r3, r7, #40	@ 0x28
 8001d38:	4618      	mov	r0, r3
 8001d3a:	f003 f92d 	bl	8004f98 <HAL_RCC_OscConfig>
 8001d3e:	4603      	mov	r3, r0
 8001d40:	2b00      	cmp	r3, #0
 8001d42:	d001      	beq.n	8001d48 <SystemClock_Config+0x64>
		Error_Handler();
 8001d44:	f000 fa60 	bl	8002208 <Error_Handler>
	}

	/** Initializes the CPU, AHB and APB buses clocks
	 */
	RCC_ClkInitStruct.ClockType = RCC_CLOCKTYPE_HCLK | RCC_CLOCKTYPE_SYSCLK
 8001d48:	230f      	movs	r3, #15
 8001d4a:	617b      	str	r3, [r7, #20]
			| RCC_CLOCKTYPE_PCLK1 | RCC_CLOCKTYPE_PCLK2;
	RCC_ClkInitStruct.SYSCLKSource = RCC_SYSCLKSOURCE_PLLCLK;
 8001d4c:	2302      	movs	r3, #2
 8001d4e:	61bb      	str	r3, [r7, #24]
	RCC_ClkInitStruct.AHBCLKDivider = RCC_SYSCLK_DIV1;
 8001d50:	2300      	movs	r3, #0
 8001d52:	61fb      	str	r3, [r7, #28]
	RCC_ClkInitStruct.APB1CLKDivider = RCC_HCLK_DIV2;
 8001d54:	f44f 6380 	mov.w	r3, #1024	@ 0x400
 8001d58:	623b      	str	r3, [r7, #32]
	RCC_ClkInitStruct.APB2CLKDivider = RCC_HCLK_DIV1;
 8001d5a:	2300      	movs	r3, #0
 8001d5c:	627b      	str	r3, [r7, #36]	@ 0x24

	if (HAL_RCC_ClockConfig(&RCC_ClkInitStruct, FLASH_LATENCY_0) != HAL_OK) {
 8001d5e:	f107 0314 	add.w	r3, r7, #20
 8001d62:	2100      	movs	r1, #0
 8001d64:	4618      	mov	r0, r3
 8001d66:	f003 fb99 	bl	800549c <HAL_RCC_ClockConfig>
 8001d6a:	4603      	mov	r3, r0
 8001d6c:	2b00      	cmp	r3, #0
 8001d6e:	d001      	beq.n	8001d74 <SystemClock_Config+0x90>
		Error_Handler();
 8001d70:	f000 fa4a 	bl	8002208 <Error_Handler>
	}
	PeriphClkInit.PeriphClockSelection = RCC_PERIPHCLK_ADC;
 8001d74:	2302      	movs	r3, #2
 8001d76:	607b      	str	r3, [r7, #4]
	PeriphClkInit.AdcClockSelection = RCC_ADCPCLK2_DIV2;
 8001d78:	2300      	movs	r3, #0
 8001d7a:	60fb      	str	r3, [r7, #12]
	if (HAL_RCCEx_PeriphCLKConfig(&PeriphClkInit) != HAL_OK) {
 8001d7c:	1d3b      	adds	r3, r7, #4
 8001d7e:	4618      	mov	r0, r3
 8001d80:	f003 fd1a 	bl	80057b8 <HAL_RCCEx_PeriphCLKConfig>
 8001d84:	4603      	mov	r3, r0
 8001d86:	2b00      	cmp	r3, #0
 8001d88:	d001      	beq.n	8001d8e <SystemClock_Config+0xaa>
		Error_Handler();
 8001d8a:	f000 fa3d 	bl	8002208 <Error_Handler>
	}
}
 8001d8e:	bf00      	nop
 8001d90:	3750      	adds	r7, #80	@ 0x50
 8001d92:	46bd      	mov	sp, r7
 8001d94:	bd80      	pop	{r7, pc}
	...

08001d98 <MX_ADC1_Init>:
/**
 * @brief ADC1 Initialization Function
 * @param None
 * @retval None
 */
static void MX_ADC1_Init(void) {
 8001d98:	b580      	push	{r7, lr}
 8001d9a:	b084      	sub	sp, #16
 8001d9c:	af00      	add	r7, sp, #0

	/* USER CODE BEGIN ADC1_Init 0 */

	/* USER CODE END ADC1_Init 0 */

	ADC_ChannelConfTypeDef sConfig = { 0 };
 8001d9e:	1d3b      	adds	r3, r7, #4
 8001da0:	2200      	movs	r2, #0
 8001da2:	601a      	str	r2, [r3, #0]
 8001da4:	605a      	str	r2, [r3, #4]
 8001da6:	609a      	str	r2, [r3, #8]

	/* USER CODE END ADC1_Init 1 */

	/** Common config
	 */
	hadc1.Instance = ADC1;
 8001da8:	4b18      	ldr	r3, [pc, #96]	@ (8001e0c <MX_ADC1_Init+0x74>)
 8001daa:	4a19      	ldr	r2, [pc, #100]	@ (8001e10 <MX_ADC1_Init+0x78>)
 8001dac:	601a      	str	r2, [r3, #0]
	hadc1.Init.ScanConvMode = ADC_SCAN_DISABLE;
 8001dae:	4b17      	ldr	r3, [pc, #92]	@ (8001e0c <MX_ADC1_Init+0x74>)
 8001db0:	2200      	movs	r2, #0
 8001db2:	609a      	str	r2, [r3, #8]
	hadc1.Init.ContinuousConvMode = DISABLE;
 8001db4:	4b15      	ldr	r3, [pc, #84]	@ (8001e0c <MX_ADC1_Init+0x74>)
 8001db6:	2200      	movs	r2, #0
 8001db8:	731a      	strb	r2, [r3, #12]
	hadc1.Init.DiscontinuousConvMode = DISABLE;
 8001dba:	4b14      	ldr	r3, [pc, #80]	@ (8001e0c <MX_ADC1_Init+0x74>)
 8001dbc:	2200      	movs	r2, #0
 8001dbe:	751a      	strb	r2, [r3, #20]
	hadc1.Init.ExternalTrigConv = ADC_SOFTWARE_START;
 8001dc0:	4b12      	ldr	r3, [pc, #72]	@ (8001e0c <MX_ADC1_Init+0x74>)
 8001dc2:	f44f 2260 	mov.w	r2, #917504	@ 0xe0000
 8001dc6:	61da      	str	r2, [r3, #28]
	hadc1.Init.DataAlign = ADC_DATAALIGN_RIGHT;
 8001dc8:	4b10      	ldr	r3, [pc, #64]	@ (8001e0c <MX_ADC1_Init+0x74>)
 8001dca:	2200      	movs	r2, #0
 8001dcc:	605a      	str	r2, [r3, #4]
	hadc1.Init.NbrOfConversion = 1;
 8001dce:	4b0f      	ldr	r3, [pc, #60]	@ (8001e0c <MX_ADC1_Init+0x74>)
 8001dd0:	2201      	movs	r2, #1
 8001dd2:	611a      	str	r2, [r3, #16]
	if (HAL_ADC_Init(&hadc1) != HAL_OK) {
 8001dd4:	480d      	ldr	r0, [pc, #52]	@ (8001e0c <MX_ADC1_Init+0x74>)
 8001dd6:	f001 f959 	bl	800308c <HAL_ADC_Init>
 8001dda:	4603      	mov	r3, r0
 8001ddc:	2b00      	cmp	r3, #0
 8001dde:	d001      	beq.n	8001de4 <MX_ADC1_Init+0x4c>
		Error_Handler();
 8001de0:	f000 fa12 	bl	8002208 <Error_Handler>
	}

	/** Configure Regular Channel
	 */
	sConfig.Channel = ADC_CHANNEL_1;
 8001de4:	2301      	movs	r3, #1
 8001de6:	607b      	str	r3, [r7, #4]
	sConfig.Rank = ADC_REGULAR_RANK_1;
 8001de8:	2301      	movs	r3, #1
 8001dea:	60bb      	str	r3, [r7, #8]
	sConfig.SamplingTime = ADC_SAMPLETIME_1CYCLE_5;
 8001dec:	2300      	movs	r3, #0
 8001dee:	60fb      	str	r3, [r7, #12]
	if (HAL_ADC_ConfigChannel(&hadc1, &sConfig) != HAL_OK) {
 8001df0:	1d3b      	adds	r3, r7, #4
 8001df2:	4619      	mov	r1, r3
 8001df4:	4805      	ldr	r0, [pc, #20]	@ (8001e0c <MX_ADC1_Init+0x74>)
 8001df6:	f001 fa21 	bl	800323c <HAL_ADC_ConfigChannel>
 8001dfa:	4603      	mov	r3, r0
 8001dfc:	2b00      	cmp	r3, #0
 8001dfe:	d001      	beq.n	8001e04 <MX_ADC1_Init+0x6c>
		Error_Handler();
 8001e00:	f000 fa02 	bl	8002208 <Error_Handler>
	}
	/* USER CODE BEGIN ADC1_Init 2 */

	/* USER CODE END ADC1_Init 2 */

}
 8001e04:	bf00      	nop
 8001e06:	3710      	adds	r7, #16
 8001e08:	46bd      	mov	sp, r7
 8001e0a:	bd80      	pop	{r7, pc}
 8001e0c:	200000f8 	.word	0x200000f8
 8001e10:	40012400 	.word	0x40012400

08001e14 <MX_I2C1_Init>:
/**
 * @brief I2C1 Initialization Function
 * @param None
 * @retval None
 */
static void MX_I2C1_Init(void) {
 8001e14:	b580      	push	{r7, lr}
 8001e16:	af00      	add	r7, sp, #0
	/* USER CODE END I2C1_Init 0 */

	/* USER CODE BEGIN I2C1_Init 1 */

	/* USER CODE END I2C1_Init 1 */
	hi2c1.Instance = I2C1;
 8001e18:	4b12      	ldr	r3, [pc, #72]	@ (8001e64 <MX_I2C1_Init+0x50>)
 8001e1a:	4a13      	ldr	r2, [pc, #76]	@ (8001e68 <MX_I2C1_Init+0x54>)
 8001e1c:	601a      	str	r2, [r3, #0]
	hi2c1.Init.ClockSpeed = 400000;
 8001e1e:	4b11      	ldr	r3, [pc, #68]	@ (8001e64 <MX_I2C1_Init+0x50>)
 8001e20:	4a12      	ldr	r2, [pc, #72]	@ (8001e6c <MX_I2C1_Init+0x58>)
 8001e22:	605a      	str	r2, [r3, #4]
	hi2c1.Init.DutyCycle = I2C_DUTYCYCLE_2;
 8001e24:	4b0f      	ldr	r3, [pc, #60]	@ (8001e64 <MX_I2C1_Init+0x50>)
 8001e26:	2200      	movs	r2, #0
 8001e28:	609a      	str	r2, [r3, #8]
	hi2c1.Init.OwnAddress1 = 0;
 8001e2a:	4b0e      	ldr	r3, [pc, #56]	@ (8001e64 <MX_I2C1_Init+0x50>)
 8001e2c:	2200      	movs	r2, #0
 8001e2e:	60da      	str	r2, [r3, #12]
	hi2c1.Init.AddressingMode = I2C_ADDRESSINGMODE_7BIT;
 8001e30:	4b0c      	ldr	r3, [pc, #48]	@ (8001e64 <MX_I2C1_Init+0x50>)
 8001e32:	f44f 4280 	mov.w	r2, #16384	@ 0x4000
 8001e36:	611a      	str	r2, [r3, #16]
	hi2c1.Init.DualAddressMode = I2C_DUALADDRESS_DISABLE;
 8001e38:	4b0a      	ldr	r3, [pc, #40]	@ (8001e64 <MX_I2C1_Init+0x50>)
 8001e3a:	2200      	movs	r2, #0
 8001e3c:	615a      	str	r2, [r3, #20]
	hi2c1.Init.OwnAddress2 = 0;
 8001e3e:	4b09      	ldr	r3, [pc, #36]	@ (8001e64 <MX_I2C1_Init+0x50>)
 8001e40:	2200      	movs	r2, #0
 8001e42:	619a      	str	r2, [r3, #24]
	hi2c1.Init.GeneralCallMode = I2C_GENERALCALL_DISABLE;
 8001e44:	4b07      	ldr	r3, [pc, #28]	@ (8001e64 <MX_I2C1_Init+0x50>)
 8001e46:	2200      	movs	r2, #0
 8001e48:	61da      	str	r2, [r3, #28]
	hi2c1.Init.NoStretchMode = I2C_NOSTRETCH_DISABLE;
 8001e4a:	4b06      	ldr	r3, [pc, #24]	@ (8001e64 <MX_I2C1_Init+0x50>)
 8001e4c:	2200      	movs	r2, #0
 8001e4e:	621a      	str	r2, [r3, #32]
	if (HAL_I2C_Init(&hi2c1) != HAL_OK) {
 8001e50:	4804      	ldr	r0, [pc, #16]	@ (8001e64 <MX_I2C1_Init+0x50>)
 8001e52:	f001 febb 	bl	8003bcc <HAL_I2C_Init>
 8001e56:	4603      	mov	r3, r0
 8001e58:	2b00      	cmp	r3, #0
 8001e5a:	d001      	beq.n	8001e60 <MX_I2C1_Init+0x4c>
		Error_Handler();
 8001e5c:	f000 f9d4 	bl	8002208 <Error_Handler>
	}
	/* USER CODE BEGIN I2C1_Init 2 */

	/* USER CODE END I2C1_Init 2 */

}
 8001e60:	bf00      	nop
 8001e62:	bd80      	pop	{r7, pc}
 8001e64:	20000128 	.word	0x20000128
 8001e68:	40005400 	.word	0x40005400
 8001e6c:	00061a80 	.word	0x00061a80

08001e70 <MX_I2C2_Init>:
/**
 * @brief I2C2 Initialization Function
 * @param None
 * @retval None
 */
static void MX_I2C2_Init(void) {
 8001e70:	b580      	push	{r7, lr}
 8001e72:	af00      	add	r7, sp, #0
	/* USER CODE END I2C2_Init 0 */

	/* USER CODE BEGIN I2C2_Init 1 */

	/* USER CODE END I2C2_Init 1 */
	hi2c2.Instance = I2C2;
 8001e74:	4b12      	ldr	r3, [pc, #72]	@ (8001ec0 <MX_I2C2_Init+0x50>)
 8001e76:	4a13      	ldr	r2, [pc, #76]	@ (8001ec4 <MX_I2C2_Init+0x54>)
 8001e78:	601a      	str	r2, [r3, #0]
	hi2c2.Init.ClockSpeed = 100000;
 8001e7a:	4b11      	ldr	r3, [pc, #68]	@ (8001ec0 <MX_I2C2_Init+0x50>)
 8001e7c:	4a12      	ldr	r2, [pc, #72]	@ (8001ec8 <MX_I2C2_Init+0x58>)
 8001e7e:	605a      	str	r2, [r3, #4]
	hi2c2.Init.DutyCycle = I2C_DUTYCYCLE_2;
 8001e80:	4b0f      	ldr	r3, [pc, #60]	@ (8001ec0 <MX_I2C2_Init+0x50>)
 8001e82:	2200      	movs	r2, #0
 8001e84:	609a      	str	r2, [r3, #8]
	hi2c2.Init.OwnAddress1 = 0;
 8001e86:	4b0e      	ldr	r3, [pc, #56]	@ (8001ec0 <MX_I2C2_Init+0x50>)
 8001e88:	2200      	movs	r2, #0
 8001e8a:	60da      	str	r2, [r3, #12]
	hi2c2.Init.AddressingMode = I2C_ADDRESSINGMODE_7BIT;
 8001e8c:	4b0c      	ldr	r3, [pc, #48]	@ (8001ec0 <MX_I2C2_Init+0x50>)
 8001e8e:	f44f 4280 	mov.w	r2, #16384	@ 0x4000
 8001e92:	611a      	str	r2, [r3, #16]
	hi2c2.Init.DualAddressMode = I2C_DUALADDRESS_DISABLE;
 8001e94:	4b0a      	ldr	r3, [pc, #40]	@ (8001ec0 <MX_I2C2_Init+0x50>)
 8001e96:	2200      	movs	r2, #0
 8001e98:	615a      	str	r2, [r3, #20]
	hi2c2.Init.OwnAddress2 = 0;
 8001e9a:	4b09      	ldr	r3, [pc, #36]	@ (8001ec0 <MX_I2C2_Init+0x50>)
 8001e9c:	2200      	movs	r2, #0
 8001e9e:	619a      	str	r2, [r3, #24]
	hi2c2.Init.GeneralCallMode = I2C_GENERALCALL_DISABLE;
 8001ea0:	4b07      	ldr	r3, [pc, #28]	@ (8001ec0 <MX_I2C2_Init+0x50>)
 8001ea2:	2200      	movs	r2, #0
 8001ea4:	61da      	str	r2, [r3, #28]
	hi2c2.Init.NoStretchMode = I2C_NOSTRETCH_DISABLE;
 8001ea6:	4b06      	ldr	r3, [pc, #24]	@ (8001ec0 <MX_I2C2_Init+0x50>)
 8001ea8:	2200      	movs	r2, #0
 8001eaa:	621a      	str	r2, [r3, #32]
	if (HAL_I2C_Init(&hi2c2) != HAL_OK) {
 8001eac:	4804      	ldr	r0, [pc, #16]	@ (8001ec0 <MX_I2C2_Init+0x50>)
 8001eae:	f001 fe8d 	bl	8003bcc <HAL_I2C_Init>
 8001eb2:	4603      	mov	r3, r0
 8001eb4:	2b00      	cmp	r3, #0
 8001eb6:	d001      	beq.n	8001ebc <MX_I2C2_Init+0x4c>
		Error_Handler();
 8001eb8:	f000 f9a6 	bl	8002208 <Error_Handler>
	}
	/* USER CODE BEGIN I2C2_Init 2 */

	/* USER CODE END I2C2_Init 2 */

}
 8001ebc:	bf00      	nop
 8001ebe:	bd80      	pop	{r7, pc}
 8001ec0:	2000017c 	.word	0x2000017c
 8001ec4:	40005800 	.word	0x40005800
 8001ec8:	000186a0 	.word	0x000186a0

08001ecc <MX_SPI1_Init>:
/**
 * @brief SPI1 Initialization Function
 * @param None
 * @retval None
 */
static void MX_SPI1_Init(void) {
 8001ecc:	b580      	push	{r7, lr}
 8001ece:	af00      	add	r7, sp, #0

	/* USER CODE BEGIN SPI1_Init 1 */

	/* USER CODE END SPI1_Init 1 */
	/* SPI1 parameter configuration*/
	hspi1.Instance = SPI1;
 8001ed0:	4b17      	ldr	r3, [pc, #92]	@ (8001f30 <MX_SPI1_Init+0x64>)
 8001ed2:	4a18      	ldr	r2, [pc, #96]	@ (8001f34 <MX_SPI1_Init+0x68>)
 8001ed4:	601a      	str	r2, [r3, #0]
	hspi1.Init.Mode = SPI_MODE_MASTER;
 8001ed6:	4b16      	ldr	r3, [pc, #88]	@ (8001f30 <MX_SPI1_Init+0x64>)
 8001ed8:	f44f 7282 	mov.w	r2, #260	@ 0x104
 8001edc:	605a      	str	r2, [r3, #4]
	hspi1.Init.Direction = SPI_DIRECTION_2LINES;
 8001ede:	4b14      	ldr	r3, [pc, #80]	@ (8001f30 <MX_SPI1_Init+0x64>)
 8001ee0:	2200      	movs	r2, #0
 8001ee2:	609a      	str	r2, [r3, #8]
	hspi1.Init.DataSize = SPI_DATASIZE_8BIT;
 8001ee4:	4b12      	ldr	r3, [pc, #72]	@ (8001f30 <MX_SPI1_Init+0x64>)
 8001ee6:	2200      	movs	r2, #0
 8001ee8:	60da      	str	r2, [r3, #12]
	hspi1.Init.CLKPolarity = SPI_POLARITY_LOW;
 8001eea:	4b11      	ldr	r3, [pc, #68]	@ (8001f30 <MX_SPI1_Init+0x64>)
 8001eec:	2200      	movs	r2, #0
 8001eee:	611a      	str	r2, [r3, #16]
	hspi1.Init.CLKPhase = SPI_PHASE_1EDGE;
 8001ef0:	4b0f      	ldr	r3, [pc, #60]	@ (8001f30 <MX_SPI1_Init+0x64>)
 8001ef2:	2200      	movs	r2, #0
 8001ef4:	615a      	str	r2, [r3, #20]
	hspi1.Init.NSS = SPI_NSS_SOFT;
 8001ef6:	4b0e      	ldr	r3, [pc, #56]	@ (8001f30 <MX_SPI1_Init+0x64>)
 8001ef8:	f44f 7200 	mov.w	r2, #512	@ 0x200
 8001efc:	619a      	str	r2, [r3, #24]
	hspi1.Init.BaudRatePrescaler = SPI_BAUDRATEPRESCALER_16;
 8001efe:	4b0c      	ldr	r3, [pc, #48]	@ (8001f30 <MX_SPI1_Init+0x64>)
 8001f00:	2218      	movs	r2, #24
 8001f02:	61da      	str	r2, [r3, #28]
	hspi1.Init.FirstBit = SPI_FIRSTBIT_MSB;
 8001f04:	4b0a      	ldr	r3, [pc, #40]	@ (8001f30 <MX_SPI1_Init+0x64>)
 8001f06:	2200      	movs	r2, #0
 8001f08:	621a      	str	r2, [r3, #32]
	hspi1.Init.TIMode = SPI_TIMODE_DISABLE;
 8001f0a:	4b09      	ldr	r3, [pc, #36]	@ (8001f30 <MX_SPI1_Init+0x64>)
 8001f0c:	2200      	movs	r2, #0
 8001f0e:	625a      	str	r2, [r3, #36]	@ 0x24
	hspi1.Init.CRCCalculation = SPI_CRCCALCULATION_DISABLE;
 8001f10:	4b07      	ldr	r3, [pc, #28]	@ (8001f30 <MX_SPI1_Init+0x64>)
 8001f12:	2200      	movs	r2, #0
 8001f14:	629a      	str	r2, [r3, #40]	@ 0x28
	hspi1.Init.CRCPolynomial = 10;
 8001f16:	4b06      	ldr	r3, [pc, #24]	@ (8001f30 <MX_SPI1_Init+0x64>)
 8001f18:	220a      	movs	r2, #10
 8001f1a:	62da      	str	r2, [r3, #44]	@ 0x2c
	if (HAL_SPI_Init(&hspi1) != HAL_OK) {
 8001f1c:	4804      	ldr	r0, [pc, #16]	@ (8001f30 <MX_SPI1_Init+0x64>)
 8001f1e:	f003 fd01 	bl	8005924 <HAL_SPI_Init>
 8001f22:	4603      	mov	r3, r0
 8001f24:	2b00      	cmp	r3, #0
 8001f26:	d001      	beq.n	8001f2c <MX_SPI1_Init+0x60>
		Error_Handler();
 8001f28:	f000 f96e 	bl	8002208 <Error_Handler>
	}
	/* USER CODE BEGIN SPI1_Init 2 */

	/* USER CODE END SPI1_Init 2 */

}
 8001f2c:	bf00      	nop
 8001f2e:	bd80      	pop	{r7, pc}
 8001f30:	200001d0 	.word	0x200001d0
 8001f34:	40013000 	.word	0x40013000

08001f38 <MX_TIM1_Init>:
/**
 * @brief TIM1 Initialization Function
 * @param None
 * @retval None
 */
static void MX_TIM1_Init(void) {
 8001f38:	b580      	push	{r7, lr}
 8001f3a:	b086      	sub	sp, #24
 8001f3c:	af00      	add	r7, sp, #0

	/* USER CODE BEGIN TIM1_Init 0 */

	/* USER CODE END TIM1_Init 0 */

	TIM_ClockConfigTypeDef sClockSourceConfig = { 0 };
 8001f3e:	f107 0308 	add.w	r3, r7, #8
 8001f42:	2200      	movs	r2, #0
 8001f44:	601a      	str	r2, [r3, #0]
 8001f46:	605a      	str	r2, [r3, #4]
 8001f48:	609a      	str	r2, [r3, #8]
 8001f4a:	60da      	str	r2, [r3, #12]
	TIM_MasterConfigTypeDef sMasterConfig = { 0 };
 8001f4c:	463b      	mov	r3, r7
 8001f4e:	2200      	movs	r2, #0
 8001f50:	601a      	str	r2, [r3, #0]
 8001f52:	605a      	str	r2, [r3, #4]

	/* USER CODE BEGIN TIM1_Init 1 */

	/* USER CODE END TIM1_Init 1 */
	htim1.Instance = TIM1;
 8001f54:	4b1f      	ldr	r3, [pc, #124]	@ (8001fd4 <MX_TIM1_Init+0x9c>)
 8001f56:	4a20      	ldr	r2, [pc, #128]	@ (8001fd8 <MX_TIM1_Init+0xa0>)
 8001f58:	601a      	str	r2, [r3, #0]
	htim1.Init.Prescaler = 15999;
 8001f5a:	4b1e      	ldr	r3, [pc, #120]	@ (8001fd4 <MX_TIM1_Init+0x9c>)
 8001f5c:	f643 627f 	movw	r2, #15999	@ 0x3e7f
 8001f60:	605a      	str	r2, [r3, #4]
	htim1.Init.CounterMode = TIM_COUNTERMODE_UP;
 8001f62:	4b1c      	ldr	r3, [pc, #112]	@ (8001fd4 <MX_TIM1_Init+0x9c>)
 8001f64:	2200      	movs	r2, #0
 8001f66:	609a      	str	r2, [r3, #8]
	htim1.Init.Period = 4999;
 8001f68:	4b1a      	ldr	r3, [pc, #104]	@ (8001fd4 <MX_TIM1_Init+0x9c>)
 8001f6a:	f241 3287 	movw	r2, #4999	@ 0x1387
 8001f6e:	60da      	str	r2, [r3, #12]
	htim1.Init.ClockDivision = TIM_CLOCKDIVISION_DIV1;
 8001f70:	4b18      	ldr	r3, [pc, #96]	@ (8001fd4 <MX_TIM1_Init+0x9c>)
 8001f72:	2200      	movs	r2, #0
 8001f74:	611a      	str	r2, [r3, #16]
	htim1.Init.RepetitionCounter = 0;
 8001f76:	4b17      	ldr	r3, [pc, #92]	@ (8001fd4 <MX_TIM1_Init+0x9c>)
 8001f78:	2200      	movs	r2, #0
 8001f7a:	615a      	str	r2, [r3, #20]
	htim1.Init.AutoReloadPreload = TIM_AUTORELOAD_PRELOAD_DISABLE;
 8001f7c:	4b15      	ldr	r3, [pc, #84]	@ (8001fd4 <MX_TIM1_Init+0x9c>)
 8001f7e:	2200      	movs	r2, #0
 8001f80:	619a      	str	r2, [r3, #24]
	if (HAL_TIM_Base_Init(&htim1) != HAL_OK) {
 8001f82:	4814      	ldr	r0, [pc, #80]	@ (8001fd4 <MX_TIM1_Init+0x9c>)
 8001f84:	f004 f8f9 	bl	800617a <HAL_TIM_Base_Init>
 8001f88:	4603      	mov	r3, r0
 8001f8a:	2b00      	cmp	r3, #0
 8001f8c:	d001      	beq.n	8001f92 <MX_TIM1_Init+0x5a>
		Error_Handler();
 8001f8e:	f000 f93b 	bl	8002208 <Error_Handler>
	}
	sClockSourceConfig.ClockSource = TIM_CLOCKSOURCE_INTERNAL;
 8001f92:	f44f 5380 	mov.w	r3, #4096	@ 0x1000
 8001f96:	60bb      	str	r3, [r7, #8]
	if (HAL_TIM_ConfigClockSource(&htim1, &sClockSourceConfig) != HAL_OK) {
 8001f98:	f107 0308 	add.w	r3, r7, #8
 8001f9c:	4619      	mov	r1, r3
 8001f9e:	480d      	ldr	r0, [pc, #52]	@ (8001fd4 <MX_TIM1_Init+0x9c>)
 8001fa0:	f004 f984 	bl	80062ac <HAL_TIM_ConfigClockSource>
 8001fa4:	4603      	mov	r3, r0
 8001fa6:	2b00      	cmp	r3, #0
 8001fa8:	d001      	beq.n	8001fae <MX_TIM1_Init+0x76>
		Error_Handler();
 8001faa:	f000 f92d 	bl	8002208 <Error_Handler>
	}
	sMasterConfig.MasterOutputTrigger = TIM_TRGO_RESET;
 8001fae:	2300      	movs	r3, #0
 8001fb0:	603b      	str	r3, [r7, #0]
	sMasterConfig.MasterSlaveMode = TIM_MASTERSLAVEMODE_DISABLE;
 8001fb2:	2300      	movs	r3, #0
 8001fb4:	607b      	str	r3, [r7, #4]
	if (HAL_TIMEx_MasterConfigSynchronization(&htim1, &sMasterConfig)
 8001fb6:	463b      	mov	r3, r7
 8001fb8:	4619      	mov	r1, r3
 8001fba:	4806      	ldr	r0, [pc, #24]	@ (8001fd4 <MX_TIM1_Init+0x9c>)
 8001fbc:	f004 fb42 	bl	8006644 <HAL_TIMEx_MasterConfigSynchronization>
 8001fc0:	4603      	mov	r3, r0
 8001fc2:	2b00      	cmp	r3, #0
 8001fc4:	d001      	beq.n	8001fca <MX_TIM1_Init+0x92>
			!= HAL_OK) {
		Error_Handler();
 8001fc6:	f000 f91f 	bl	8002208 <Error_Handler>
	}
	/* USER CODE BEGIN TIM1_Init 2 */

	/* USER CODE END TIM1_Init 2 */

}
 8001fca:	bf00      	nop
 8001fcc:	3718      	adds	r7, #24
 8001fce:	46bd      	mov	sp, r7
 8001fd0:	bd80      	pop	{r7, pc}
 8001fd2:	bf00      	nop
 8001fd4:	20000228 	.word	0x20000228
 8001fd8:	40012c00 	.word	0x40012c00

08001fdc <MX_USART1_UART_Init>:
/**
 * @brief USART1 Initialization Function
 * @param None
 * @retval None
 */
static void MX_USART1_UART_Init(void) {
 8001fdc:	b580      	push	{r7, lr}
 8001fde:	af00      	add	r7, sp, #0
	/* USER CODE END USART1_Init 0 */

	/* USER CODE BEGIN USART1_Init 1 */

	/* USER CODE END USART1_Init 1 */
	huart1.Instance = USART1;
 8001fe0:	4b11      	ldr	r3, [pc, #68]	@ (8002028 <MX_USART1_UART_Init+0x4c>)
 8001fe2:	4a12      	ldr	r2, [pc, #72]	@ (800202c <MX_USART1_UART_Init+0x50>)
 8001fe4:	601a      	str	r2, [r3, #0]
	huart1.Init.BaudRate = 115200;
 8001fe6:	4b10      	ldr	r3, [pc, #64]	@ (8002028 <MX_USART1_UART_Init+0x4c>)
 8001fe8:	f44f 32e1 	mov.w	r2, #115200	@ 0x1c200
 8001fec:	605a      	str	r2, [r3, #4]
	huart1.Init.WordLength = UART_WORDLENGTH_8B;
 8001fee:	4b0e      	ldr	r3, [pc, #56]	@ (8002028 <MX_USART1_UART_Init+0x4c>)
 8001ff0:	2200      	movs	r2, #0
 8001ff2:	609a      	str	r2, [r3, #8]
	huart1.Init.StopBits = UART_STOPBITS_1;
 8001ff4:	4b0c      	ldr	r3, [pc, #48]	@ (8002028 <MX_USART1_UART_Init+0x4c>)
 8001ff6:	2200      	movs	r2, #0
 8001ff8:	60da      	str	r2, [r3, #12]
	huart1.Init.Parity = UART_PARITY_NONE;
 8001ffa:	4b0b      	ldr	r3, [pc, #44]	@ (8002028 <MX_USART1_UART_Init+0x4c>)
 8001ffc:	2200      	movs	r2, #0
 8001ffe:	611a      	str	r2, [r3, #16]
	huart1.Init.Mode = UART_MODE_TX_RX;
 8002000:	4b09      	ldr	r3, [pc, #36]	@ (8002028 <MX_USART1_UART_Init+0x4c>)
 8002002:	220c      	movs	r2, #12
 8002004:	615a      	str	r2, [r3, #20]
	huart1.Init.HwFlowCtl = UART_HWCONTROL_NONE;
 8002006:	4b08      	ldr	r3, [pc, #32]	@ (8002028 <MX_USART1_UART_Init+0x4c>)
 8002008:	2200      	movs	r2, #0
 800200a:	619a      	str	r2, [r3, #24]
	huart1.Init.OverSampling = UART_OVERSAMPLING_16;
 800200c:	4b06      	ldr	r3, [pc, #24]	@ (8002028 <MX_USART1_UART_Init+0x4c>)
 800200e:	2200      	movs	r2, #0
 8002010:	61da      	str	r2, [r3, #28]
	if (HAL_UART_Init(&huart1) != HAL_OK) {
 8002012:	4805      	ldr	r0, [pc, #20]	@ (8002028 <MX_USART1_UART_Init+0x4c>)
 8002014:	f004 fb74 	bl	8006700 <HAL_UART_Init>
 8002018:	4603      	mov	r3, r0
 800201a:	2b00      	cmp	r3, #0
 800201c:	d001      	beq.n	8002022 <MX_USART1_UART_Init+0x46>
		Error_Handler();
 800201e:	f000 f8f3 	bl	8002208 <Error_Handler>
	}
	/* USER CODE BEGIN USART1_Init 2 */

	/* USER CODE END USART1_Init 2 */

}
 8002022:	bf00      	nop
 8002024:	bd80      	pop	{r7, pc}
 8002026:	bf00      	nop
 8002028:	20000270 	.word	0x20000270
 800202c:	40013800 	.word	0x40013800

08002030 <MX_GPIO_Init>:
/**
 * @brief GPIO Initialization Function
 * @param None
 * @retval None
 */
static void MX_GPIO_Init(void) {
 8002030:	b580      	push	{r7, lr}
 8002032:	b088      	sub	sp, #32
 8002034:	af00      	add	r7, sp, #0
	GPIO_InitTypeDef GPIO_InitStruct = { 0 };
 8002036:	f107 0310 	add.w	r3, r7, #16
 800203a:	2200      	movs	r2, #0
 800203c:	601a      	str	r2, [r3, #0]
 800203e:	605a      	str	r2, [r3, #4]
 8002040:	609a      	str	r2, [r3, #8]
 8002042:	60da      	str	r2, [r3, #12]
	/* USER CODE BEGIN MX_GPIO_Init_1 */

	/* USER CODE END MX_GPIO_Init_1 */

	/* GPIO Ports Clock Enable */
	__HAL_RCC_GPIOC_CLK_ENABLE();
 8002044:	4b41      	ldr	r3, [pc, #260]	@ (800214c <MX_GPIO_Init+0x11c>)
 8002046:	699b      	ldr	r3, [r3, #24]
 8002048:	4a40      	ldr	r2, [pc, #256]	@ (800214c <MX_GPIO_Init+0x11c>)
 800204a:	f043 0310 	orr.w	r3, r3, #16
 800204e:	6193      	str	r3, [r2, #24]
 8002050:	4b3e      	ldr	r3, [pc, #248]	@ (800214c <MX_GPIO_Init+0x11c>)
 8002052:	699b      	ldr	r3, [r3, #24]
 8002054:	f003 0310 	and.w	r3, r3, #16
 8002058:	60fb      	str	r3, [r7, #12]
 800205a:	68fb      	ldr	r3, [r7, #12]
	__HAL_RCC_GPIOD_CLK_ENABLE();
 800205c:	4b3b      	ldr	r3, [pc, #236]	@ (800214c <MX_GPIO_Init+0x11c>)
 800205e:	699b      	ldr	r3, [r3, #24]
 8002060:	4a3a      	ldr	r2, [pc, #232]	@ (800214c <MX_GPIO_Init+0x11c>)
 8002062:	f043 0320 	orr.w	r3, r3, #32
 8002066:	6193      	str	r3, [r2, #24]
 8002068:	4b38      	ldr	r3, [pc, #224]	@ (800214c <MX_GPIO_Init+0x11c>)
 800206a:	699b      	ldr	r3, [r3, #24]
 800206c:	f003 0320 	and.w	r3, r3, #32
 8002070:	60bb      	str	r3, [r7, #8]
 8002072:	68bb      	ldr	r3, [r7, #8]
	__HAL_RCC_GPIOA_CLK_ENABLE();
 8002074:	4b35      	ldr	r3, [pc, #212]	@ (800214c <MX_GPIO_Init+0x11c>)
 8002076:	699b      	ldr	r3, [r3, #24]
 8002078:	4a34      	ldr	r2, [pc, #208]	@ (800214c <MX_GPIO_Init+0x11c>)
 800207a:	f043 0304 	orr.w	r3, r3, #4
 800207e:	6193      	str	r3, [r2, #24]
 8002080:	4b32      	ldr	r3, [pc, #200]	@ (800214c <MX_GPIO_Init+0x11c>)
 8002082:	699b      	ldr	r3, [r3, #24]
 8002084:	f003 0304 	and.w	r3, r3, #4
 8002088:	607b      	str	r3, [r7, #4]
 800208a:	687b      	ldr	r3, [r7, #4]
	__HAL_RCC_GPIOB_CLK_ENABLE();
 800208c:	4b2f      	ldr	r3, [pc, #188]	@ (800214c <MX_GPIO_Init+0x11c>)
 800208e:	699b      	ldr	r3, [r3, #24]
 8002090:	4a2e      	ldr	r2, [pc, #184]	@ (800214c <MX_GPIO_Init+0x11c>)
 8002092:	f043 0308 	orr.w	r3, r3, #8
 8002096:	6193      	str	r3, [r2, #24]
 8002098:	4b2c      	ldr	r3, [pc, #176]	@ (800214c <MX_GPIO_Init+0x11c>)
 800209a:	699b      	ldr	r3, [r3, #24]
 800209c:	f003 0308 	and.w	r3, r3, #8
 80020a0:	603b      	str	r3, [r7, #0]
 80020a2:	683b      	ldr	r3, [r7, #0]

	/*Configure GPIO pin Output Level */
	HAL_GPIO_WritePin(GPIOC, GPIO_PIN_13, GPIO_PIN_SET);
 80020a4:	2201      	movs	r2, #1
 80020a6:	f44f 5100 	mov.w	r1, #8192	@ 0x2000
 80020aa:	4829      	ldr	r0, [pc, #164]	@ (8002150 <MX_GPIO_Init+0x120>)
 80020ac:	f001 fd44 	bl	8003b38 <HAL_GPIO_WritePin>

	/*Configure GPIO pin Output Level */
	HAL_GPIO_WritePin(GPIOA, CSN_Pin | CE_Pin, GPIO_PIN_RESET);
 80020b0:	2200      	movs	r2, #0
 80020b2:	2118      	movs	r1, #24
 80020b4:	4827      	ldr	r0, [pc, #156]	@ (8002154 <MX_GPIO_Init+0x124>)
 80020b6:	f001 fd3f 	bl	8003b38 <HAL_GPIO_WritePin>

	/*Configure GPIO pin : PC13 */
	GPIO_InitStruct.Pin = GPIO_PIN_13;
 80020ba:	f44f 5300 	mov.w	r3, #8192	@ 0x2000
 80020be:	613b      	str	r3, [r7, #16]
	GPIO_InitStruct.Mode = GPIO_MODE_OUTPUT_PP;
 80020c0:	2301      	movs	r3, #1
 80020c2:	617b      	str	r3, [r7, #20]
	GPIO_InitStruct.Pull = GPIO_NOPULL;
 80020c4:	2300      	movs	r3, #0
 80020c6:	61bb      	str	r3, [r7, #24]
	GPIO_InitStruct.Speed = GPIO_SPEED_FREQ_LOW;
 80020c8:	2302      	movs	r3, #2
 80020ca:	61fb      	str	r3, [r7, #28]
	HAL_GPIO_Init(GPIOC, &GPIO_InitStruct);
 80020cc:	f107 0310 	add.w	r3, r7, #16
 80020d0:	4619      	mov	r1, r3
 80020d2:	481f      	ldr	r0, [pc, #124]	@ (8002150 <MX_GPIO_Init+0x120>)
 80020d4:	f001 fbac 	bl	8003830 <HAL_GPIO_Init>

	/*Configure GPIO pin : PA0 */
	GPIO_InitStruct.Pin = GPIO_PIN_0;
 80020d8:	2301      	movs	r3, #1
 80020da:	613b      	str	r3, [r7, #16]
	GPIO_InitStruct.Mode = GPIO_MODE_IT_FALLING;
 80020dc:	4b1e      	ldr	r3, [pc, #120]	@ (8002158 <MX_GPIO_Init+0x128>)
 80020de:	617b      	str	r3, [r7, #20]
	GPIO_InitStruct.Pull = GPIO_NOPULL;
 80020e0:	2300      	movs	r3, #0
 80020e2:	61bb      	str	r3, [r7, #24]
	HAL_GPIO_Init(GPIOA, &GPIO_InitStruct);
 80020e4:	f107 0310 	add.w	r3, r7, #16
 80020e8:	4619      	mov	r1, r3
 80020ea:	481a      	ldr	r0, [pc, #104]	@ (8002154 <MX_GPIO_Init+0x124>)
 80020ec:	f001 fba0 	bl	8003830 <HAL_GPIO_Init>

	/*Configure GPIO pins : CSN_Pin CE_Pin */
	GPIO_InitStruct.Pin = CSN_Pin | CE_Pin;
 80020f0:	2318      	movs	r3, #24
 80020f2:	613b      	str	r3, [r7, #16]
	GPIO_InitStruct.Mode = GPIO_MODE_OUTPUT_PP;
 80020f4:	2301      	movs	r3, #1
 80020f6:	617b      	str	r3, [r7, #20]
	GPIO_InitStruct.Pull = GPIO_NOPULL;
 80020f8:	2300      	movs	r3, #0
 80020fa:	61bb      	str	r3, [r7, #24]
	GPIO_InitStruct.Speed = GPIO_SPEED_FREQ_LOW;
 80020fc:	2302      	movs	r3, #2
 80020fe:	61fb      	str	r3, [r7, #28]
	HAL_GPIO_Init(GPIOA, &GPIO_InitStruct);
 8002100:	f107 0310 	add.w	r3, r7, #16
 8002104:	4619      	mov	r1, r3
 8002106:	4813      	ldr	r0, [pc, #76]	@ (8002154 <MX_GPIO_Init+0x124>)
 8002108:	f001 fb92 	bl	8003830 <HAL_GPIO_Init>

	/*Configure GPIO pin : BOTON_Pin */
	GPIO_InitStruct.Pin = BOTON_Pin;
 800210c:	2310      	movs	r3, #16
 800210e:	613b      	str	r3, [r7, #16]
	GPIO_InitStruct.Mode = GPIO_MODE_IT_RISING;
 8002110:	4b12      	ldr	r3, [pc, #72]	@ (800215c <MX_GPIO_Init+0x12c>)
 8002112:	617b      	str	r3, [r7, #20]
	GPIO_InitStruct.Pull = GPIO_NOPULL;
 8002114:	2300      	movs	r3, #0
 8002116:	61bb      	str	r3, [r7, #24]
	HAL_GPIO_Init(BOTON_GPIO_Port, &GPIO_InitStruct);
 8002118:	f107 0310 	add.w	r3, r7, #16
 800211c:	4619      	mov	r1, r3
 800211e:	4810      	ldr	r0, [pc, #64]	@ (8002160 <MX_GPIO_Init+0x130>)
 8002120:	f001 fb86 	bl	8003830 <HAL_GPIO_Init>

	/* EXTI interrupt init*/
	HAL_NVIC_SetPriority(EXTI0_IRQn, 0, 0);
 8002124:	2200      	movs	r2, #0
 8002126:	2100      	movs	r1, #0
 8002128:	2006      	movs	r0, #6
 800212a:	f001 fa98 	bl	800365e <HAL_NVIC_SetPriority>
	HAL_NVIC_EnableIRQ(EXTI0_IRQn);
 800212e:	2006      	movs	r0, #6
 8002130:	f001 fab1 	bl	8003696 <HAL_NVIC_EnableIRQ>

	HAL_NVIC_SetPriority(EXTI4_IRQn, 0, 0);
 8002134:	2200      	movs	r2, #0
 8002136:	2100      	movs	r1, #0
 8002138:	200a      	movs	r0, #10
 800213a:	f001 fa90 	bl	800365e <HAL_NVIC_SetPriority>
	HAL_NVIC_EnableIRQ(EXTI4_IRQn);
 800213e:	200a      	movs	r0, #10
 8002140:	f001 faa9 	bl	8003696 <HAL_NVIC_EnableIRQ>

	/* USER CODE BEGIN MX_GPIO_Init_2 */

	/* USER CODE END MX_GPIO_Init_2 */
}
 8002144:	bf00      	nop
 8002146:	3720      	adds	r7, #32
 8002148:	46bd      	mov	sp, r7
 800214a:	bd80      	pop	{r7, pc}
 800214c:	40021000 	.word	0x40021000
 8002150:	40011000 	.word	0x40011000
 8002154:	40010800 	.word	0x40010800
 8002158:	10210000 	.word	0x10210000
 800215c:	10110000 	.word	0x10110000
 8002160:	40010c00 	.word	0x40010c00

08002164 <HAL_GPIO_EXTI_Callback>:

/* USER CODE BEGIN 4 */
void HAL_GPIO_EXTI_Callback(uint16_t GPIO_Pin) {
 8002164:	b480      	push	{r7}
 8002166:	b083      	sub	sp, #12
 8002168:	af00      	add	r7, sp, #0
 800216a:	4603      	mov	r3, r0
 800216c:	80fb      	strh	r3, [r7, #6]
	if (GPIO_Pin == GPIO_PIN_0) {
 800216e:	88fb      	ldrh	r3, [r7, #6]
 8002170:	2b01      	cmp	r3, #1
 8002172:	d102      	bne.n	800217a <HAL_GPIO_EXTI_Callback+0x16>
		nrf_irq = 1;
 8002174:	4b03      	ldr	r3, [pc, #12]	@ (8002184 <HAL_GPIO_EXTI_Callback+0x20>)
 8002176:	2201      	movs	r2, #1
 8002178:	701a      	strb	r2, [r3, #0]
	}
}
 800217a:	bf00      	nop
 800217c:	370c      	adds	r7, #12
 800217e:	46bd      	mov	sp, r7
 8002180:	bc80      	pop	{r7}
 8002182:	4770      	bx	lr
 8002184:	200002fd 	.word	0x200002fd

08002188 <HAL_UART_RxCpltCallback>:

void HAL_UART_RxCpltCallback(UART_HandleTypeDef * huart){
 8002188:	b580      	push	{r7, lr}
 800218a:	b082      	sub	sp, #8
 800218c:	af00      	add	r7, sp, #0
 800218e:	6078      	str	r0, [r7, #4]
	if(UARTbuffer == 'm'){
 8002190:	4b17      	ldr	r3, [pc, #92]	@ (80021f0 <HAL_UART_RxCpltCallback+0x68>)
 8002192:	781b      	ldrb	r3, [r3, #0]
 8002194:	2b6d      	cmp	r3, #109	@ 0x6d
 8002196:	d102      	bne.n	800219e <HAL_UART_RxCpltCallback+0x16>
		flag_m = 1;
 8002198:	4b16      	ldr	r3, [pc, #88]	@ (80021f4 <HAL_UART_RxCpltCallback+0x6c>)
 800219a:	2201      	movs	r2, #1
 800219c:	701a      	strb	r2, [r3, #0]
	}
	if(UARTbuffer == 'a'){
 800219e:	4b14      	ldr	r3, [pc, #80]	@ (80021f0 <HAL_UART_RxCpltCallback+0x68>)
 80021a0:	781b      	ldrb	r3, [r3, #0]
 80021a2:	2b61      	cmp	r3, #97	@ 0x61
 80021a4:	d102      	bne.n	80021ac <HAL_UART_RxCpltCallback+0x24>
		flag_a = 1;
 80021a6:	4b14      	ldr	r3, [pc, #80]	@ (80021f8 <HAL_UART_RxCpltCallback+0x70>)
 80021a8:	2201      	movs	r2, #1
 80021aa:	701a      	strb	r2, [r3, #0]
	}
	if(UARTbuffer == '+'){
 80021ac:	4b10      	ldr	r3, [pc, #64]	@ (80021f0 <HAL_UART_RxCpltCallback+0x68>)
 80021ae:	781b      	ldrb	r3, [r3, #0]
 80021b0:	2b2b      	cmp	r3, #43	@ 0x2b
 80021b2:	d102      	bne.n	80021ba <HAL_UART_RxCpltCallback+0x32>
		flag_mas = 1;
 80021b4:	4b11      	ldr	r3, [pc, #68]	@ (80021fc <HAL_UART_RxCpltCallback+0x74>)
 80021b6:	2201      	movs	r2, #1
 80021b8:	701a      	strb	r2, [r3, #0]
	}
	if(UARTbuffer == '-'){
 80021ba:	4b0d      	ldr	r3, [pc, #52]	@ (80021f0 <HAL_UART_RxCpltCallback+0x68>)
 80021bc:	781b      	ldrb	r3, [r3, #0]
 80021be:	2b2d      	cmp	r3, #45	@ 0x2d
 80021c0:	d102      	bne.n	80021c8 <HAL_UART_RxCpltCallback+0x40>
		flag_menos = 1;
 80021c2:	4b0f      	ldr	r3, [pc, #60]	@ (8002200 <HAL_UART_RxCpltCallback+0x78>)
 80021c4:	2201      	movs	r2, #1
 80021c6:	701a      	strb	r2, [r3, #0]
	}
	if(UARTbuffer >= '0' && UARTbuffer < '7'){
 80021c8:	4b09      	ldr	r3, [pc, #36]	@ (80021f0 <HAL_UART_RxCpltCallback+0x68>)
 80021ca:	781b      	ldrb	r3, [r3, #0]
 80021cc:	2b2f      	cmp	r3, #47	@ 0x2f
 80021ce:	d906      	bls.n	80021de <HAL_UART_RxCpltCallback+0x56>
 80021d0:	4b07      	ldr	r3, [pc, #28]	@ (80021f0 <HAL_UART_RxCpltCallback+0x68>)
 80021d2:	781b      	ldrb	r3, [r3, #0]
 80021d4:	2b36      	cmp	r3, #54	@ 0x36
 80021d6:	d802      	bhi.n	80021de <HAL_UART_RxCpltCallback+0x56>
		flag_select_servo = 1;
 80021d8:	4b0a      	ldr	r3, [pc, #40]	@ (8002204 <HAL_UART_RxCpltCallback+0x7c>)
 80021da:	2201      	movs	r2, #1
 80021dc:	701a      	strb	r2, [r3, #0]
	}
	HAL_UART_Receive_IT(huart, &UARTbuffer, 1);
 80021de:	2201      	movs	r2, #1
 80021e0:	4903      	ldr	r1, [pc, #12]	@ (80021f0 <HAL_UART_RxCpltCallback+0x68>)
 80021e2:	6878      	ldr	r0, [r7, #4]
 80021e4:	f004 fb67 	bl	80068b6 <HAL_UART_Receive_IT>
}
 80021e8:	bf00      	nop
 80021ea:	3708      	adds	r7, #8
 80021ec:	46bd      	mov	sp, r7
 80021ee:	bd80      	pop	{r7, pc}
 80021f0:	200002fc 	.word	0x200002fc
 80021f4:	200002fe 	.word	0x200002fe
 80021f8:	200002ff 	.word	0x200002ff
 80021fc:	20000300 	.word	0x20000300
 8002200:	20000301 	.word	0x20000301
 8002204:	20000302 	.word	0x20000302

08002208 <Error_Handler>:

/**
 * @brief  This function is executed in case of error occurrence.
 * @retval None
 */
void Error_Handler(void) {
 8002208:	b480      	push	{r7}
 800220a:	af00      	add	r7, sp, #0
  \details Disables IRQ interrupts by setting the I-bit in the CPSR.
           Can only be executed in Privileged modes.
 */
__STATIC_FORCEINLINE void __disable_irq(void)
{
  __ASM volatile ("cpsid i" : : : "memory");
 800220c:	b672      	cpsid	i
}
 800220e:	bf00      	nop
	/* USER CODE BEGIN Error_Handler_Debug */
	/* User can add his own implementation to report the HAL error return state */
	__disable_irq();
	while (1) {
 8002210:	bf00      	nop
 8002212:	e7fd      	b.n	8002210 <Error_Handler+0x8>

08002214 <PCA9685_SetBit>:
 8002214:	b580      	push	{r7, lr}
 8002216:	b088      	sub	sp, #32
 8002218:	af04      	add	r7, sp, #16
 800221a:	4603      	mov	r3, r0
 800221c:	71fb      	strb	r3, [r7, #7]
 800221e:	460b      	mov	r3, r1
 8002220:	71bb      	strb	r3, [r7, #6]
 8002222:	4613      	mov	r3, r2
 8002224:	717b      	strb	r3, [r7, #5]
 8002226:	797b      	ldrb	r3, [r7, #5]
 8002228:	2b00      	cmp	r3, #0
 800222a:	d001      	beq.n	8002230 <PCA9685_SetBit+0x1c>
 800222c:	2301      	movs	r3, #1
 800222e:	717b      	strb	r3, [r7, #5]
 8002230:	4b24      	ldr	r3, [pc, #144]	@ (80022c4 <PCA9685_SetBit+0xb0>)
 8002232:	6818      	ldr	r0, [r3, #0]
 8002234:	79fb      	ldrb	r3, [r7, #7]
 8002236:	b29a      	uxth	r2, r3
 8002238:	230a      	movs	r3, #10
 800223a:	9302      	str	r3, [sp, #8]
 800223c:	2301      	movs	r3, #1
 800223e:	9301      	str	r3, [sp, #4]
 8002240:	f107 030f 	add.w	r3, r7, #15
 8002244:	9300      	str	r3, [sp, #0]
 8002246:	2301      	movs	r3, #1
 8002248:	2180      	movs	r1, #128	@ 0x80
 800224a:	f001 fffb 	bl	8004244 <HAL_I2C_Mem_Read>
 800224e:	4603      	mov	r3, r0
 8002250:	2b00      	cmp	r3, #0
 8002252:	d001      	beq.n	8002258 <PCA9685_SetBit+0x44>
 8002254:	2301      	movs	r3, #1
 8002256:	e031      	b.n	80022bc <PCA9685_SetBit+0xa8>
 8002258:	79bb      	ldrb	r3, [r7, #6]
 800225a:	2201      	movs	r2, #1
 800225c:	fa02 f303 	lsl.w	r3, r2, r3
 8002260:	b25b      	sxtb	r3, r3
 8002262:	f063 037f 	orn	r3, r3, #127	@ 0x7f
 8002266:	b25b      	sxtb	r3, r3
 8002268:	43db      	mvns	r3, r3
 800226a:	b25a      	sxtb	r2, r3
 800226c:	7bfb      	ldrb	r3, [r7, #15]
 800226e:	b25b      	sxtb	r3, r3
 8002270:	4013      	ands	r3, r2
 8002272:	b25b      	sxtb	r3, r3
 8002274:	b2db      	uxtb	r3, r3
 8002276:	73fb      	strb	r3, [r7, #15]
 8002278:	797b      	ldrb	r3, [r7, #5]
 800227a:	f003 0201 	and.w	r2, r3, #1
 800227e:	79bb      	ldrb	r3, [r7, #6]
 8002280:	fa02 f303 	lsl.w	r3, r2, r3
 8002284:	b25a      	sxtb	r2, r3
 8002286:	7bfb      	ldrb	r3, [r7, #15]
 8002288:	b25b      	sxtb	r3, r3
 800228a:	4313      	orrs	r3, r2
 800228c:	b25b      	sxtb	r3, r3
 800228e:	b2db      	uxtb	r3, r3
 8002290:	73fb      	strb	r3, [r7, #15]
 8002292:	4b0c      	ldr	r3, [pc, #48]	@ (80022c4 <PCA9685_SetBit+0xb0>)
 8002294:	6818      	ldr	r0, [r3, #0]
 8002296:	79fb      	ldrb	r3, [r7, #7]
 8002298:	b29a      	uxth	r2, r3
 800229a:	230a      	movs	r3, #10
 800229c:	9302      	str	r3, [sp, #8]
 800229e:	2301      	movs	r3, #1
 80022a0:	9301      	str	r3, [sp, #4]
 80022a2:	f107 030f 	add.w	r3, r7, #15
 80022a6:	9300      	str	r3, [sp, #0]
 80022a8:	2301      	movs	r3, #1
 80022aa:	2180      	movs	r1, #128	@ 0x80
 80022ac:	f001 fed0 	bl	8004050 <HAL_I2C_Mem_Write>
 80022b0:	4603      	mov	r3, r0
 80022b2:	2b00      	cmp	r3, #0
 80022b4:	d001      	beq.n	80022ba <PCA9685_SetBit+0xa6>
 80022b6:	2301      	movs	r3, #1
 80022b8:	e000      	b.n	80022bc <PCA9685_SetBit+0xa8>
 80022ba:	2300      	movs	r3, #0
 80022bc:	4618      	mov	r0, r3
 80022be:	3710      	adds	r7, #16
 80022c0:	46bd      	mov	sp, r7
 80022c2:	bd80      	pop	{r7, pc}
 80022c4:	20000304 	.word	0x20000304

080022c8 <PCA9685_SoftwareReset>:
 80022c8:	b580      	push	{r7, lr}
 80022ca:	b084      	sub	sp, #16
 80022cc:	af02      	add	r7, sp, #8
 80022ce:	2306      	movs	r3, #6
 80022d0:	71fb      	strb	r3, [r7, #7]
 80022d2:	4b09      	ldr	r3, [pc, #36]	@ (80022f8 <PCA9685_SoftwareReset+0x30>)
 80022d4:	6818      	ldr	r0, [r3, #0]
 80022d6:	1dfa      	adds	r2, r7, #7
 80022d8:	230a      	movs	r3, #10
 80022da:	9300      	str	r3, [sp, #0]
 80022dc:	2301      	movs	r3, #1
 80022de:	2100      	movs	r1, #0
 80022e0:	f001 fdb8 	bl	8003e54 <HAL_I2C_Master_Transmit>
 80022e4:	4603      	mov	r3, r0
 80022e6:	2b00      	cmp	r3, #0
 80022e8:	d101      	bne.n	80022ee <PCA9685_SoftwareReset+0x26>
 80022ea:	2300      	movs	r3, #0
 80022ec:	e000      	b.n	80022f0 <PCA9685_SoftwareReset+0x28>
 80022ee:	2301      	movs	r3, #1
 80022f0:	4618      	mov	r0, r3
 80022f2:	3708      	adds	r7, #8
 80022f4:	46bd      	mov	sp, r7
 80022f6:	bd80      	pop	{r7, pc}
 80022f8:	20000304 	.word	0x20000304

080022fc <PCA9685_SleepMode>:
 80022fc:	b580      	push	{r7, lr}
 80022fe:	b082      	sub	sp, #8
 8002300:	af00      	add	r7, sp, #0
 8002302:	4603      	mov	r3, r0
 8002304:	71fb      	strb	r3, [r7, #7]
 8002306:	79fb      	ldrb	r3, [r7, #7]
 8002308:	461a      	mov	r2, r3
 800230a:	2104      	movs	r1, #4
 800230c:	2000      	movs	r0, #0
 800230e:	f7ff ff81 	bl	8002214 <PCA9685_SetBit>
 8002312:	4603      	mov	r3, r0
 8002314:	4618      	mov	r0, r3
 8002316:	3708      	adds	r7, #8
 8002318:	46bd      	mov	sp, r7
 800231a:	bd80      	pop	{r7, pc}

0800231c <PCA9685_RestartMode>:
 800231c:	b580      	push	{r7, lr}
 800231e:	b082      	sub	sp, #8
 8002320:	af00      	add	r7, sp, #0
 8002322:	4603      	mov	r3, r0
 8002324:	71fb      	strb	r3, [r7, #7]
 8002326:	79fb      	ldrb	r3, [r7, #7]
 8002328:	461a      	mov	r2, r3
 800232a:	2107      	movs	r1, #7
 800232c:	2000      	movs	r0, #0
 800232e:	f7ff ff71 	bl	8002214 <PCA9685_SetBit>
 8002332:	4603      	mov	r3, r0
 8002334:	4618      	mov	r0, r3
 8002336:	3708      	adds	r7, #8
 8002338:	46bd      	mov	sp, r7
 800233a:	bd80      	pop	{r7, pc}

0800233c <PCA9685_AutoIncrement>:
 800233c:	b580      	push	{r7, lr}
 800233e:	b082      	sub	sp, #8
 8002340:	af00      	add	r7, sp, #0
 8002342:	4603      	mov	r3, r0
 8002344:	71fb      	strb	r3, [r7, #7]
 8002346:	79fb      	ldrb	r3, [r7, #7]
 8002348:	461a      	mov	r2, r3
 800234a:	2105      	movs	r1, #5
 800234c:	2000      	movs	r0, #0
 800234e:	f7ff ff61 	bl	8002214 <PCA9685_SetBit>
 8002352:	4603      	mov	r3, r0
 8002354:	4618      	mov	r0, r3
 8002356:	3708      	adds	r7, #8
 8002358:	46bd      	mov	sp, r7
 800235a:	bd80      	pop	{r7, pc}
 800235c:	0000      	movs	r0, r0
	...

08002360 <PCA9685_SetPwmFrequency>:
 8002360:	b580      	push	{r7, lr}
 8002362:	b088      	sub	sp, #32
 8002364:	af04      	add	r7, sp, #16
 8002366:	4603      	mov	r3, r0
 8002368:	80fb      	strh	r3, [r7, #6]
 800236a:	88fb      	ldrh	r3, [r7, #6]
 800236c:	f240 52f5 	movw	r2, #1525	@ 0x5f5
 8002370:	4293      	cmp	r3, r2
 8002372:	d902      	bls.n	800237a <PCA9685_SetPwmFrequency+0x1a>
 8002374:	2303      	movs	r3, #3
 8002376:	72fb      	strb	r3, [r7, #11]
 8002378:	e041      	b.n	80023fe <PCA9685_SetPwmFrequency+0x9e>
 800237a:	88fb      	ldrh	r3, [r7, #6]
 800237c:	2b18      	cmp	r3, #24
 800237e:	d802      	bhi.n	8002386 <PCA9685_SetPwmFrequency+0x26>
 8002380:	23ff      	movs	r3, #255	@ 0xff
 8002382:	72fb      	strb	r3, [r7, #11]
 8002384:	e03b      	b.n	80023fe <PCA9685_SetPwmFrequency+0x9e>
 8002386:	88fb      	ldrh	r3, [r7, #6]
 8002388:	4618      	mov	r0, r3
 800238a:	f7fe fc65 	bl	8000c58 <__aeabi_ui2f>
 800238e:	4603      	mov	r3, r0
 8002390:	4618      	mov	r0, r3
 8002392:	f7fe f849 	bl	8000428 <__aeabi_f2d>
 8002396:	f04f 0200 	mov.w	r2, #0
 800239a:	4b29      	ldr	r3, [pc, #164]	@ (8002440 <PCA9685_SetPwmFrequency+0xe0>)
 800239c:	f7fe f89c 	bl	80004d8 <__aeabi_dmul>
 80023a0:	4602      	mov	r2, r0
 80023a2:	460b      	mov	r3, r1
 80023a4:	a124      	add	r1, pc, #144	@ (adr r1, 8002438 <PCA9685_SetPwmFrequency+0xd8>)
 80023a6:	e9d1 0100 	ldrd	r0, r1, [r1]
 80023aa:	f7fe f9bf 	bl	800072c <__aeabi_ddiv>
 80023ae:	4602      	mov	r2, r0
 80023b0:	460b      	mov	r3, r1
 80023b2:	4610      	mov	r0, r2
 80023b4:	4619      	mov	r1, r3
 80023b6:	f04f 0200 	mov.w	r2, #0
 80023ba:	4b22      	ldr	r3, [pc, #136]	@ (8002444 <PCA9685_SetPwmFrequency+0xe4>)
 80023bc:	f7fd fed4 	bl	8000168 <__aeabi_dsub>
 80023c0:	4602      	mov	r2, r0
 80023c2:	460b      	mov	r3, r1
 80023c4:	4610      	mov	r0, r2
 80023c6:	4619      	mov	r1, r3
 80023c8:	f7fe fb40 	bl	8000a4c <__aeabi_d2f>
 80023cc:	4603      	mov	r3, r0
 80023ce:	60fb      	str	r3, [r7, #12]
 80023d0:	68f8      	ldr	r0, [r7, #12]
 80023d2:	f7fe f829 	bl	8000428 <__aeabi_f2d>
 80023d6:	f04f 0200 	mov.w	r2, #0
 80023da:	4b1b      	ldr	r3, [pc, #108]	@ (8002448 <PCA9685_SetPwmFrequency+0xe8>)
 80023dc:	f7fd fec6 	bl	800016c <__adddf3>
 80023e0:	4602      	mov	r2, r0
 80023e2:	460b      	mov	r3, r1
 80023e4:	4610      	mov	r0, r2
 80023e6:	4619      	mov	r1, r3
 80023e8:	f006 f94e 	bl	8008688 <floor>
 80023ec:	4602      	mov	r2, r0
 80023ee:	460b      	mov	r3, r1
 80023f0:	4610      	mov	r0, r2
 80023f2:	4619      	mov	r1, r3
 80023f4:	f7fe fb0a 	bl	8000a0c <__aeabi_d2uiz>
 80023f8:	4603      	mov	r3, r0
 80023fa:	b2db      	uxtb	r3, r3
 80023fc:	72fb      	strb	r3, [r7, #11]
 80023fe:	2001      	movs	r0, #1
 8002400:	f7ff ff7c 	bl	80022fc <PCA9685_SleepMode>
 8002404:	4b11      	ldr	r3, [pc, #68]	@ (800244c <PCA9685_SetPwmFrequency+0xec>)
 8002406:	6818      	ldr	r0, [r3, #0]
 8002408:	230a      	movs	r3, #10
 800240a:	9302      	str	r3, [sp, #8]
 800240c:	2301      	movs	r3, #1
 800240e:	9301      	str	r3, [sp, #4]
 8002410:	f107 030b 	add.w	r3, r7, #11
 8002414:	9300      	str	r3, [sp, #0]
 8002416:	2301      	movs	r3, #1
 8002418:	22fe      	movs	r2, #254	@ 0xfe
 800241a:	2180      	movs	r1, #128	@ 0x80
 800241c:	f001 fe18 	bl	8004050 <HAL_I2C_Mem_Write>
 8002420:	2000      	movs	r0, #0
 8002422:	f7ff ff6b 	bl	80022fc <PCA9685_SleepMode>
 8002426:	2001      	movs	r0, #1
 8002428:	f7ff ff78 	bl	800231c <PCA9685_RestartMode>
 800242c:	2300      	movs	r3, #0
 800242e:	4618      	mov	r0, r3
 8002430:	3710      	adds	r7, #16
 8002432:	46bd      	mov	sp, r7
 8002434:	bd80      	pop	{r7, pc}
 8002436:	bf00      	nop
 8002438:	00000000 	.word	0x00000000
 800243c:	4177d784 	.word	0x4177d784
 8002440:	40b00000 	.word	0x40b00000
 8002444:	3ff00000 	.word	0x3ff00000
 8002448:	3fe00000 	.word	0x3fe00000
 800244c:	20000304 	.word	0x20000304

08002450 <PCA9685_SetPwm>:
 8002450:	b580      	push	{r7, lr}
 8002452:	b088      	sub	sp, #32
 8002454:	af04      	add	r7, sp, #16
 8002456:	4603      	mov	r3, r0
 8002458:	71fb      	strb	r3, [r7, #7]
 800245a:	460b      	mov	r3, r1
 800245c:	80bb      	strh	r3, [r7, #4]
 800245e:	4613      	mov	r3, r2
 8002460:	807b      	strh	r3, [r7, #2]
 8002462:	79fb      	ldrb	r3, [r7, #7]
 8002464:	009b      	lsls	r3, r3, #2
 8002466:	b2db      	uxtb	r3, r3
 8002468:	3306      	adds	r3, #6
 800246a:	73fb      	strb	r3, [r7, #15]
 800246c:	88bb      	ldrh	r3, [r7, #4]
 800246e:	b2db      	uxtb	r3, r3
 8002470:	723b      	strb	r3, [r7, #8]
 8002472:	88bb      	ldrh	r3, [r7, #4]
 8002474:	0a1b      	lsrs	r3, r3, #8
 8002476:	b29b      	uxth	r3, r3
 8002478:	b2db      	uxtb	r3, r3
 800247a:	727b      	strb	r3, [r7, #9]
 800247c:	887b      	ldrh	r3, [r7, #2]
 800247e:	b2db      	uxtb	r3, r3
 8002480:	72bb      	strb	r3, [r7, #10]
 8002482:	887b      	ldrh	r3, [r7, #2]
 8002484:	0a1b      	lsrs	r3, r3, #8
 8002486:	b29b      	uxth	r3, r3
 8002488:	b2db      	uxtb	r3, r3
 800248a:	72fb      	strb	r3, [r7, #11]
 800248c:	4b0c      	ldr	r3, [pc, #48]	@ (80024c0 <PCA9685_SetPwm+0x70>)
 800248e:	6818      	ldr	r0, [r3, #0]
 8002490:	7bfb      	ldrb	r3, [r7, #15]
 8002492:	b29a      	uxth	r2, r3
 8002494:	230a      	movs	r3, #10
 8002496:	9302      	str	r3, [sp, #8]
 8002498:	2304      	movs	r3, #4
 800249a:	9301      	str	r3, [sp, #4]
 800249c:	f107 0308 	add.w	r3, r7, #8
 80024a0:	9300      	str	r3, [sp, #0]
 80024a2:	2301      	movs	r3, #1
 80024a4:	2180      	movs	r1, #128	@ 0x80
 80024a6:	f001 fdd3 	bl	8004050 <HAL_I2C_Mem_Write>
 80024aa:	4603      	mov	r3, r0
 80024ac:	2b00      	cmp	r3, #0
 80024ae:	d001      	beq.n	80024b4 <PCA9685_SetPwm+0x64>
 80024b0:	2301      	movs	r3, #1
 80024b2:	e000      	b.n	80024b6 <PCA9685_SetPwm+0x66>
 80024b4:	2300      	movs	r3, #0
 80024b6:	4618      	mov	r0, r3
 80024b8:	3710      	adds	r7, #16
 80024ba:	46bd      	mov	sp, r7
 80024bc:	bd80      	pop	{r7, pc}
 80024be:	bf00      	nop
 80024c0:	20000304 	.word	0x20000304

080024c4 <PCA9685_SetPin>:
 80024c4:	b580      	push	{r7, lr}
 80024c6:	b082      	sub	sp, #8
 80024c8:	af00      	add	r7, sp, #0
 80024ca:	4603      	mov	r3, r0
 80024cc:	71fb      	strb	r3, [r7, #7]
 80024ce:	460b      	mov	r3, r1
 80024d0:	80bb      	strh	r3, [r7, #4]
 80024d2:	4613      	mov	r3, r2
 80024d4:	71bb      	strb	r3, [r7, #6]
 80024d6:	88bb      	ldrh	r3, [r7, #4]
 80024d8:	f5b3 5f80 	cmp.w	r3, #4096	@ 0x1000
 80024dc:	d302      	bcc.n	80024e4 <PCA9685_SetPin+0x20>
 80024de:	f640 73ff 	movw	r3, #4095	@ 0xfff
 80024e2:	80bb      	strh	r3, [r7, #4]
 80024e4:	79bb      	ldrb	r3, [r7, #6]
 80024e6:	2b00      	cmp	r3, #0
 80024e8:	d025      	beq.n	8002536 <PCA9685_SetPin+0x72>
 80024ea:	88bb      	ldrh	r3, [r7, #4]
 80024ec:	2b00      	cmp	r3, #0
 80024ee:	d108      	bne.n	8002502 <PCA9685_SetPin+0x3e>
 80024f0:	79fb      	ldrb	r3, [r7, #7]
 80024f2:	2200      	movs	r2, #0
 80024f4:	f44f 5180 	mov.w	r1, #4096	@ 0x1000
 80024f8:	4618      	mov	r0, r3
 80024fa:	f7ff ffa9 	bl	8002450 <PCA9685_SetPwm>
 80024fe:	4603      	mov	r3, r0
 8002500:	e03a      	b.n	8002578 <PCA9685_SetPin+0xb4>
 8002502:	88bb      	ldrh	r3, [r7, #4]
 8002504:	f640 72ff 	movw	r2, #4095	@ 0xfff
 8002508:	4293      	cmp	r3, r2
 800250a:	d108      	bne.n	800251e <PCA9685_SetPin+0x5a>
 800250c:	79fb      	ldrb	r3, [r7, #7]
 800250e:	f44f 5280 	mov.w	r2, #4096	@ 0x1000
 8002512:	2100      	movs	r1, #0
 8002514:	4618      	mov	r0, r3
 8002516:	f7ff ff9b 	bl	8002450 <PCA9685_SetPwm>
 800251a:	4603      	mov	r3, r0
 800251c:	e02c      	b.n	8002578 <PCA9685_SetPin+0xb4>
 800251e:	88bb      	ldrh	r3, [r7, #4]
 8002520:	f5c3 637f 	rsb	r3, r3, #4080	@ 0xff0
 8002524:	330f      	adds	r3, #15
 8002526:	b29a      	uxth	r2, r3
 8002528:	79fb      	ldrb	r3, [r7, #7]
 800252a:	2100      	movs	r1, #0
 800252c:	4618      	mov	r0, r3
 800252e:	f7ff ff8f 	bl	8002450 <PCA9685_SetPwm>
 8002532:	4603      	mov	r3, r0
 8002534:	e020      	b.n	8002578 <PCA9685_SetPin+0xb4>
 8002536:	88bb      	ldrh	r3, [r7, #4]
 8002538:	f640 72ff 	movw	r2, #4095	@ 0xfff
 800253c:	4293      	cmp	r3, r2
 800253e:	d108      	bne.n	8002552 <PCA9685_SetPin+0x8e>
 8002540:	79fb      	ldrb	r3, [r7, #7]
 8002542:	2200      	movs	r2, #0
 8002544:	f44f 5180 	mov.w	r1, #4096	@ 0x1000
 8002548:	4618      	mov	r0, r3
 800254a:	f7ff ff81 	bl	8002450 <PCA9685_SetPwm>
 800254e:	4603      	mov	r3, r0
 8002550:	e012      	b.n	8002578 <PCA9685_SetPin+0xb4>
 8002552:	88bb      	ldrh	r3, [r7, #4]
 8002554:	2b00      	cmp	r3, #0
 8002556:	d108      	bne.n	800256a <PCA9685_SetPin+0xa6>
 8002558:	79fb      	ldrb	r3, [r7, #7]
 800255a:	f44f 5280 	mov.w	r2, #4096	@ 0x1000
 800255e:	2100      	movs	r1, #0
 8002560:	4618      	mov	r0, r3
 8002562:	f7ff ff75 	bl	8002450 <PCA9685_SetPwm>
 8002566:	4603      	mov	r3, r0
 8002568:	e006      	b.n	8002578 <PCA9685_SetPin+0xb4>
 800256a:	88ba      	ldrh	r2, [r7, #4]
 800256c:	79fb      	ldrb	r3, [r7, #7]
 800256e:	2100      	movs	r1, #0
 8002570:	4618      	mov	r0, r3
 8002572:	f7ff ff6d 	bl	8002450 <PCA9685_SetPwm>
 8002576:	4603      	mov	r3, r0
 8002578:	4618      	mov	r0, r3
 800257a:	3708      	adds	r7, #8
 800257c:	46bd      	mov	sp, r7
 800257e:	bd80      	pop	{r7, pc}

08002580 <PCA9685_SetServoAngle>:
 8002580:	b580      	push	{r7, lr}
 8002582:	b084      	sub	sp, #16
 8002584:	af00      	add	r7, sp, #0
 8002586:	4603      	mov	r3, r0
 8002588:	6039      	str	r1, [r7, #0]
 800258a:	71fb      	strb	r3, [r7, #7]
 800258c:	f04f 0100 	mov.w	r1, #0
 8002590:	6838      	ldr	r0, [r7, #0]
 8002592:	f7fe fd57 	bl	8001044 <__aeabi_fcmplt>
 8002596:	4603      	mov	r3, r0
 8002598:	2b00      	cmp	r3, #0
 800259a:	d002      	beq.n	80025a2 <PCA9685_SetServoAngle+0x22>
 800259c:	f04f 0300 	mov.w	r3, #0
 80025a0:	603b      	str	r3, [r7, #0]
 80025a2:	491f      	ldr	r1, [pc, #124]	@ (8002620 <PCA9685_SetServoAngle+0xa0>)
 80025a4:	6838      	ldr	r0, [r7, #0]
 80025a6:	f7fe fd6b 	bl	8001080 <__aeabi_fcmpgt>
 80025aa:	4603      	mov	r3, r0
 80025ac:	2b00      	cmp	r3, #0
 80025ae:	d001      	beq.n	80025b4 <PCA9685_SetServoAngle+0x34>
 80025b0:	4b1b      	ldr	r3, [pc, #108]	@ (8002620 <PCA9685_SetServoAngle+0xa0>)
 80025b2:	603b      	str	r3, [r7, #0]
 80025b4:	6838      	ldr	r0, [r7, #0]
 80025b6:	f7fd ff37 	bl	8000428 <__aeabi_f2d>
 80025ba:	a317      	add	r3, pc, #92	@ (adr r3, 8002618 <PCA9685_SetServoAngle+0x98>)
 80025bc:	e9d3 2300 	ldrd	r2, r3, [r3]
 80025c0:	f7fd ff8a 	bl	80004d8 <__aeabi_dmul>
 80025c4:	4602      	mov	r2, r0
 80025c6:	460b      	mov	r3, r1
 80025c8:	4610      	mov	r0, r2
 80025ca:	4619      	mov	r1, r3
 80025cc:	f04f 0200 	mov.w	r2, #0
 80025d0:	4b14      	ldr	r3, [pc, #80]	@ (8002624 <PCA9685_SetServoAngle+0xa4>)
 80025d2:	f7fe f8ab 	bl	800072c <__aeabi_ddiv>
 80025d6:	4602      	mov	r2, r0
 80025d8:	460b      	mov	r3, r1
 80025da:	4610      	mov	r0, r2
 80025dc:	4619      	mov	r1, r3
 80025de:	f04f 0200 	mov.w	r2, #0
 80025e2:	4b11      	ldr	r3, [pc, #68]	@ (8002628 <PCA9685_SetServoAngle+0xa8>)
 80025e4:	f7fd fdc2 	bl	800016c <__adddf3>
 80025e8:	4602      	mov	r2, r0
 80025ea:	460b      	mov	r3, r1
 80025ec:	4610      	mov	r0, r2
 80025ee:	4619      	mov	r1, r3
 80025f0:	f7fe fa2c 	bl	8000a4c <__aeabi_d2f>
 80025f4:	4603      	mov	r3, r0
 80025f6:	60fb      	str	r3, [r7, #12]
 80025f8:	68f8      	ldr	r0, [r7, #12]
 80025fa:	f7fe fd61 	bl	80010c0 <__aeabi_f2uiz>
 80025fe:	4603      	mov	r3, r0
 8002600:	b299      	uxth	r1, r3
 8002602:	79fb      	ldrb	r3, [r7, #7]
 8002604:	2200      	movs	r2, #0
 8002606:	4618      	mov	r0, r3
 8002608:	f7ff ff5c 	bl	80024c4 <PCA9685_SetPin>
 800260c:	4603      	mov	r3, r0
 800260e:	4618      	mov	r0, r3
 8002610:	3710      	adds	r7, #16
 8002612:	46bd      	mov	sp, r7
 8002614:	bd80      	pop	{r7, pc}
 8002616:	bf00      	nop
 8002618:	00000000 	.word	0x00000000
 800261c:	40786000 	.word	0x40786000
 8002620:	43340000 	.word	0x43340000
 8002624:	40668000 	.word	0x40668000
 8002628:	405b8000 	.word	0x405b8000

0800262c <PCA9685_Init>:
 800262c:	b580      	push	{r7, lr}
 800262e:	b082      	sub	sp, #8
 8002630:	af00      	add	r7, sp, #0
 8002632:	6078      	str	r0, [r7, #4]
 8002634:	4a07      	ldr	r2, [pc, #28]	@ (8002654 <PCA9685_Init+0x28>)
 8002636:	687b      	ldr	r3, [r7, #4]
 8002638:	6013      	str	r3, [r2, #0]
 800263a:	f7ff fe45 	bl	80022c8 <PCA9685_SoftwareReset>
 800263e:	2030      	movs	r0, #48	@ 0x30
 8002640:	f7ff fe8e 	bl	8002360 <PCA9685_SetPwmFrequency>
 8002644:	2001      	movs	r0, #1
 8002646:	f7ff fe79 	bl	800233c <PCA9685_AutoIncrement>
 800264a:	2300      	movs	r3, #0
 800264c:	4618      	mov	r0, r3
 800264e:	3708      	adds	r7, #8
 8002650:	46bd      	mov	sp, r7
 8002652:	bd80      	pop	{r7, pc}
 8002654:	20000304 	.word	0x20000304

08002658 <ssd1306_Reset>:
 8002658:	b480      	push	{r7}
 800265a:	af00      	add	r7, sp, #0
 800265c:	bf00      	nop
 800265e:	46bd      	mov	sp, r7
 8002660:	bc80      	pop	{r7}
 8002662:	4770      	bx	lr

08002664 <ssd1306_WriteCommand>:
 8002664:	b580      	push	{r7, lr}
 8002666:	b086      	sub	sp, #24
 8002668:	af04      	add	r7, sp, #16
 800266a:	4603      	mov	r3, r0
 800266c:	71fb      	strb	r3, [r7, #7]
 800266e:	f04f 33ff 	mov.w	r3, #4294967295
 8002672:	9302      	str	r3, [sp, #8]
 8002674:	2301      	movs	r3, #1
 8002676:	9301      	str	r3, [sp, #4]
 8002678:	1dfb      	adds	r3, r7, #7
 800267a:	9300      	str	r3, [sp, #0]
 800267c:	2301      	movs	r3, #1
 800267e:	2200      	movs	r2, #0
 8002680:	2178      	movs	r1, #120	@ 0x78
 8002682:	4803      	ldr	r0, [pc, #12]	@ (8002690 <ssd1306_WriteCommand+0x2c>)
 8002684:	f001 fce4 	bl	8004050 <HAL_I2C_Mem_Write>
 8002688:	bf00      	nop
 800268a:	3708      	adds	r7, #8
 800268c:	46bd      	mov	sp, r7
 800268e:	bd80      	pop	{r7, pc}
 8002690:	20000128 	.word	0x20000128

08002694 <ssd1306_WriteData>:
 8002694:	b580      	push	{r7, lr}
 8002696:	b086      	sub	sp, #24
 8002698:	af04      	add	r7, sp, #16
 800269a:	6078      	str	r0, [r7, #4]
 800269c:	6039      	str	r1, [r7, #0]
 800269e:	683b      	ldr	r3, [r7, #0]
 80026a0:	b29b      	uxth	r3, r3
 80026a2:	f04f 32ff 	mov.w	r2, #4294967295
 80026a6:	9202      	str	r2, [sp, #8]
 80026a8:	9301      	str	r3, [sp, #4]
 80026aa:	687b      	ldr	r3, [r7, #4]
 80026ac:	9300      	str	r3, [sp, #0]
 80026ae:	2301      	movs	r3, #1
 80026b0:	2240      	movs	r2, #64	@ 0x40
 80026b2:	2178      	movs	r1, #120	@ 0x78
 80026b4:	4803      	ldr	r0, [pc, #12]	@ (80026c4 <ssd1306_WriteData+0x30>)
 80026b6:	f001 fccb 	bl	8004050 <HAL_I2C_Mem_Write>
 80026ba:	bf00      	nop
 80026bc:	3708      	adds	r7, #8
 80026be:	46bd      	mov	sp, r7
 80026c0:	bd80      	pop	{r7, pc}
 80026c2:	bf00      	nop
 80026c4:	20000128 	.word	0x20000128

080026c8 <ssd1306_Init>:
 80026c8:	b580      	push	{r7, lr}
 80026ca:	af00      	add	r7, sp, #0
 80026cc:	f7ff ffc4 	bl	8002658 <ssd1306_Reset>
 80026d0:	2064      	movs	r0, #100	@ 0x64
 80026d2:	f000 fcb7 	bl	8003044 <HAL_Delay>
 80026d6:	2000      	movs	r0, #0
 80026d8:	f000 f9d6 	bl	8002a88 <ssd1306_SetDisplayOn>
 80026dc:	2020      	movs	r0, #32
 80026de:	f7ff ffc1 	bl	8002664 <ssd1306_WriteCommand>
 80026e2:	2000      	movs	r0, #0
 80026e4:	f7ff ffbe 	bl	8002664 <ssd1306_WriteCommand>
 80026e8:	20b0      	movs	r0, #176	@ 0xb0
 80026ea:	f7ff ffbb 	bl	8002664 <ssd1306_WriteCommand>
 80026ee:	20c8      	movs	r0, #200	@ 0xc8
 80026f0:	f7ff ffb8 	bl	8002664 <ssd1306_WriteCommand>
 80026f4:	2000      	movs	r0, #0
 80026f6:	f7ff ffb5 	bl	8002664 <ssd1306_WriteCommand>
 80026fa:	2010      	movs	r0, #16
 80026fc:	f7ff ffb2 	bl	8002664 <ssd1306_WriteCommand>
 8002700:	2040      	movs	r0, #64	@ 0x40
 8002702:	f7ff ffaf 	bl	8002664 <ssd1306_WriteCommand>
 8002706:	20ff      	movs	r0, #255	@ 0xff
 8002708:	f000 f9aa 	bl	8002a60 <ssd1306_SetContrast>
 800270c:	20a1      	movs	r0, #161	@ 0xa1
 800270e:	f7ff ffa9 	bl	8002664 <ssd1306_WriteCommand>
 8002712:	20a6      	movs	r0, #166	@ 0xa6
 8002714:	f7ff ffa6 	bl	8002664 <ssd1306_WriteCommand>
 8002718:	20a8      	movs	r0, #168	@ 0xa8
 800271a:	f7ff ffa3 	bl	8002664 <ssd1306_WriteCommand>
 800271e:	203f      	movs	r0, #63	@ 0x3f
 8002720:	f7ff ffa0 	bl	8002664 <ssd1306_WriteCommand>
 8002724:	20a4      	movs	r0, #164	@ 0xa4
 8002726:	f7ff ff9d 	bl	8002664 <ssd1306_WriteCommand>
 800272a:	20d3      	movs	r0, #211	@ 0xd3
 800272c:	f7ff ff9a 	bl	8002664 <ssd1306_WriteCommand>
 8002730:	2000      	movs	r0, #0
 8002732:	f7ff ff97 	bl	8002664 <ssd1306_WriteCommand>
 8002736:	20d5      	movs	r0, #213	@ 0xd5
 8002738:	f7ff ff94 	bl	8002664 <ssd1306_WriteCommand>
 800273c:	20f0      	movs	r0, #240	@ 0xf0
 800273e:	f7ff ff91 	bl	8002664 <ssd1306_WriteCommand>
 8002742:	20d9      	movs	r0, #217	@ 0xd9
 8002744:	f7ff ff8e 	bl	8002664 <ssd1306_WriteCommand>
 8002748:	2022      	movs	r0, #34	@ 0x22
 800274a:	f7ff ff8b 	bl	8002664 <ssd1306_WriteCommand>
 800274e:	20da      	movs	r0, #218	@ 0xda
 8002750:	f7ff ff88 	bl	8002664 <ssd1306_WriteCommand>
 8002754:	2012      	movs	r0, #18
 8002756:	f7ff ff85 	bl	8002664 <ssd1306_WriteCommand>
 800275a:	20db      	movs	r0, #219	@ 0xdb
 800275c:	f7ff ff82 	bl	8002664 <ssd1306_WriteCommand>
 8002760:	2020      	movs	r0, #32
 8002762:	f7ff ff7f 	bl	8002664 <ssd1306_WriteCommand>
 8002766:	208d      	movs	r0, #141	@ 0x8d
 8002768:	f7ff ff7c 	bl	8002664 <ssd1306_WriteCommand>
 800276c:	2014      	movs	r0, #20
 800276e:	f7ff ff79 	bl	8002664 <ssd1306_WriteCommand>
 8002772:	2001      	movs	r0, #1
 8002774:	f000 f988 	bl	8002a88 <ssd1306_SetDisplayOn>
 8002778:	2000      	movs	r0, #0
 800277a:	f000 f80f 	bl	800279c <ssd1306_Fill>
 800277e:	f000 f825 	bl	80027cc <ssd1306_UpdateScreen>
 8002782:	4b05      	ldr	r3, [pc, #20]	@ (8002798 <ssd1306_Init+0xd0>)
 8002784:	2200      	movs	r2, #0
 8002786:	801a      	strh	r2, [r3, #0]
 8002788:	4b03      	ldr	r3, [pc, #12]	@ (8002798 <ssd1306_Init+0xd0>)
 800278a:	2200      	movs	r2, #0
 800278c:	805a      	strh	r2, [r3, #2]
 800278e:	4b02      	ldr	r3, [pc, #8]	@ (8002798 <ssd1306_Init+0xd0>)
 8002790:	2201      	movs	r2, #1
 8002792:	711a      	strb	r2, [r3, #4]
 8002794:	bf00      	nop
 8002796:	bd80      	pop	{r7, pc}
 8002798:	20000708 	.word	0x20000708

0800279c <ssd1306_Fill>:
 800279c:	b580      	push	{r7, lr}
 800279e:	b082      	sub	sp, #8
 80027a0:	af00      	add	r7, sp, #0
 80027a2:	4603      	mov	r3, r0
 80027a4:	71fb      	strb	r3, [r7, #7]
 80027a6:	79fb      	ldrb	r3, [r7, #7]
 80027a8:	2b00      	cmp	r3, #0
 80027aa:	d101      	bne.n	80027b0 <ssd1306_Fill+0x14>
 80027ac:	2300      	movs	r3, #0
 80027ae:	e000      	b.n	80027b2 <ssd1306_Fill+0x16>
 80027b0:	23ff      	movs	r3, #255	@ 0xff
 80027b2:	f44f 6280 	mov.w	r2, #1024	@ 0x400
 80027b6:	4619      	mov	r1, r3
 80027b8:	4803      	ldr	r0, [pc, #12]	@ (80027c8 <ssd1306_Fill+0x2c>)
 80027ba:	f005 fa54 	bl	8007c66 <memset>
 80027be:	bf00      	nop
 80027c0:	3708      	adds	r7, #8
 80027c2:	46bd      	mov	sp, r7
 80027c4:	bd80      	pop	{r7, pc}
 80027c6:	bf00      	nop
 80027c8:	20000308 	.word	0x20000308

080027cc <ssd1306_UpdateScreen>:
 80027cc:	b580      	push	{r7, lr}
 80027ce:	b082      	sub	sp, #8
 80027d0:	af00      	add	r7, sp, #0
 80027d2:	2300      	movs	r3, #0
 80027d4:	71fb      	strb	r3, [r7, #7]
 80027d6:	e016      	b.n	8002806 <ssd1306_UpdateScreen+0x3a>
 80027d8:	79fb      	ldrb	r3, [r7, #7]
 80027da:	3b50      	subs	r3, #80	@ 0x50
 80027dc:	b2db      	uxtb	r3, r3
 80027de:	4618      	mov	r0, r3
 80027e0:	f7ff ff40 	bl	8002664 <ssd1306_WriteCommand>
 80027e4:	2000      	movs	r0, #0
 80027e6:	f7ff ff3d 	bl	8002664 <ssd1306_WriteCommand>
 80027ea:	2010      	movs	r0, #16
 80027ec:	f7ff ff3a 	bl	8002664 <ssd1306_WriteCommand>
 80027f0:	79fb      	ldrb	r3, [r7, #7]
 80027f2:	01db      	lsls	r3, r3, #7
 80027f4:	4a08      	ldr	r2, [pc, #32]	@ (8002818 <ssd1306_UpdateScreen+0x4c>)
 80027f6:	4413      	add	r3, r2
 80027f8:	2180      	movs	r1, #128	@ 0x80
 80027fa:	4618      	mov	r0, r3
 80027fc:	f7ff ff4a 	bl	8002694 <ssd1306_WriteData>
 8002800:	79fb      	ldrb	r3, [r7, #7]
 8002802:	3301      	adds	r3, #1
 8002804:	71fb      	strb	r3, [r7, #7]
 8002806:	79fb      	ldrb	r3, [r7, #7]
 8002808:	2b07      	cmp	r3, #7
 800280a:	d9e5      	bls.n	80027d8 <ssd1306_UpdateScreen+0xc>
 800280c:	bf00      	nop
 800280e:	bf00      	nop
 8002810:	3708      	adds	r7, #8
 8002812:	46bd      	mov	sp, r7
 8002814:	bd80      	pop	{r7, pc}
 8002816:	bf00      	nop
 8002818:	20000308 	.word	0x20000308

0800281c <ssd1306_DrawPixel>:
 800281c:	b480      	push	{r7}
 800281e:	b083      	sub	sp, #12
 8002820:	af00      	add	r7, sp, #0
 8002822:	4603      	mov	r3, r0
 8002824:	71fb      	strb	r3, [r7, #7]
 8002826:	460b      	mov	r3, r1
 8002828:	71bb      	strb	r3, [r7, #6]
 800282a:	4613      	mov	r3, r2
 800282c:	717b      	strb	r3, [r7, #5]
 800282e:	f997 3007 	ldrsb.w	r3, [r7, #7]
 8002832:	2b00      	cmp	r3, #0
 8002834:	db3d      	blt.n	80028b2 <ssd1306_DrawPixel+0x96>
 8002836:	79bb      	ldrb	r3, [r7, #6]
 8002838:	2b3f      	cmp	r3, #63	@ 0x3f
 800283a:	d83a      	bhi.n	80028b2 <ssd1306_DrawPixel+0x96>
 800283c:	797b      	ldrb	r3, [r7, #5]
 800283e:	2b01      	cmp	r3, #1
 8002840:	d11a      	bne.n	8002878 <ssd1306_DrawPixel+0x5c>
 8002842:	79fa      	ldrb	r2, [r7, #7]
 8002844:	79bb      	ldrb	r3, [r7, #6]
 8002846:	08db      	lsrs	r3, r3, #3
 8002848:	b2d8      	uxtb	r0, r3
 800284a:	4603      	mov	r3, r0
 800284c:	01db      	lsls	r3, r3, #7
 800284e:	4413      	add	r3, r2
 8002850:	4a1a      	ldr	r2, [pc, #104]	@ (80028bc <ssd1306_DrawPixel+0xa0>)
 8002852:	5cd3      	ldrb	r3, [r2, r3]
 8002854:	b25a      	sxtb	r2, r3
 8002856:	79bb      	ldrb	r3, [r7, #6]
 8002858:	f003 0307 	and.w	r3, r3, #7
 800285c:	2101      	movs	r1, #1
 800285e:	fa01 f303 	lsl.w	r3, r1, r3
 8002862:	b25b      	sxtb	r3, r3
 8002864:	4313      	orrs	r3, r2
 8002866:	b259      	sxtb	r1, r3
 8002868:	79fa      	ldrb	r2, [r7, #7]
 800286a:	4603      	mov	r3, r0
 800286c:	01db      	lsls	r3, r3, #7
 800286e:	4413      	add	r3, r2
 8002870:	b2c9      	uxtb	r1, r1
 8002872:	4a12      	ldr	r2, [pc, #72]	@ (80028bc <ssd1306_DrawPixel+0xa0>)
 8002874:	54d1      	strb	r1, [r2, r3]
 8002876:	e01d      	b.n	80028b4 <ssd1306_DrawPixel+0x98>
 8002878:	79fa      	ldrb	r2, [r7, #7]
 800287a:	79bb      	ldrb	r3, [r7, #6]
 800287c:	08db      	lsrs	r3, r3, #3
 800287e:	b2d8      	uxtb	r0, r3
 8002880:	4603      	mov	r3, r0
 8002882:	01db      	lsls	r3, r3, #7
 8002884:	4413      	add	r3, r2
 8002886:	4a0d      	ldr	r2, [pc, #52]	@ (80028bc <ssd1306_DrawPixel+0xa0>)
 8002888:	5cd3      	ldrb	r3, [r2, r3]
 800288a:	b25a      	sxtb	r2, r3
 800288c:	79bb      	ldrb	r3, [r7, #6]
 800288e:	f003 0307 	and.w	r3, r3, #7
 8002892:	2101      	movs	r1, #1
 8002894:	fa01 f303 	lsl.w	r3, r1, r3
 8002898:	b25b      	sxtb	r3, r3
 800289a:	43db      	mvns	r3, r3
 800289c:	b25b      	sxtb	r3, r3
 800289e:	4013      	ands	r3, r2
 80028a0:	b259      	sxtb	r1, r3
 80028a2:	79fa      	ldrb	r2, [r7, #7]
 80028a4:	4603      	mov	r3, r0
 80028a6:	01db      	lsls	r3, r3, #7
 80028a8:	4413      	add	r3, r2
 80028aa:	b2c9      	uxtb	r1, r1
 80028ac:	4a03      	ldr	r2, [pc, #12]	@ (80028bc <ssd1306_DrawPixel+0xa0>)
 80028ae:	54d1      	strb	r1, [r2, r3]
 80028b0:	e000      	b.n	80028b4 <ssd1306_DrawPixel+0x98>
 80028b2:	bf00      	nop
 80028b4:	370c      	adds	r7, #12
 80028b6:	46bd      	mov	sp, r7
 80028b8:	bc80      	pop	{r7}
 80028ba:	4770      	bx	lr
 80028bc:	20000308 	.word	0x20000308

080028c0 <ssd1306_WriteChar>:
 80028c0:	b590      	push	{r4, r7, lr}
 80028c2:	b089      	sub	sp, #36	@ 0x24
 80028c4:	af00      	add	r7, sp, #0
 80028c6:	4604      	mov	r4, r0
 80028c8:	4638      	mov	r0, r7
 80028ca:	e880 000e 	stmia.w	r0, {r1, r2, r3}
 80028ce:	4623      	mov	r3, r4
 80028d0:	73fb      	strb	r3, [r7, #15]
 80028d2:	7bfb      	ldrb	r3, [r7, #15]
 80028d4:	2b1f      	cmp	r3, #31
 80028d6:	d902      	bls.n	80028de <ssd1306_WriteChar+0x1e>
 80028d8:	7bfb      	ldrb	r3, [r7, #15]
 80028da:	2b7e      	cmp	r3, #126	@ 0x7e
 80028dc:	d901      	bls.n	80028e2 <ssd1306_WriteChar+0x22>
 80028de:	2300      	movs	r3, #0
 80028e0:	e079      	b.n	80029d6 <ssd1306_WriteChar+0x116>
 80028e2:	68bb      	ldr	r3, [r7, #8]
 80028e4:	2b00      	cmp	r3, #0
 80028e6:	d005      	beq.n	80028f4 <ssd1306_WriteChar+0x34>
 80028e8:	68ba      	ldr	r2, [r7, #8]
 80028ea:	7bfb      	ldrb	r3, [r7, #15]
 80028ec:	3b20      	subs	r3, #32
 80028ee:	4413      	add	r3, r2
 80028f0:	781b      	ldrb	r3, [r3, #0]
 80028f2:	e000      	b.n	80028f6 <ssd1306_WriteChar+0x36>
 80028f4:	783b      	ldrb	r3, [r7, #0]
 80028f6:	75fb      	strb	r3, [r7, #23]
 80028f8:	4b39      	ldr	r3, [pc, #228]	@ (80029e0 <ssd1306_WriteChar+0x120>)
 80028fa:	881b      	ldrh	r3, [r3, #0]
 80028fc:	461a      	mov	r2, r3
 80028fe:	7dfb      	ldrb	r3, [r7, #23]
 8002900:	4413      	add	r3, r2
 8002902:	2b80      	cmp	r3, #128	@ 0x80
 8002904:	dc06      	bgt.n	8002914 <ssd1306_WriteChar+0x54>
 8002906:	4b36      	ldr	r3, [pc, #216]	@ (80029e0 <ssd1306_WriteChar+0x120>)
 8002908:	885b      	ldrh	r3, [r3, #2]
 800290a:	461a      	mov	r2, r3
 800290c:	787b      	ldrb	r3, [r7, #1]
 800290e:	4413      	add	r3, r2
 8002910:	2b40      	cmp	r3, #64	@ 0x40
 8002912:	dd01      	ble.n	8002918 <ssd1306_WriteChar+0x58>
 8002914:	2300      	movs	r3, #0
 8002916:	e05e      	b.n	80029d6 <ssd1306_WriteChar+0x116>
 8002918:	2300      	movs	r3, #0
 800291a:	61fb      	str	r3, [r7, #28]
 800291c:	e04d      	b.n	80029ba <ssd1306_WriteChar+0xfa>
 800291e:	687a      	ldr	r2, [r7, #4]
 8002920:	7bfb      	ldrb	r3, [r7, #15]
 8002922:	3b20      	subs	r3, #32
 8002924:	7879      	ldrb	r1, [r7, #1]
 8002926:	fb01 f303 	mul.w	r3, r1, r3
 800292a:	4619      	mov	r1, r3
 800292c:	69fb      	ldr	r3, [r7, #28]
 800292e:	440b      	add	r3, r1
 8002930:	005b      	lsls	r3, r3, #1
 8002932:	4413      	add	r3, r2
 8002934:	881b      	ldrh	r3, [r3, #0]
 8002936:	613b      	str	r3, [r7, #16]
 8002938:	2300      	movs	r3, #0
 800293a:	61bb      	str	r3, [r7, #24]
 800293c:	e036      	b.n	80029ac <ssd1306_WriteChar+0xec>
 800293e:	693a      	ldr	r2, [r7, #16]
 8002940:	69bb      	ldr	r3, [r7, #24]
 8002942:	fa02 f303 	lsl.w	r3, r2, r3
 8002946:	f403 4300 	and.w	r3, r3, #32768	@ 0x8000
 800294a:	2b00      	cmp	r3, #0
 800294c:	d013      	beq.n	8002976 <ssd1306_WriteChar+0xb6>
 800294e:	4b24      	ldr	r3, [pc, #144]	@ (80029e0 <ssd1306_WriteChar+0x120>)
 8002950:	881b      	ldrh	r3, [r3, #0]
 8002952:	b2da      	uxtb	r2, r3
 8002954:	69bb      	ldr	r3, [r7, #24]
 8002956:	b2db      	uxtb	r3, r3
 8002958:	4413      	add	r3, r2
 800295a:	b2d8      	uxtb	r0, r3
 800295c:	4b20      	ldr	r3, [pc, #128]	@ (80029e0 <ssd1306_WriteChar+0x120>)
 800295e:	885b      	ldrh	r3, [r3, #2]
 8002960:	b2da      	uxtb	r2, r3
 8002962:	69fb      	ldr	r3, [r7, #28]
 8002964:	b2db      	uxtb	r3, r3
 8002966:	4413      	add	r3, r2
 8002968:	b2db      	uxtb	r3, r3
 800296a:	f897 2030 	ldrb.w	r2, [r7, #48]	@ 0x30
 800296e:	4619      	mov	r1, r3
 8002970:	f7ff ff54 	bl	800281c <ssd1306_DrawPixel>
 8002974:	e017      	b.n	80029a6 <ssd1306_WriteChar+0xe6>
 8002976:	4b1a      	ldr	r3, [pc, #104]	@ (80029e0 <ssd1306_WriteChar+0x120>)
 8002978:	881b      	ldrh	r3, [r3, #0]
 800297a:	b2da      	uxtb	r2, r3
 800297c:	69bb      	ldr	r3, [r7, #24]
 800297e:	b2db      	uxtb	r3, r3
 8002980:	4413      	add	r3, r2
 8002982:	b2d8      	uxtb	r0, r3
 8002984:	4b16      	ldr	r3, [pc, #88]	@ (80029e0 <ssd1306_WriteChar+0x120>)
 8002986:	885b      	ldrh	r3, [r3, #2]
 8002988:	b2da      	uxtb	r2, r3
 800298a:	69fb      	ldr	r3, [r7, #28]
 800298c:	b2db      	uxtb	r3, r3
 800298e:	4413      	add	r3, r2
 8002990:	b2d9      	uxtb	r1, r3
 8002992:	f897 3030 	ldrb.w	r3, [r7, #48]	@ 0x30
 8002996:	2b00      	cmp	r3, #0
 8002998:	bf0c      	ite	eq
 800299a:	2301      	moveq	r3, #1
 800299c:	2300      	movne	r3, #0
 800299e:	b2db      	uxtb	r3, r3
 80029a0:	461a      	mov	r2, r3
 80029a2:	f7ff ff3b 	bl	800281c <ssd1306_DrawPixel>
 80029a6:	69bb      	ldr	r3, [r7, #24]
 80029a8:	3301      	adds	r3, #1
 80029aa:	61bb      	str	r3, [r7, #24]
 80029ac:	7dfb      	ldrb	r3, [r7, #23]
 80029ae:	69ba      	ldr	r2, [r7, #24]
 80029b0:	429a      	cmp	r2, r3
 80029b2:	d3c4      	bcc.n	800293e <ssd1306_WriteChar+0x7e>
 80029b4:	69fb      	ldr	r3, [r7, #28]
 80029b6:	3301      	adds	r3, #1
 80029b8:	61fb      	str	r3, [r7, #28]
 80029ba:	787b      	ldrb	r3, [r7, #1]
 80029bc:	461a      	mov	r2, r3
 80029be:	69fb      	ldr	r3, [r7, #28]
 80029c0:	4293      	cmp	r3, r2
 80029c2:	d3ac      	bcc.n	800291e <ssd1306_WriteChar+0x5e>
 80029c4:	4b06      	ldr	r3, [pc, #24]	@ (80029e0 <ssd1306_WriteChar+0x120>)
 80029c6:	881a      	ldrh	r2, [r3, #0]
 80029c8:	7dfb      	ldrb	r3, [r7, #23]
 80029ca:	b29b      	uxth	r3, r3
 80029cc:	4413      	add	r3, r2
 80029ce:	b29a      	uxth	r2, r3
 80029d0:	4b03      	ldr	r3, [pc, #12]	@ (80029e0 <ssd1306_WriteChar+0x120>)
 80029d2:	801a      	strh	r2, [r3, #0]
 80029d4:	7bfb      	ldrb	r3, [r7, #15]
 80029d6:	4618      	mov	r0, r3
 80029d8:	3724      	adds	r7, #36	@ 0x24
 80029da:	46bd      	mov	sp, r7
 80029dc:	bd90      	pop	{r4, r7, pc}
 80029de:	bf00      	nop
 80029e0:	20000708 	.word	0x20000708

080029e4 <ssd1306_WriteString>:
 80029e4:	b580      	push	{r7, lr}
 80029e6:	b086      	sub	sp, #24
 80029e8:	af02      	add	r7, sp, #8
 80029ea:	60f8      	str	r0, [r7, #12]
 80029ec:	4638      	mov	r0, r7
 80029ee:	e880 000e 	stmia.w	r0, {r1, r2, r3}
 80029f2:	e013      	b.n	8002a1c <ssd1306_WriteString+0x38>
 80029f4:	68fb      	ldr	r3, [r7, #12]
 80029f6:	7818      	ldrb	r0, [r3, #0]
 80029f8:	7e3b      	ldrb	r3, [r7, #24]
 80029fa:	9300      	str	r3, [sp, #0]
 80029fc:	463b      	mov	r3, r7
 80029fe:	cb0e      	ldmia	r3, {r1, r2, r3}
 8002a00:	f7ff ff5e 	bl	80028c0 <ssd1306_WriteChar>
 8002a04:	4603      	mov	r3, r0
 8002a06:	461a      	mov	r2, r3
 8002a08:	68fb      	ldr	r3, [r7, #12]
 8002a0a:	781b      	ldrb	r3, [r3, #0]
 8002a0c:	429a      	cmp	r2, r3
 8002a0e:	d002      	beq.n	8002a16 <ssd1306_WriteString+0x32>
 8002a10:	68fb      	ldr	r3, [r7, #12]
 8002a12:	781b      	ldrb	r3, [r3, #0]
 8002a14:	e008      	b.n	8002a28 <ssd1306_WriteString+0x44>
 8002a16:	68fb      	ldr	r3, [r7, #12]
 8002a18:	3301      	adds	r3, #1
 8002a1a:	60fb      	str	r3, [r7, #12]
 8002a1c:	68fb      	ldr	r3, [r7, #12]
 8002a1e:	781b      	ldrb	r3, [r3, #0]
 8002a20:	2b00      	cmp	r3, #0
 8002a22:	d1e7      	bne.n	80029f4 <ssd1306_WriteString+0x10>
 8002a24:	68fb      	ldr	r3, [r7, #12]
 8002a26:	781b      	ldrb	r3, [r3, #0]
 8002a28:	4618      	mov	r0, r3
 8002a2a:	3710      	adds	r7, #16
 8002a2c:	46bd      	mov	sp, r7
 8002a2e:	bd80      	pop	{r7, pc}

08002a30 <ssd1306_SetCursor>:
 8002a30:	b480      	push	{r7}
 8002a32:	b083      	sub	sp, #12
 8002a34:	af00      	add	r7, sp, #0
 8002a36:	4603      	mov	r3, r0
 8002a38:	460a      	mov	r2, r1
 8002a3a:	71fb      	strb	r3, [r7, #7]
 8002a3c:	4613      	mov	r3, r2
 8002a3e:	71bb      	strb	r3, [r7, #6]
 8002a40:	79fb      	ldrb	r3, [r7, #7]
 8002a42:	b29a      	uxth	r2, r3
 8002a44:	4b05      	ldr	r3, [pc, #20]	@ (8002a5c <ssd1306_SetCursor+0x2c>)
 8002a46:	801a      	strh	r2, [r3, #0]
 8002a48:	79bb      	ldrb	r3, [r7, #6]
 8002a4a:	b29a      	uxth	r2, r3
 8002a4c:	4b03      	ldr	r3, [pc, #12]	@ (8002a5c <ssd1306_SetCursor+0x2c>)
 8002a4e:	805a      	strh	r2, [r3, #2]
 8002a50:	bf00      	nop
 8002a52:	370c      	adds	r7, #12
 8002a54:	46bd      	mov	sp, r7
 8002a56:	bc80      	pop	{r7}
 8002a58:	4770      	bx	lr
 8002a5a:	bf00      	nop
 8002a5c:	20000708 	.word	0x20000708

08002a60 <ssd1306_SetContrast>:
 8002a60:	b580      	push	{r7, lr}
 8002a62:	b084      	sub	sp, #16
 8002a64:	af00      	add	r7, sp, #0
 8002a66:	4603      	mov	r3, r0
 8002a68:	71fb      	strb	r3, [r7, #7]
 8002a6a:	2381      	movs	r3, #129	@ 0x81
 8002a6c:	73fb      	strb	r3, [r7, #15]
 8002a6e:	7bfb      	ldrb	r3, [r7, #15]
 8002a70:	4618      	mov	r0, r3
 8002a72:	f7ff fdf7 	bl	8002664 <ssd1306_WriteCommand>
 8002a76:	79fb      	ldrb	r3, [r7, #7]
 8002a78:	4618      	mov	r0, r3
 8002a7a:	f7ff fdf3 	bl	8002664 <ssd1306_WriteCommand>
 8002a7e:	bf00      	nop
 8002a80:	3710      	adds	r7, #16
 8002a82:	46bd      	mov	sp, r7
 8002a84:	bd80      	pop	{r7, pc}
	...

08002a88 <ssd1306_SetDisplayOn>:
 8002a88:	b580      	push	{r7, lr}
 8002a8a:	b084      	sub	sp, #16
 8002a8c:	af00      	add	r7, sp, #0
 8002a8e:	4603      	mov	r3, r0
 8002a90:	71fb      	strb	r3, [r7, #7]
 8002a92:	79fb      	ldrb	r3, [r7, #7]
 8002a94:	2b00      	cmp	r3, #0
 8002a96:	d005      	beq.n	8002aa4 <ssd1306_SetDisplayOn+0x1c>
 8002a98:	23af      	movs	r3, #175	@ 0xaf
 8002a9a:	73fb      	strb	r3, [r7, #15]
 8002a9c:	4b08      	ldr	r3, [pc, #32]	@ (8002ac0 <ssd1306_SetDisplayOn+0x38>)
 8002a9e:	2201      	movs	r2, #1
 8002aa0:	715a      	strb	r2, [r3, #5]
 8002aa2:	e004      	b.n	8002aae <ssd1306_SetDisplayOn+0x26>
 8002aa4:	23ae      	movs	r3, #174	@ 0xae
 8002aa6:	73fb      	strb	r3, [r7, #15]
 8002aa8:	4b05      	ldr	r3, [pc, #20]	@ (8002ac0 <ssd1306_SetDisplayOn+0x38>)
 8002aaa:	2200      	movs	r2, #0
 8002aac:	715a      	strb	r2, [r3, #5]
 8002aae:	7bfb      	ldrb	r3, [r7, #15]
 8002ab0:	4618      	mov	r0, r3
 8002ab2:	f7ff fdd7 	bl	8002664 <ssd1306_WriteCommand>
 8002ab6:	bf00      	nop
 8002ab8:	3710      	adds	r7, #16
 8002aba:	46bd      	mov	sp, r7
 8002abc:	bd80      	pop	{r7, pc}
 8002abe:	bf00      	nop
 8002ac0:	20000708 	.word	0x20000708

08002ac4 <mensaje_ssd>:
 8002ac4:	b580      	push	{r7, lr}
 8002ac6:	b086      	sub	sp, #24
 8002ac8:	af02      	add	r7, sp, #8
 8002aca:	60f8      	str	r0, [r7, #12]
 8002acc:	4638      	mov	r0, r7
 8002ace:	e880 000e 	stmia.w	r0, {r1, r2, r3}
 8002ad2:	f897 3020 	ldrb.w	r3, [r7, #32]
 8002ad6:	2b01      	cmp	r3, #1
 8002ad8:	d102      	bne.n	8002ae0 <mensaje_ssd+0x1c>
 8002ada:	2000      	movs	r0, #0
 8002adc:	f7ff fe5e 	bl	800279c <ssd1306_Fill>
 8002ae0:	7f3a      	ldrb	r2, [r7, #28]
 8002ae2:	7e3b      	ldrb	r3, [r7, #24]
 8002ae4:	4611      	mov	r1, r2
 8002ae6:	4618      	mov	r0, r3
 8002ae8:	f7ff ffa2 	bl	8002a30 <ssd1306_SetCursor>
 8002aec:	2301      	movs	r3, #1
 8002aee:	9300      	str	r3, [sp, #0]
 8002af0:	463b      	mov	r3, r7
 8002af2:	cb0e      	ldmia	r3, {r1, r2, r3}
 8002af4:	68f8      	ldr	r0, [r7, #12]
 8002af6:	f7ff ff75 	bl	80029e4 <ssd1306_WriteString>
 8002afa:	f7ff fe67 	bl	80027cc <ssd1306_UpdateScreen>
 8002afe:	bf00      	nop
 8002b00:	3710      	adds	r7, #16
 8002b02:	46bd      	mov	sp, r7
 8002b04:	bd80      	pop	{r7, pc}
	...

08002b08 <HAL_MspInit>:
 8002b08:	b480      	push	{r7}
 8002b0a:	b085      	sub	sp, #20
 8002b0c:	af00      	add	r7, sp, #0
 8002b0e:	4b15      	ldr	r3, [pc, #84]	@ (8002b64 <HAL_MspInit+0x5c>)
 8002b10:	699b      	ldr	r3, [r3, #24]
 8002b12:	4a14      	ldr	r2, [pc, #80]	@ (8002b64 <HAL_MspInit+0x5c>)
 8002b14:	f043 0301 	orr.w	r3, r3, #1
 8002b18:	6193      	str	r3, [r2, #24]
 8002b1a:	4b12      	ldr	r3, [pc, #72]	@ (8002b64 <HAL_MspInit+0x5c>)
 8002b1c:	699b      	ldr	r3, [r3, #24]
 8002b1e:	f003 0301 	and.w	r3, r3, #1
 8002b22:	60bb      	str	r3, [r7, #8]
 8002b24:	68bb      	ldr	r3, [r7, #8]
 8002b26:	4b0f      	ldr	r3, [pc, #60]	@ (8002b64 <HAL_MspInit+0x5c>)
 8002b28:	69db      	ldr	r3, [r3, #28]
 8002b2a:	4a0e      	ldr	r2, [pc, #56]	@ (8002b64 <HAL_MspInit+0x5c>)
 8002b2c:	f043 5380 	orr.w	r3, r3, #268435456	@ 0x10000000
 8002b30:	61d3      	str	r3, [r2, #28]
 8002b32:	4b0c      	ldr	r3, [pc, #48]	@ (8002b64 <HAL_MspInit+0x5c>)
 8002b34:	69db      	ldr	r3, [r3, #28]
 8002b36:	f003 5380 	and.w	r3, r3, #268435456	@ 0x10000000
 8002b3a:	607b      	str	r3, [r7, #4]
 8002b3c:	687b      	ldr	r3, [r7, #4]
 8002b3e:	4b0a      	ldr	r3, [pc, #40]	@ (8002b68 <HAL_MspInit+0x60>)
 8002b40:	685b      	ldr	r3, [r3, #4]
 8002b42:	60fb      	str	r3, [r7, #12]
 8002b44:	68fb      	ldr	r3, [r7, #12]
 8002b46:	f023 63e0 	bic.w	r3, r3, #117440512	@ 0x7000000
 8002b4a:	60fb      	str	r3, [r7, #12]
 8002b4c:	68fb      	ldr	r3, [r7, #12]
 8002b4e:	f043 7300 	orr.w	r3, r3, #33554432	@ 0x2000000
 8002b52:	60fb      	str	r3, [r7, #12]
 8002b54:	4a04      	ldr	r2, [pc, #16]	@ (8002b68 <HAL_MspInit+0x60>)
 8002b56:	68fb      	ldr	r3, [r7, #12]
 8002b58:	6053      	str	r3, [r2, #4]
 8002b5a:	bf00      	nop
 8002b5c:	3714      	adds	r7, #20
 8002b5e:	46bd      	mov	sp, r7
 8002b60:	bc80      	pop	{r7}
 8002b62:	4770      	bx	lr
 8002b64:	40021000 	.word	0x40021000
 8002b68:	40010000 	.word	0x40010000

08002b6c <HAL_ADC_MspInit>:
 8002b6c:	b580      	push	{r7, lr}
 8002b6e:	b088      	sub	sp, #32
 8002b70:	af00      	add	r7, sp, #0
 8002b72:	6078      	str	r0, [r7, #4]
 8002b74:	f107 0310 	add.w	r3, r7, #16
 8002b78:	2200      	movs	r2, #0
 8002b7a:	601a      	str	r2, [r3, #0]
 8002b7c:	605a      	str	r2, [r3, #4]
 8002b7e:	609a      	str	r2, [r3, #8]
 8002b80:	60da      	str	r2, [r3, #12]
 8002b82:	687b      	ldr	r3, [r7, #4]
 8002b84:	681b      	ldr	r3, [r3, #0]
 8002b86:	4a14      	ldr	r2, [pc, #80]	@ (8002bd8 <HAL_ADC_MspInit+0x6c>)
 8002b88:	4293      	cmp	r3, r2
 8002b8a:	d121      	bne.n	8002bd0 <HAL_ADC_MspInit+0x64>
 8002b8c:	4b13      	ldr	r3, [pc, #76]	@ (8002bdc <HAL_ADC_MspInit+0x70>)
 8002b8e:	699b      	ldr	r3, [r3, #24]
 8002b90:	4a12      	ldr	r2, [pc, #72]	@ (8002bdc <HAL_ADC_MspInit+0x70>)
 8002b92:	f443 7300 	orr.w	r3, r3, #512	@ 0x200
 8002b96:	6193      	str	r3, [r2, #24]
 8002b98:	4b10      	ldr	r3, [pc, #64]	@ (8002bdc <HAL_ADC_MspInit+0x70>)
 8002b9a:	699b      	ldr	r3, [r3, #24]
 8002b9c:	f403 7300 	and.w	r3, r3, #512	@ 0x200
 8002ba0:	60fb      	str	r3, [r7, #12]
 8002ba2:	68fb      	ldr	r3, [r7, #12]
 8002ba4:	4b0d      	ldr	r3, [pc, #52]	@ (8002bdc <HAL_ADC_MspInit+0x70>)
 8002ba6:	699b      	ldr	r3, [r3, #24]
 8002ba8:	4a0c      	ldr	r2, [pc, #48]	@ (8002bdc <HAL_ADC_MspInit+0x70>)
 8002baa:	f043 0304 	orr.w	r3, r3, #4
 8002bae:	6193      	str	r3, [r2, #24]
 8002bb0:	4b0a      	ldr	r3, [pc, #40]	@ (8002bdc <HAL_ADC_MspInit+0x70>)
 8002bb2:	699b      	ldr	r3, [r3, #24]
 8002bb4:	f003 0304 	and.w	r3, r3, #4
 8002bb8:	60bb      	str	r3, [r7, #8]
 8002bba:	68bb      	ldr	r3, [r7, #8]
 8002bbc:	2302      	movs	r3, #2
 8002bbe:	613b      	str	r3, [r7, #16]
 8002bc0:	2303      	movs	r3, #3
 8002bc2:	617b      	str	r3, [r7, #20]
 8002bc4:	f107 0310 	add.w	r3, r7, #16
 8002bc8:	4619      	mov	r1, r3
 8002bca:	4805      	ldr	r0, [pc, #20]	@ (8002be0 <HAL_ADC_MspInit+0x74>)
 8002bcc:	f000 fe30 	bl	8003830 <HAL_GPIO_Init>
 8002bd0:	bf00      	nop
 8002bd2:	3720      	adds	r7, #32
 8002bd4:	46bd      	mov	sp, r7
 8002bd6:	bd80      	pop	{r7, pc}
 8002bd8:	40012400 	.word	0x40012400
 8002bdc:	40021000 	.word	0x40021000
 8002be0:	40010800 	.word	0x40010800

08002be4 <HAL_I2C_MspInit>:
 8002be4:	b580      	push	{r7, lr}
 8002be6:	b08a      	sub	sp, #40	@ 0x28
 8002be8:	af00      	add	r7, sp, #0
 8002bea:	6078      	str	r0, [r7, #4]
 8002bec:	f107 0318 	add.w	r3, r7, #24
 8002bf0:	2200      	movs	r2, #0
 8002bf2:	601a      	str	r2, [r3, #0]
 8002bf4:	605a      	str	r2, [r3, #4]
 8002bf6:	609a      	str	r2, [r3, #8]
 8002bf8:	60da      	str	r2, [r3, #12]
 8002bfa:	687b      	ldr	r3, [r7, #4]
 8002bfc:	681b      	ldr	r3, [r3, #0]
 8002bfe:	4a2b      	ldr	r2, [pc, #172]	@ (8002cac <HAL_I2C_MspInit+0xc8>)
 8002c00:	4293      	cmp	r3, r2
 8002c02:	d124      	bne.n	8002c4e <HAL_I2C_MspInit+0x6a>
 8002c04:	4b2a      	ldr	r3, [pc, #168]	@ (8002cb0 <HAL_I2C_MspInit+0xcc>)
 8002c06:	699b      	ldr	r3, [r3, #24]
 8002c08:	4a29      	ldr	r2, [pc, #164]	@ (8002cb0 <HAL_I2C_MspInit+0xcc>)
 8002c0a:	f043 0308 	orr.w	r3, r3, #8
 8002c0e:	6193      	str	r3, [r2, #24]
 8002c10:	4b27      	ldr	r3, [pc, #156]	@ (8002cb0 <HAL_I2C_MspInit+0xcc>)
 8002c12:	699b      	ldr	r3, [r3, #24]
 8002c14:	f003 0308 	and.w	r3, r3, #8
 8002c18:	617b      	str	r3, [r7, #20]
 8002c1a:	697b      	ldr	r3, [r7, #20]
 8002c1c:	23c0      	movs	r3, #192	@ 0xc0
 8002c1e:	61bb      	str	r3, [r7, #24]
 8002c20:	2312      	movs	r3, #18
 8002c22:	61fb      	str	r3, [r7, #28]
 8002c24:	2303      	movs	r3, #3
 8002c26:	627b      	str	r3, [r7, #36]	@ 0x24
 8002c28:	f107 0318 	add.w	r3, r7, #24
 8002c2c:	4619      	mov	r1, r3
 8002c2e:	4821      	ldr	r0, [pc, #132]	@ (8002cb4 <HAL_I2C_MspInit+0xd0>)
 8002c30:	f000 fdfe 	bl	8003830 <HAL_GPIO_Init>
 8002c34:	4b1e      	ldr	r3, [pc, #120]	@ (8002cb0 <HAL_I2C_MspInit+0xcc>)
 8002c36:	69db      	ldr	r3, [r3, #28]
 8002c38:	4a1d      	ldr	r2, [pc, #116]	@ (8002cb0 <HAL_I2C_MspInit+0xcc>)
 8002c3a:	f443 1300 	orr.w	r3, r3, #2097152	@ 0x200000
 8002c3e:	61d3      	str	r3, [r2, #28]
 8002c40:	4b1b      	ldr	r3, [pc, #108]	@ (8002cb0 <HAL_I2C_MspInit+0xcc>)
 8002c42:	69db      	ldr	r3, [r3, #28]
 8002c44:	f403 1300 	and.w	r3, r3, #2097152	@ 0x200000
 8002c48:	613b      	str	r3, [r7, #16]
 8002c4a:	693b      	ldr	r3, [r7, #16]
 8002c4c:	e029      	b.n	8002ca2 <HAL_I2C_MspInit+0xbe>
 8002c4e:	687b      	ldr	r3, [r7, #4]
 8002c50:	681b      	ldr	r3, [r3, #0]
 8002c52:	4a19      	ldr	r2, [pc, #100]	@ (8002cb8 <HAL_I2C_MspInit+0xd4>)
 8002c54:	4293      	cmp	r3, r2
 8002c56:	d124      	bne.n	8002ca2 <HAL_I2C_MspInit+0xbe>
 8002c58:	4b15      	ldr	r3, [pc, #84]	@ (8002cb0 <HAL_I2C_MspInit+0xcc>)
 8002c5a:	699b      	ldr	r3, [r3, #24]
 8002c5c:	4a14      	ldr	r2, [pc, #80]	@ (8002cb0 <HAL_I2C_MspInit+0xcc>)
 8002c5e:	f043 0308 	orr.w	r3, r3, #8
 8002c62:	6193      	str	r3, [r2, #24]
 8002c64:	4b12      	ldr	r3, [pc, #72]	@ (8002cb0 <HAL_I2C_MspInit+0xcc>)
 8002c66:	699b      	ldr	r3, [r3, #24]
 8002c68:	f003 0308 	and.w	r3, r3, #8
 8002c6c:	60fb      	str	r3, [r7, #12]
 8002c6e:	68fb      	ldr	r3, [r7, #12]
 8002c70:	f44f 6340 	mov.w	r3, #3072	@ 0xc00
 8002c74:	61bb      	str	r3, [r7, #24]
 8002c76:	2312      	movs	r3, #18
 8002c78:	61fb      	str	r3, [r7, #28]
 8002c7a:	2303      	movs	r3, #3
 8002c7c:	627b      	str	r3, [r7, #36]	@ 0x24
 8002c7e:	f107 0318 	add.w	r3, r7, #24
 8002c82:	4619      	mov	r1, r3
 8002c84:	480b      	ldr	r0, [pc, #44]	@ (8002cb4 <HAL_I2C_MspInit+0xd0>)
 8002c86:	f000 fdd3 	bl	8003830 <HAL_GPIO_Init>
 8002c8a:	4b09      	ldr	r3, [pc, #36]	@ (8002cb0 <HAL_I2C_MspInit+0xcc>)
 8002c8c:	69db      	ldr	r3, [r3, #28]
 8002c8e:	4a08      	ldr	r2, [pc, #32]	@ (8002cb0 <HAL_I2C_MspInit+0xcc>)
 8002c90:	f443 0380 	orr.w	r3, r3, #4194304	@ 0x400000
 8002c94:	61d3      	str	r3, [r2, #28]
 8002c96:	4b06      	ldr	r3, [pc, #24]	@ (8002cb0 <HAL_I2C_MspInit+0xcc>)
 8002c98:	69db      	ldr	r3, [r3, #28]
 8002c9a:	f403 0380 	and.w	r3, r3, #4194304	@ 0x400000
 8002c9e:	60bb      	str	r3, [r7, #8]
 8002ca0:	68bb      	ldr	r3, [r7, #8]
 8002ca2:	bf00      	nop
 8002ca4:	3728      	adds	r7, #40	@ 0x28
 8002ca6:	46bd      	mov	sp, r7
 8002ca8:	bd80      	pop	{r7, pc}
 8002caa:	bf00      	nop
 8002cac:	40005400 	.word	0x40005400
 8002cb0:	40021000 	.word	0x40021000
 8002cb4:	40010c00 	.word	0x40010c00
 8002cb8:	40005800 	.word	0x40005800

08002cbc <HAL_SPI_MspInit>:
 8002cbc:	b580      	push	{r7, lr}
 8002cbe:	b088      	sub	sp, #32
 8002cc0:	af00      	add	r7, sp, #0
 8002cc2:	6078      	str	r0, [r7, #4]
 8002cc4:	f107 0310 	add.w	r3, r7, #16
 8002cc8:	2200      	movs	r2, #0
 8002cca:	601a      	str	r2, [r3, #0]
 8002ccc:	605a      	str	r2, [r3, #4]
 8002cce:	609a      	str	r2, [r3, #8]
 8002cd0:	60da      	str	r2, [r3, #12]
 8002cd2:	687b      	ldr	r3, [r7, #4]
 8002cd4:	681b      	ldr	r3, [r3, #0]
 8002cd6:	4a1b      	ldr	r2, [pc, #108]	@ (8002d44 <HAL_SPI_MspInit+0x88>)
 8002cd8:	4293      	cmp	r3, r2
 8002cda:	d12f      	bne.n	8002d3c <HAL_SPI_MspInit+0x80>
 8002cdc:	4b1a      	ldr	r3, [pc, #104]	@ (8002d48 <HAL_SPI_MspInit+0x8c>)
 8002cde:	699b      	ldr	r3, [r3, #24]
 8002ce0:	4a19      	ldr	r2, [pc, #100]	@ (8002d48 <HAL_SPI_MspInit+0x8c>)
 8002ce2:	f443 5380 	orr.w	r3, r3, #4096	@ 0x1000
 8002ce6:	6193      	str	r3, [r2, #24]
 8002ce8:	4b17      	ldr	r3, [pc, #92]	@ (8002d48 <HAL_SPI_MspInit+0x8c>)
 8002cea:	699b      	ldr	r3, [r3, #24]
 8002cec:	f403 5380 	and.w	r3, r3, #4096	@ 0x1000
 8002cf0:	60fb      	str	r3, [r7, #12]
 8002cf2:	68fb      	ldr	r3, [r7, #12]
 8002cf4:	4b14      	ldr	r3, [pc, #80]	@ (8002d48 <HAL_SPI_MspInit+0x8c>)
 8002cf6:	699b      	ldr	r3, [r3, #24]
 8002cf8:	4a13      	ldr	r2, [pc, #76]	@ (8002d48 <HAL_SPI_MspInit+0x8c>)
 8002cfa:	f043 0304 	orr.w	r3, r3, #4
 8002cfe:	6193      	str	r3, [r2, #24]
 8002d00:	4b11      	ldr	r3, [pc, #68]	@ (8002d48 <HAL_SPI_MspInit+0x8c>)
 8002d02:	699b      	ldr	r3, [r3, #24]
 8002d04:	f003 0304 	and.w	r3, r3, #4
 8002d08:	60bb      	str	r3, [r7, #8]
 8002d0a:	68bb      	ldr	r3, [r7, #8]
 8002d0c:	23a0      	movs	r3, #160	@ 0xa0
 8002d0e:	613b      	str	r3, [r7, #16]
 8002d10:	2302      	movs	r3, #2
 8002d12:	617b      	str	r3, [r7, #20]
 8002d14:	2303      	movs	r3, #3
 8002d16:	61fb      	str	r3, [r7, #28]
 8002d18:	f107 0310 	add.w	r3, r7, #16
 8002d1c:	4619      	mov	r1, r3
 8002d1e:	480b      	ldr	r0, [pc, #44]	@ (8002d4c <HAL_SPI_MspInit+0x90>)
 8002d20:	f000 fd86 	bl	8003830 <HAL_GPIO_Init>
 8002d24:	2340      	movs	r3, #64	@ 0x40
 8002d26:	613b      	str	r3, [r7, #16]
 8002d28:	2300      	movs	r3, #0
 8002d2a:	617b      	str	r3, [r7, #20]
 8002d2c:	2300      	movs	r3, #0
 8002d2e:	61bb      	str	r3, [r7, #24]
 8002d30:	f107 0310 	add.w	r3, r7, #16
 8002d34:	4619      	mov	r1, r3
 8002d36:	4805      	ldr	r0, [pc, #20]	@ (8002d4c <HAL_SPI_MspInit+0x90>)
 8002d38:	f000 fd7a 	bl	8003830 <HAL_GPIO_Init>
 8002d3c:	bf00      	nop
 8002d3e:	3720      	adds	r7, #32
 8002d40:	46bd      	mov	sp, r7
 8002d42:	bd80      	pop	{r7, pc}
 8002d44:	40013000 	.word	0x40013000
 8002d48:	40021000 	.word	0x40021000
 8002d4c:	40010800 	.word	0x40010800

08002d50 <HAL_TIM_Base_MspInit>:
 8002d50:	b480      	push	{r7}
 8002d52:	b085      	sub	sp, #20
 8002d54:	af00      	add	r7, sp, #0
 8002d56:	6078      	str	r0, [r7, #4]
 8002d58:	687b      	ldr	r3, [r7, #4]
 8002d5a:	681b      	ldr	r3, [r3, #0]
 8002d5c:	4a09      	ldr	r2, [pc, #36]	@ (8002d84 <HAL_TIM_Base_MspInit+0x34>)
 8002d5e:	4293      	cmp	r3, r2
 8002d60:	d10b      	bne.n	8002d7a <HAL_TIM_Base_MspInit+0x2a>
 8002d62:	4b09      	ldr	r3, [pc, #36]	@ (8002d88 <HAL_TIM_Base_MspInit+0x38>)
 8002d64:	699b      	ldr	r3, [r3, #24]
 8002d66:	4a08      	ldr	r2, [pc, #32]	@ (8002d88 <HAL_TIM_Base_MspInit+0x38>)
 8002d68:	f443 6300 	orr.w	r3, r3, #2048	@ 0x800
 8002d6c:	6193      	str	r3, [r2, #24]
 8002d6e:	4b06      	ldr	r3, [pc, #24]	@ (8002d88 <HAL_TIM_Base_MspInit+0x38>)
 8002d70:	699b      	ldr	r3, [r3, #24]
 8002d72:	f403 6300 	and.w	r3, r3, #2048	@ 0x800
 8002d76:	60fb      	str	r3, [r7, #12]
 8002d78:	68fb      	ldr	r3, [r7, #12]
 8002d7a:	bf00      	nop
 8002d7c:	3714      	adds	r7, #20
 8002d7e:	46bd      	mov	sp, r7
 8002d80:	bc80      	pop	{r7}
 8002d82:	4770      	bx	lr
 8002d84:	40012c00 	.word	0x40012c00
 8002d88:	40021000 	.word	0x40021000

08002d8c <HAL_UART_MspInit>:
 8002d8c:	b580      	push	{r7, lr}
 8002d8e:	b088      	sub	sp, #32
 8002d90:	af00      	add	r7, sp, #0
 8002d92:	6078      	str	r0, [r7, #4]
 8002d94:	f107 0310 	add.w	r3, r7, #16
 8002d98:	2200      	movs	r2, #0
 8002d9a:	601a      	str	r2, [r3, #0]
 8002d9c:	605a      	str	r2, [r3, #4]
 8002d9e:	609a      	str	r2, [r3, #8]
 8002da0:	60da      	str	r2, [r3, #12]
 8002da2:	687b      	ldr	r3, [r7, #4]
 8002da4:	681b      	ldr	r3, [r3, #0]
 8002da6:	4a20      	ldr	r2, [pc, #128]	@ (8002e28 <HAL_UART_MspInit+0x9c>)
 8002da8:	4293      	cmp	r3, r2
 8002daa:	d139      	bne.n	8002e20 <HAL_UART_MspInit+0x94>
 8002dac:	4b1f      	ldr	r3, [pc, #124]	@ (8002e2c <HAL_UART_MspInit+0xa0>)
 8002dae:	699b      	ldr	r3, [r3, #24]
 8002db0:	4a1e      	ldr	r2, [pc, #120]	@ (8002e2c <HAL_UART_MspInit+0xa0>)
 8002db2:	f443 4380 	orr.w	r3, r3, #16384	@ 0x4000
 8002db6:	6193      	str	r3, [r2, #24]
 8002db8:	4b1c      	ldr	r3, [pc, #112]	@ (8002e2c <HAL_UART_MspInit+0xa0>)
 8002dba:	699b      	ldr	r3, [r3, #24]
 8002dbc:	f403 4380 	and.w	r3, r3, #16384	@ 0x4000
 8002dc0:	60fb      	str	r3, [r7, #12]
 8002dc2:	68fb      	ldr	r3, [r7, #12]
 8002dc4:	4b19      	ldr	r3, [pc, #100]	@ (8002e2c <HAL_UART_MspInit+0xa0>)
 8002dc6:	699b      	ldr	r3, [r3, #24]
 8002dc8:	4a18      	ldr	r2, [pc, #96]	@ (8002e2c <HAL_UART_MspInit+0xa0>)
 8002dca:	f043 0304 	orr.w	r3, r3, #4
 8002dce:	6193      	str	r3, [r2, #24]
 8002dd0:	4b16      	ldr	r3, [pc, #88]	@ (8002e2c <HAL_UART_MspInit+0xa0>)
 8002dd2:	699b      	ldr	r3, [r3, #24]
 8002dd4:	f003 0304 	and.w	r3, r3, #4
 8002dd8:	60bb      	str	r3, [r7, #8]
 8002dda:	68bb      	ldr	r3, [r7, #8]
 8002ddc:	f44f 7300 	mov.w	r3, #512	@ 0x200
 8002de0:	613b      	str	r3, [r7, #16]
 8002de2:	2302      	movs	r3, #2
 8002de4:	617b      	str	r3, [r7, #20]
 8002de6:	2303      	movs	r3, #3
 8002de8:	61fb      	str	r3, [r7, #28]
 8002dea:	f107 0310 	add.w	r3, r7, #16
 8002dee:	4619      	mov	r1, r3
 8002df0:	480f      	ldr	r0, [pc, #60]	@ (8002e30 <HAL_UART_MspInit+0xa4>)
 8002df2:	f000 fd1d 	bl	8003830 <HAL_GPIO_Init>
 8002df6:	f44f 6380 	mov.w	r3, #1024	@ 0x400
 8002dfa:	613b      	str	r3, [r7, #16]
 8002dfc:	2300      	movs	r3, #0
 8002dfe:	617b      	str	r3, [r7, #20]
 8002e00:	2300      	movs	r3, #0
 8002e02:	61bb      	str	r3, [r7, #24]
 8002e04:	f107 0310 	add.w	r3, r7, #16
 8002e08:	4619      	mov	r1, r3
 8002e0a:	4809      	ldr	r0, [pc, #36]	@ (8002e30 <HAL_UART_MspInit+0xa4>)
 8002e0c:	f000 fd10 	bl	8003830 <HAL_GPIO_Init>
 8002e10:	2200      	movs	r2, #0
 8002e12:	2100      	movs	r1, #0
 8002e14:	2025      	movs	r0, #37	@ 0x25
 8002e16:	f000 fc22 	bl	800365e <HAL_NVIC_SetPriority>
 8002e1a:	2025      	movs	r0, #37	@ 0x25
 8002e1c:	f000 fc3b 	bl	8003696 <HAL_NVIC_EnableIRQ>
 8002e20:	bf00      	nop
 8002e22:	3720      	adds	r7, #32
 8002e24:	46bd      	mov	sp, r7
 8002e26:	bd80      	pop	{r7, pc}
 8002e28:	40013800 	.word	0x40013800
 8002e2c:	40021000 	.word	0x40021000
 8002e30:	40010800 	.word	0x40010800

08002e34 <NMI_Handler>:
 8002e34:	b480      	push	{r7}
 8002e36:	af00      	add	r7, sp, #0
 8002e38:	bf00      	nop
 8002e3a:	e7fd      	b.n	8002e38 <NMI_Handler+0x4>

08002e3c <HardFault_Handler>:
 8002e3c:	b480      	push	{r7}
 8002e3e:	af00      	add	r7, sp, #0
 8002e40:	bf00      	nop
 8002e42:	e7fd      	b.n	8002e40 <HardFault_Handler+0x4>

08002e44 <MemManage_Handler>:
 8002e44:	b480      	push	{r7}
 8002e46:	af00      	add	r7, sp, #0
 8002e48:	bf00      	nop
 8002e4a:	e7fd      	b.n	8002e48 <MemManage_Handler+0x4>

08002e4c <BusFault_Handler>:
 8002e4c:	b480      	push	{r7}
 8002e4e:	af00      	add	r7, sp, #0
 8002e50:	bf00      	nop
 8002e52:	e7fd      	b.n	8002e50 <BusFault_Handler+0x4>

08002e54 <UsageFault_Handler>:
 8002e54:	b480      	push	{r7}
 8002e56:	af00      	add	r7, sp, #0
 8002e58:	bf00      	nop
 8002e5a:	e7fd      	b.n	8002e58 <UsageFault_Handler+0x4>

08002e5c <SVC_Handler>:
 8002e5c:	b480      	push	{r7}
 8002e5e:	af00      	add	r7, sp, #0
 8002e60:	bf00      	nop
 8002e62:	46bd      	mov	sp, r7
 8002e64:	bc80      	pop	{r7}
 8002e66:	4770      	bx	lr

08002e68 <DebugMon_Handler>:
 8002e68:	b480      	push	{r7}
 8002e6a:	af00      	add	r7, sp, #0
 8002e6c:	bf00      	nop
 8002e6e:	46bd      	mov	sp, r7
 8002e70:	bc80      	pop	{r7}
 8002e72:	4770      	bx	lr

08002e74 <PendSV_Handler>:
 8002e74:	b480      	push	{r7}
 8002e76:	af00      	add	r7, sp, #0
 8002e78:	bf00      	nop
 8002e7a:	46bd      	mov	sp, r7
 8002e7c:	bc80      	pop	{r7}
 8002e7e:	4770      	bx	lr

08002e80 <SysTick_Handler>:
 8002e80:	b580      	push	{r7, lr}
 8002e82:	af00      	add	r7, sp, #0
 8002e84:	f000 f8c2 	bl	800300c <HAL_IncTick>
 8002e88:	bf00      	nop
 8002e8a:	bd80      	pop	{r7, pc}

08002e8c <EXTI0_IRQHandler>:
 8002e8c:	b580      	push	{r7, lr}
 8002e8e:	af00      	add	r7, sp, #0
 8002e90:	2001      	movs	r0, #1
 8002e92:	f000 fe83 	bl	8003b9c <HAL_GPIO_EXTI_IRQHandler>
 8002e96:	bf00      	nop
 8002e98:	bd80      	pop	{r7, pc}

08002e9a <EXTI4_IRQHandler>:
 8002e9a:	b580      	push	{r7, lr}
 8002e9c:	af00      	add	r7, sp, #0
 8002e9e:	2010      	movs	r0, #16
 8002ea0:	f000 fe7c 	bl	8003b9c <HAL_GPIO_EXTI_IRQHandler>
 8002ea4:	bf00      	nop
 8002ea6:	bd80      	pop	{r7, pc}

08002ea8 <USART1_IRQHandler>:
 8002ea8:	b580      	push	{r7, lr}
 8002eaa:	af00      	add	r7, sp, #0
 8002eac:	4802      	ldr	r0, [pc, #8]	@ (8002eb8 <USART1_IRQHandler+0x10>)
 8002eae:	f003 fd27 	bl	8006900 <HAL_UART_IRQHandler>
 8002eb2:	bf00      	nop
 8002eb4:	bd80      	pop	{r7, pc}
 8002eb6:	bf00      	nop
 8002eb8:	20000270 	.word	0x20000270

08002ebc <_sbrk>:
 8002ebc:	b580      	push	{r7, lr}
 8002ebe:	b086      	sub	sp, #24
 8002ec0:	af00      	add	r7, sp, #0
 8002ec2:	6078      	str	r0, [r7, #4]
 8002ec4:	4a14      	ldr	r2, [pc, #80]	@ (8002f18 <_sbrk+0x5c>)
 8002ec6:	4b15      	ldr	r3, [pc, #84]	@ (8002f1c <_sbrk+0x60>)
 8002ec8:	1ad3      	subs	r3, r2, r3
 8002eca:	617b      	str	r3, [r7, #20]
 8002ecc:	697b      	ldr	r3, [r7, #20]
 8002ece:	613b      	str	r3, [r7, #16]
 8002ed0:	4b13      	ldr	r3, [pc, #76]	@ (8002f20 <_sbrk+0x64>)
 8002ed2:	681b      	ldr	r3, [r3, #0]
 8002ed4:	2b00      	cmp	r3, #0
 8002ed6:	d102      	bne.n	8002ede <_sbrk+0x22>
 8002ed8:	4b11      	ldr	r3, [pc, #68]	@ (8002f20 <_sbrk+0x64>)
 8002eda:	4a12      	ldr	r2, [pc, #72]	@ (8002f24 <_sbrk+0x68>)
 8002edc:	601a      	str	r2, [r3, #0]
 8002ede:	4b10      	ldr	r3, [pc, #64]	@ (8002f20 <_sbrk+0x64>)
 8002ee0:	681a      	ldr	r2, [r3, #0]
 8002ee2:	687b      	ldr	r3, [r7, #4]
 8002ee4:	4413      	add	r3, r2
 8002ee6:	693a      	ldr	r2, [r7, #16]
 8002ee8:	429a      	cmp	r2, r3
 8002eea:	d207      	bcs.n	8002efc <_sbrk+0x40>
 8002eec:	f004 fec4 	bl	8007c78 <__errno>
 8002ef0:	4603      	mov	r3, r0
 8002ef2:	220c      	movs	r2, #12
 8002ef4:	601a      	str	r2, [r3, #0]
 8002ef6:	f04f 33ff 	mov.w	r3, #4294967295
 8002efa:	e009      	b.n	8002f10 <_sbrk+0x54>
 8002efc:	4b08      	ldr	r3, [pc, #32]	@ (8002f20 <_sbrk+0x64>)
 8002efe:	681b      	ldr	r3, [r3, #0]
 8002f00:	60fb      	str	r3, [r7, #12]
 8002f02:	4b07      	ldr	r3, [pc, #28]	@ (8002f20 <_sbrk+0x64>)
 8002f04:	681a      	ldr	r2, [r3, #0]
 8002f06:	687b      	ldr	r3, [r7, #4]
 8002f08:	4413      	add	r3, r2
 8002f0a:	4a05      	ldr	r2, [pc, #20]	@ (8002f20 <_sbrk+0x64>)
 8002f0c:	6013      	str	r3, [r2, #0]
 8002f0e:	68fb      	ldr	r3, [r7, #12]
 8002f10:	4618      	mov	r0, r3
 8002f12:	3718      	adds	r7, #24
 8002f14:	46bd      	mov	sp, r7
 8002f16:	bd80      	pop	{r7, pc}
 8002f18:	20005000 	.word	0x20005000
 8002f1c:	00000400 	.word	0x00000400
 8002f20:	20000710 	.word	0x20000710
 8002f24:	20000860 	.word	0x20000860

08002f28 <SystemInit>:
 8002f28:	b480      	push	{r7}
 8002f2a:	af00      	add	r7, sp, #0
 8002f2c:	bf00      	nop
 8002f2e:	46bd      	mov	sp, r7
 8002f30:	bc80      	pop	{r7}
 8002f32:	4770      	bx	lr

08002f34 <Reset_Handler>:
  .weak Reset_Handler
  .type Reset_Handler, %function
Reset_Handler:

/* Call the clock system initialization function.*/
    bl  SystemInit
 8002f34:	f7ff fff8 	bl	8002f28 <SystemInit>

/* Copy the data segment initializers from flash to SRAM */
  ldr r0, =_sdata
 8002f38:	480b      	ldr	r0, [pc, #44]	@ (8002f68 <LoopFillZerobss+0xe>)
  ldr r1, =_edata
 8002f3a:	490c      	ldr	r1, [pc, #48]	@ (8002f6c <LoopFillZerobss+0x12>)
  ldr r2, =_sidata
 8002f3c:	4a0c      	ldr	r2, [pc, #48]	@ (8002f70 <LoopFillZerobss+0x16>)
  movs r3, #0
 8002f3e:	2300      	movs	r3, #0
  b LoopCopyDataInit
 8002f40:	e002      	b.n	8002f48 <LoopCopyDataInit>

08002f42 <CopyDataInit>:

CopyDataInit:
  ldr r4, [r2, r3]
 8002f42:	58d4      	ldr	r4, [r2, r3]
  str r4, [r0, r3]
 8002f44:	50c4      	str	r4, [r0, r3]
  adds r3, r3, #4
 8002f46:	3304      	adds	r3, #4

08002f48 <LoopCopyDataInit>:

LoopCopyDataInit:
  adds r4, r0, r3
 8002f48:	18c4      	adds	r4, r0, r3
  cmp r4, r1
 8002f4a:	428c      	cmp	r4, r1
  bcc CopyDataInit
 8002f4c:	d3f9      	bcc.n	8002f42 <CopyDataInit>
  
/* Zero fill the bss segment. */
  ldr r2, =_sbss
 8002f4e:	4a09      	ldr	r2, [pc, #36]	@ (8002f74 <LoopFillZerobss+0x1a>)
  ldr r4, =_ebss
 8002f50:	4c09      	ldr	r4, [pc, #36]	@ (8002f78 <LoopFillZerobss+0x1e>)
  movs r3, #0
 8002f52:	2300      	movs	r3, #0
  b LoopFillZerobss
 8002f54:	e001      	b.n	8002f5a <LoopFillZerobss>

08002f56 <FillZerobss>:

FillZerobss:
  str  r3, [r2]
 8002f56:	6013      	str	r3, [r2, #0]
  adds r2, r2, #4
 8002f58:	3204      	adds	r2, #4

08002f5a <LoopFillZerobss>:

LoopFillZerobss:
  cmp r2, r4
 8002f5a:	42a2      	cmp	r2, r4
  bcc FillZerobss
 8002f5c:	d3fb      	bcc.n	8002f56 <FillZerobss>

/* Call static constructors */
    bl __libc_init_array
 8002f5e:	f004 fe91 	bl	8007c84 <__libc_init_array>
/* Call the application's entry point.*/
  bl main
 8002f62:	f7fe fd0d 	bl	8001980 <main>
  bx lr
 8002f66:	4770      	bx	lr
  ldr r0, =_sdata
 8002f68:	20000000 	.word	0x20000000
  ldr r1, =_edata
 8002f6c:	20000064 	.word	0x20000064
  ldr r2, =_sidata
 8002f70:	0800929c 	.word	0x0800929c
  ldr r2, =_sbss
 8002f74:	20000064 	.word	0x20000064
  ldr r4, =_ebss
 8002f78:	20000860 	.word	0x20000860

08002f7c <ADC1_2_IRQHandler>:
 * @retval : None
*/
    .section .text.Default_Handler,"ax",%progbits
Default_Handler:
Infinite_Loop:
  b Infinite_Loop
 8002f7c:	e7fe      	b.n	8002f7c <ADC1_2_IRQHandler>
	...

08002f80 <HAL_Init>:
 8002f80:	b580      	push	{r7, lr}
 8002f82:	af00      	add	r7, sp, #0
 8002f84:	4b08      	ldr	r3, [pc, #32]	@ (8002fa8 <HAL_Init+0x28>)
 8002f86:	681b      	ldr	r3, [r3, #0]
 8002f88:	4a07      	ldr	r2, [pc, #28]	@ (8002fa8 <HAL_Init+0x28>)
 8002f8a:	f043 0310 	orr.w	r3, r3, #16
 8002f8e:	6013      	str	r3, [r2, #0]
 8002f90:	2003      	movs	r0, #3
 8002f92:	f000 fb59 	bl	8003648 <HAL_NVIC_SetPriorityGrouping>
 8002f96:	200f      	movs	r0, #15
 8002f98:	f000 f808 	bl	8002fac <HAL_InitTick>
 8002f9c:	f7ff fdb4 	bl	8002b08 <HAL_MspInit>
 8002fa0:	2300      	movs	r3, #0
 8002fa2:	4618      	mov	r0, r3
 8002fa4:	bd80      	pop	{r7, pc}
 8002fa6:	bf00      	nop
 8002fa8:	40022000 	.word	0x40022000

08002fac <HAL_InitTick>:
 8002fac:	b580      	push	{r7, lr}
 8002fae:	b082      	sub	sp, #8
 8002fb0:	af00      	add	r7, sp, #0
 8002fb2:	6078      	str	r0, [r7, #4]
 8002fb4:	4b12      	ldr	r3, [pc, #72]	@ (8003000 <HAL_InitTick+0x54>)
 8002fb6:	681a      	ldr	r2, [r3, #0]
 8002fb8:	4b12      	ldr	r3, [pc, #72]	@ (8003004 <HAL_InitTick+0x58>)
 8002fba:	781b      	ldrb	r3, [r3, #0]
 8002fbc:	4619      	mov	r1, r3
 8002fbe:	f44f 737a 	mov.w	r3, #1000	@ 0x3e8
 8002fc2:	fbb3 f3f1 	udiv	r3, r3, r1
 8002fc6:	fbb2 f3f3 	udiv	r3, r2, r3
 8002fca:	4618      	mov	r0, r3
 8002fcc:	f000 fb71 	bl	80036b2 <HAL_SYSTICK_Config>
 8002fd0:	4603      	mov	r3, r0
 8002fd2:	2b00      	cmp	r3, #0
 8002fd4:	d001      	beq.n	8002fda <HAL_InitTick+0x2e>
 8002fd6:	2301      	movs	r3, #1
 8002fd8:	e00e      	b.n	8002ff8 <HAL_InitTick+0x4c>
 8002fda:	687b      	ldr	r3, [r7, #4]
 8002fdc:	2b0f      	cmp	r3, #15
 8002fde:	d80a      	bhi.n	8002ff6 <HAL_InitTick+0x4a>
 8002fe0:	2200      	movs	r2, #0
 8002fe2:	6879      	ldr	r1, [r7, #4]
 8002fe4:	f04f 30ff 	mov.w	r0, #4294967295
 8002fe8:	f000 fb39 	bl	800365e <HAL_NVIC_SetPriority>
 8002fec:	4a06      	ldr	r2, [pc, #24]	@ (8003008 <HAL_InitTick+0x5c>)
 8002fee:	687b      	ldr	r3, [r7, #4]
 8002ff0:	6013      	str	r3, [r2, #0]
 8002ff2:	2300      	movs	r3, #0
 8002ff4:	e000      	b.n	8002ff8 <HAL_InitTick+0x4c>
 8002ff6:	2301      	movs	r3, #1
 8002ff8:	4618      	mov	r0, r3
 8002ffa:	3708      	adds	r7, #8
 8002ffc:	46bd      	mov	sp, r7
 8002ffe:	bd80      	pop	{r7, pc}
 8003000:	20000008 	.word	0x20000008
 8003004:	20000010 	.word	0x20000010
 8003008:	2000000c 	.word	0x2000000c

0800300c <HAL_IncTick>:
 800300c:	b480      	push	{r7}
 800300e:	af00      	add	r7, sp, #0
 8003010:	4b05      	ldr	r3, [pc, #20]	@ (8003028 <HAL_IncTick+0x1c>)
 8003012:	781b      	ldrb	r3, [r3, #0]
 8003014:	461a      	mov	r2, r3
 8003016:	4b05      	ldr	r3, [pc, #20]	@ (800302c <HAL_IncTick+0x20>)
 8003018:	681b      	ldr	r3, [r3, #0]
 800301a:	4413      	add	r3, r2
 800301c:	4a03      	ldr	r2, [pc, #12]	@ (800302c <HAL_IncTick+0x20>)
 800301e:	6013      	str	r3, [r2, #0]
 8003020:	bf00      	nop
 8003022:	46bd      	mov	sp, r7
 8003024:	bc80      	pop	{r7}
 8003026:	4770      	bx	lr
 8003028:	20000010 	.word	0x20000010
 800302c:	20000714 	.word	0x20000714

08003030 <HAL_GetTick>:
 8003030:	b480      	push	{r7}
 8003032:	af00      	add	r7, sp, #0
 8003034:	4b02      	ldr	r3, [pc, #8]	@ (8003040 <HAL_GetTick+0x10>)
 8003036:	681b      	ldr	r3, [r3, #0]
 8003038:	4618      	mov	r0, r3
 800303a:	46bd      	mov	sp, r7
 800303c:	bc80      	pop	{r7}
 800303e:	4770      	bx	lr
 8003040:	20000714 	.word	0x20000714

08003044 <HAL_Delay>:
 8003044:	b580      	push	{r7, lr}
 8003046:	b084      	sub	sp, #16
 8003048:	af00      	add	r7, sp, #0
 800304a:	6078      	str	r0, [r7, #4]
 800304c:	f7ff fff0 	bl	8003030 <HAL_GetTick>
 8003050:	60b8      	str	r0, [r7, #8]
 8003052:	687b      	ldr	r3, [r7, #4]
 8003054:	60fb      	str	r3, [r7, #12]
 8003056:	68fb      	ldr	r3, [r7, #12]
 8003058:	f1b3 3fff 	cmp.w	r3, #4294967295
 800305c:	d005      	beq.n	800306a <HAL_Delay+0x26>
 800305e:	4b0a      	ldr	r3, [pc, #40]	@ (8003088 <HAL_Delay+0x44>)
 8003060:	781b      	ldrb	r3, [r3, #0]
 8003062:	461a      	mov	r2, r3
 8003064:	68fb      	ldr	r3, [r7, #12]
 8003066:	4413      	add	r3, r2
 8003068:	60fb      	str	r3, [r7, #12]
 800306a:	bf00      	nop
 800306c:	f7ff ffe0 	bl	8003030 <HAL_GetTick>
 8003070:	4602      	mov	r2, r0
 8003072:	68bb      	ldr	r3, [r7, #8]
 8003074:	1ad3      	subs	r3, r2, r3
 8003076:	68fa      	ldr	r2, [r7, #12]
 8003078:	429a      	cmp	r2, r3
 800307a:	d8f7      	bhi.n	800306c <HAL_Delay+0x28>
 800307c:	bf00      	nop
 800307e:	bf00      	nop
 8003080:	3710      	adds	r7, #16
 8003082:	46bd      	mov	sp, r7
 8003084:	bd80      	pop	{r7, pc}
 8003086:	bf00      	nop
 8003088:	20000010 	.word	0x20000010

0800308c <HAL_ADC_Init>:
 800308c:	b580      	push	{r7, lr}
 800308e:	b086      	sub	sp, #24
 8003090:	af00      	add	r7, sp, #0
 8003092:	6078      	str	r0, [r7, #4]
 8003094:	2300      	movs	r3, #0
 8003096:	75fb      	strb	r3, [r7, #23]
 8003098:	2300      	movs	r3, #0
 800309a:	613b      	str	r3, [r7, #16]
 800309c:	2300      	movs	r3, #0
 800309e:	60bb      	str	r3, [r7, #8]
 80030a0:	2300      	movs	r3, #0
 80030a2:	60fb      	str	r3, [r7, #12]
 80030a4:	687b      	ldr	r3, [r7, #4]
 80030a6:	2b00      	cmp	r3, #0
 80030a8:	d101      	bne.n	80030ae <HAL_ADC_Init+0x22>
 80030aa:	2301      	movs	r3, #1
 80030ac:	e0be      	b.n	800322c <HAL_ADC_Init+0x1a0>
 80030ae:	687b      	ldr	r3, [r7, #4]
 80030b0:	689b      	ldr	r3, [r3, #8]
 80030b2:	2b00      	cmp	r3, #0
 80030b4:	687b      	ldr	r3, [r7, #4]
 80030b6:	6a9b      	ldr	r3, [r3, #40]	@ 0x28
 80030b8:	2b00      	cmp	r3, #0
 80030ba:	d109      	bne.n	80030d0 <HAL_ADC_Init+0x44>
 80030bc:	687b      	ldr	r3, [r7, #4]
 80030be:	2200      	movs	r2, #0
 80030c0:	62da      	str	r2, [r3, #44]	@ 0x2c
 80030c2:	687b      	ldr	r3, [r7, #4]
 80030c4:	2200      	movs	r2, #0
 80030c6:	f883 2024 	strb.w	r2, [r3, #36]	@ 0x24
 80030ca:	6878      	ldr	r0, [r7, #4]
 80030cc:	f7ff fd4e 	bl	8002b6c <HAL_ADC_MspInit>
 80030d0:	6878      	ldr	r0, [r7, #4]
 80030d2:	f000 f9ab 	bl	800342c <ADC_ConversionStop_Disable>
 80030d6:	4603      	mov	r3, r0
 80030d8:	75fb      	strb	r3, [r7, #23]
 80030da:	687b      	ldr	r3, [r7, #4]
 80030dc:	6a9b      	ldr	r3, [r3, #40]	@ 0x28
 80030de:	f003 0310 	and.w	r3, r3, #16
 80030e2:	2b00      	cmp	r3, #0
 80030e4:	f040 8099 	bne.w	800321a <HAL_ADC_Init+0x18e>
 80030e8:	7dfb      	ldrb	r3, [r7, #23]
 80030ea:	2b00      	cmp	r3, #0
 80030ec:	f040 8095 	bne.w	800321a <HAL_ADC_Init+0x18e>
 80030f0:	687b      	ldr	r3, [r7, #4]
 80030f2:	6a9b      	ldr	r3, [r3, #40]	@ 0x28
 80030f4:	f423 5388 	bic.w	r3, r3, #4352	@ 0x1100
 80030f8:	f023 0302 	bic.w	r3, r3, #2
 80030fc:	f043 0202 	orr.w	r2, r3, #2
 8003100:	687b      	ldr	r3, [r7, #4]
 8003102:	629a      	str	r2, [r3, #40]	@ 0x28
 8003104:	687b      	ldr	r3, [r7, #4]
 8003106:	685a      	ldr	r2, [r3, #4]
 8003108:	687b      	ldr	r3, [r7, #4]
 800310a:	69db      	ldr	r3, [r3, #28]
 800310c:	431a      	orrs	r2, r3
 800310e:	687b      	ldr	r3, [r7, #4]
 8003110:	7b1b      	ldrb	r3, [r3, #12]
 8003112:	005b      	lsls	r3, r3, #1
 8003114:	4313      	orrs	r3, r2
 8003116:	68ba      	ldr	r2, [r7, #8]
 8003118:	4313      	orrs	r3, r2
 800311a:	60bb      	str	r3, [r7, #8]
 800311c:	687b      	ldr	r3, [r7, #4]
 800311e:	689b      	ldr	r3, [r3, #8]
 8003120:	f5b3 7f80 	cmp.w	r3, #256	@ 0x100
 8003124:	d003      	beq.n	800312e <HAL_ADC_Init+0xa2>
 8003126:	687b      	ldr	r3, [r7, #4]
 8003128:	689b      	ldr	r3, [r3, #8]
 800312a:	2b01      	cmp	r3, #1
 800312c:	d102      	bne.n	8003134 <HAL_ADC_Init+0xa8>
 800312e:	f44f 7380 	mov.w	r3, #256	@ 0x100
 8003132:	e000      	b.n	8003136 <HAL_ADC_Init+0xaa>
 8003134:	2300      	movs	r3, #0
 8003136:	693a      	ldr	r2, [r7, #16]
 8003138:	4313      	orrs	r3, r2
 800313a:	613b      	str	r3, [r7, #16]
 800313c:	687b      	ldr	r3, [r7, #4]
 800313e:	7d1b      	ldrb	r3, [r3, #20]
 8003140:	2b01      	cmp	r3, #1
 8003142:	d119      	bne.n	8003178 <HAL_ADC_Init+0xec>
 8003144:	687b      	ldr	r3, [r7, #4]
 8003146:	7b1b      	ldrb	r3, [r3, #12]
 8003148:	2b00      	cmp	r3, #0
 800314a:	d109      	bne.n	8003160 <HAL_ADC_Init+0xd4>
 800314c:	687b      	ldr	r3, [r7, #4]
 800314e:	699b      	ldr	r3, [r3, #24]
 8003150:	3b01      	subs	r3, #1
 8003152:	035a      	lsls	r2, r3, #13
 8003154:	693b      	ldr	r3, [r7, #16]
 8003156:	4313      	orrs	r3, r2
 8003158:	f443 6300 	orr.w	r3, r3, #2048	@ 0x800
 800315c:	613b      	str	r3, [r7, #16]
 800315e:	e00b      	b.n	8003178 <HAL_ADC_Init+0xec>
 8003160:	687b      	ldr	r3, [r7, #4]
 8003162:	6a9b      	ldr	r3, [r3, #40]	@ 0x28
 8003164:	f043 0220 	orr.w	r2, r3, #32
 8003168:	687b      	ldr	r3, [r7, #4]
 800316a:	629a      	str	r2, [r3, #40]	@ 0x28
 800316c:	687b      	ldr	r3, [r7, #4]
 800316e:	6adb      	ldr	r3, [r3, #44]	@ 0x2c
 8003170:	f043 0201 	orr.w	r2, r3, #1
 8003174:	687b      	ldr	r3, [r7, #4]
 8003176:	62da      	str	r2, [r3, #44]	@ 0x2c
 8003178:	687b      	ldr	r3, [r7, #4]
 800317a:	681b      	ldr	r3, [r3, #0]
 800317c:	685b      	ldr	r3, [r3, #4]
 800317e:	f423 4169 	bic.w	r1, r3, #59648	@ 0xe900
 8003182:	687b      	ldr	r3, [r7, #4]
 8003184:	681b      	ldr	r3, [r3, #0]
 8003186:	693a      	ldr	r2, [r7, #16]
 8003188:	430a      	orrs	r2, r1
 800318a:	605a      	str	r2, [r3, #4]
 800318c:	687b      	ldr	r3, [r7, #4]
 800318e:	681b      	ldr	r3, [r3, #0]
 8003190:	689a      	ldr	r2, [r3, #8]
 8003192:	4b28      	ldr	r3, [pc, #160]	@ (8003234 <HAL_ADC_Init+0x1a8>)
 8003194:	4013      	ands	r3, r2
 8003196:	687a      	ldr	r2, [r7, #4]
 8003198:	6812      	ldr	r2, [r2, #0]
 800319a:	68b9      	ldr	r1, [r7, #8]
 800319c:	430b      	orrs	r3, r1
 800319e:	6093      	str	r3, [r2, #8]
 80031a0:	687b      	ldr	r3, [r7, #4]
 80031a2:	689b      	ldr	r3, [r3, #8]
 80031a4:	f5b3 7f80 	cmp.w	r3, #256	@ 0x100
 80031a8:	d003      	beq.n	80031b2 <HAL_ADC_Init+0x126>
 80031aa:	687b      	ldr	r3, [r7, #4]
 80031ac:	689b      	ldr	r3, [r3, #8]
 80031ae:	2b01      	cmp	r3, #1
 80031b0:	d104      	bne.n	80031bc <HAL_ADC_Init+0x130>
 80031b2:	687b      	ldr	r3, [r7, #4]
 80031b4:	691b      	ldr	r3, [r3, #16]
 80031b6:	3b01      	subs	r3, #1
 80031b8:	051b      	lsls	r3, r3, #20
 80031ba:	60fb      	str	r3, [r7, #12]
 80031bc:	687b      	ldr	r3, [r7, #4]
 80031be:	681b      	ldr	r3, [r3, #0]
 80031c0:	6adb      	ldr	r3, [r3, #44]	@ 0x2c
 80031c2:	f423 0170 	bic.w	r1, r3, #15728640	@ 0xf00000
 80031c6:	687b      	ldr	r3, [r7, #4]
 80031c8:	681b      	ldr	r3, [r3, #0]
 80031ca:	68fa      	ldr	r2, [r7, #12]
 80031cc:	430a      	orrs	r2, r1
 80031ce:	62da      	str	r2, [r3, #44]	@ 0x2c
 80031d0:	687b      	ldr	r3, [r7, #4]
 80031d2:	681b      	ldr	r3, [r3, #0]
 80031d4:	689a      	ldr	r2, [r3, #8]
 80031d6:	4b18      	ldr	r3, [pc, #96]	@ (8003238 <HAL_ADC_Init+0x1ac>)
 80031d8:	4013      	ands	r3, r2
 80031da:	68ba      	ldr	r2, [r7, #8]
 80031dc:	429a      	cmp	r2, r3
 80031de:	d10b      	bne.n	80031f8 <HAL_ADC_Init+0x16c>
 80031e0:	687b      	ldr	r3, [r7, #4]
 80031e2:	2200      	movs	r2, #0
 80031e4:	62da      	str	r2, [r3, #44]	@ 0x2c
 80031e6:	687b      	ldr	r3, [r7, #4]
 80031e8:	6a9b      	ldr	r3, [r3, #40]	@ 0x28
 80031ea:	f023 0303 	bic.w	r3, r3, #3
 80031ee:	f043 0201 	orr.w	r2, r3, #1
 80031f2:	687b      	ldr	r3, [r7, #4]
 80031f4:	629a      	str	r2, [r3, #40]	@ 0x28
 80031f6:	e018      	b.n	800322a <HAL_ADC_Init+0x19e>
 80031f8:	687b      	ldr	r3, [r7, #4]
 80031fa:	6a9b      	ldr	r3, [r3, #40]	@ 0x28
 80031fc:	f023 0312 	bic.w	r3, r3, #18
 8003200:	f043 0210 	orr.w	r2, r3, #16
 8003204:	687b      	ldr	r3, [r7, #4]
 8003206:	629a      	str	r2, [r3, #40]	@ 0x28
 8003208:	687b      	ldr	r3, [r7, #4]
 800320a:	6adb      	ldr	r3, [r3, #44]	@ 0x2c
 800320c:	f043 0201 	orr.w	r2, r3, #1
 8003210:	687b      	ldr	r3, [r7, #4]
 8003212:	62da      	str	r2, [r3, #44]	@ 0x2c
 8003214:	2301      	movs	r3, #1
 8003216:	75fb      	strb	r3, [r7, #23]
 8003218:	e007      	b.n	800322a <HAL_ADC_Init+0x19e>
 800321a:	687b      	ldr	r3, [r7, #4]
 800321c:	6a9b      	ldr	r3, [r3, #40]	@ 0x28
 800321e:	f043 0210 	orr.w	r2, r3, #16
 8003222:	687b      	ldr	r3, [r7, #4]
 8003224:	629a      	str	r2, [r3, #40]	@ 0x28
 8003226:	2301      	movs	r3, #1
 8003228:	75fb      	strb	r3, [r7, #23]
 800322a:	7dfb      	ldrb	r3, [r7, #23]
 800322c:	4618      	mov	r0, r3
 800322e:	3718      	adds	r7, #24
 8003230:	46bd      	mov	sp, r7
 8003232:	bd80      	pop	{r7, pc}
 8003234:	ffe1f7fd 	.word	0xffe1f7fd
 8003238:	ff1f0efe 	.word	0xff1f0efe

0800323c <HAL_ADC_ConfigChannel>:
 800323c:	b480      	push	{r7}
 800323e:	b085      	sub	sp, #20
 8003240:	af00      	add	r7, sp, #0
 8003242:	6078      	str	r0, [r7, #4]
 8003244:	6039      	str	r1, [r7, #0]
 8003246:	2300      	movs	r3, #0
 8003248:	73fb      	strb	r3, [r7, #15]
 800324a:	2300      	movs	r3, #0
 800324c:	60bb      	str	r3, [r7, #8]
 800324e:	687b      	ldr	r3, [r7, #4]
 8003250:	f893 3024 	ldrb.w	r3, [r3, #36]	@ 0x24
 8003254:	2b01      	cmp	r3, #1
 8003256:	d101      	bne.n	800325c <HAL_ADC_ConfigChannel+0x20>
 8003258:	2302      	movs	r3, #2
 800325a:	e0dc      	b.n	8003416 <HAL_ADC_ConfigChannel+0x1da>
 800325c:	687b      	ldr	r3, [r7, #4]
 800325e:	2201      	movs	r2, #1
 8003260:	f883 2024 	strb.w	r2, [r3, #36]	@ 0x24
 8003264:	683b      	ldr	r3, [r7, #0]
 8003266:	685b      	ldr	r3, [r3, #4]
 8003268:	2b06      	cmp	r3, #6
 800326a:	d81c      	bhi.n	80032a6 <HAL_ADC_ConfigChannel+0x6a>
 800326c:	687b      	ldr	r3, [r7, #4]
 800326e:	681b      	ldr	r3, [r3, #0]
 8003270:	6b59      	ldr	r1, [r3, #52]	@ 0x34
 8003272:	683b      	ldr	r3, [r7, #0]
 8003274:	685a      	ldr	r2, [r3, #4]
 8003276:	4613      	mov	r3, r2
 8003278:	009b      	lsls	r3, r3, #2
 800327a:	4413      	add	r3, r2
 800327c:	3b05      	subs	r3, #5
 800327e:	221f      	movs	r2, #31
 8003280:	fa02 f303 	lsl.w	r3, r2, r3
 8003284:	43db      	mvns	r3, r3
 8003286:	4019      	ands	r1, r3
 8003288:	683b      	ldr	r3, [r7, #0]
 800328a:	6818      	ldr	r0, [r3, #0]
 800328c:	683b      	ldr	r3, [r7, #0]
 800328e:	685a      	ldr	r2, [r3, #4]
 8003290:	4613      	mov	r3, r2
 8003292:	009b      	lsls	r3, r3, #2
 8003294:	4413      	add	r3, r2
 8003296:	3b05      	subs	r3, #5
 8003298:	fa00 f203 	lsl.w	r2, r0, r3
 800329c:	687b      	ldr	r3, [r7, #4]
 800329e:	681b      	ldr	r3, [r3, #0]
 80032a0:	430a      	orrs	r2, r1
 80032a2:	635a      	str	r2, [r3, #52]	@ 0x34
 80032a4:	e03c      	b.n	8003320 <HAL_ADC_ConfigChannel+0xe4>
 80032a6:	683b      	ldr	r3, [r7, #0]
 80032a8:	685b      	ldr	r3, [r3, #4]
 80032aa:	2b0c      	cmp	r3, #12
 80032ac:	d81c      	bhi.n	80032e8 <HAL_ADC_ConfigChannel+0xac>
 80032ae:	687b      	ldr	r3, [r7, #4]
 80032b0:	681b      	ldr	r3, [r3, #0]
 80032b2:	6b19      	ldr	r1, [r3, #48]	@ 0x30
 80032b4:	683b      	ldr	r3, [r7, #0]
 80032b6:	685a      	ldr	r2, [r3, #4]
 80032b8:	4613      	mov	r3, r2
 80032ba:	009b      	lsls	r3, r3, #2
 80032bc:	4413      	add	r3, r2
 80032be:	3b23      	subs	r3, #35	@ 0x23
 80032c0:	221f      	movs	r2, #31
 80032c2:	fa02 f303 	lsl.w	r3, r2, r3
 80032c6:	43db      	mvns	r3, r3
 80032c8:	4019      	ands	r1, r3
 80032ca:	683b      	ldr	r3, [r7, #0]
 80032cc:	6818      	ldr	r0, [r3, #0]
 80032ce:	683b      	ldr	r3, [r7, #0]
 80032d0:	685a      	ldr	r2, [r3, #4]
 80032d2:	4613      	mov	r3, r2
 80032d4:	009b      	lsls	r3, r3, #2
 80032d6:	4413      	add	r3, r2
 80032d8:	3b23      	subs	r3, #35	@ 0x23
 80032da:	fa00 f203 	lsl.w	r2, r0, r3
 80032de:	687b      	ldr	r3, [r7, #4]
 80032e0:	681b      	ldr	r3, [r3, #0]
 80032e2:	430a      	orrs	r2, r1
 80032e4:	631a      	str	r2, [r3, #48]	@ 0x30
 80032e6:	e01b      	b.n	8003320 <HAL_ADC_ConfigChannel+0xe4>
 80032e8:	687b      	ldr	r3, [r7, #4]
 80032ea:	681b      	ldr	r3, [r3, #0]
 80032ec:	6ad9      	ldr	r1, [r3, #44]	@ 0x2c
 80032ee:	683b      	ldr	r3, [r7, #0]
 80032f0:	685a      	ldr	r2, [r3, #4]
 80032f2:	4613      	mov	r3, r2
 80032f4:	009b      	lsls	r3, r3, #2
 80032f6:	4413      	add	r3, r2
 80032f8:	3b41      	subs	r3, #65	@ 0x41
 80032fa:	221f      	movs	r2, #31
 80032fc:	fa02 f303 	lsl.w	r3, r2, r3
 8003300:	43db      	mvns	r3, r3
 8003302:	4019      	ands	r1, r3
 8003304:	683b      	ldr	r3, [r7, #0]
 8003306:	6818      	ldr	r0, [r3, #0]
 8003308:	683b      	ldr	r3, [r7, #0]
 800330a:	685a      	ldr	r2, [r3, #4]
 800330c:	4613      	mov	r3, r2
 800330e:	009b      	lsls	r3, r3, #2
 8003310:	4413      	add	r3, r2
 8003312:	3b41      	subs	r3, #65	@ 0x41
 8003314:	fa00 f203 	lsl.w	r2, r0, r3
 8003318:	687b      	ldr	r3, [r7, #4]
 800331a:	681b      	ldr	r3, [r3, #0]
 800331c:	430a      	orrs	r2, r1
 800331e:	62da      	str	r2, [r3, #44]	@ 0x2c
 8003320:	683b      	ldr	r3, [r7, #0]
 8003322:	681b      	ldr	r3, [r3, #0]
 8003324:	2b09      	cmp	r3, #9
 8003326:	d91c      	bls.n	8003362 <HAL_ADC_ConfigChannel+0x126>
 8003328:	687b      	ldr	r3, [r7, #4]
 800332a:	681b      	ldr	r3, [r3, #0]
 800332c:	68d9      	ldr	r1, [r3, #12]
 800332e:	683b      	ldr	r3, [r7, #0]
 8003330:	681a      	ldr	r2, [r3, #0]
 8003332:	4613      	mov	r3, r2
 8003334:	005b      	lsls	r3, r3, #1
 8003336:	4413      	add	r3, r2
 8003338:	3b1e      	subs	r3, #30
 800333a:	2207      	movs	r2, #7
 800333c:	fa02 f303 	lsl.w	r3, r2, r3
 8003340:	43db      	mvns	r3, r3
 8003342:	4019      	ands	r1, r3
 8003344:	683b      	ldr	r3, [r7, #0]
 8003346:	6898      	ldr	r0, [r3, #8]
 8003348:	683b      	ldr	r3, [r7, #0]
 800334a:	681a      	ldr	r2, [r3, #0]
 800334c:	4613      	mov	r3, r2
 800334e:	005b      	lsls	r3, r3, #1
 8003350:	4413      	add	r3, r2
 8003352:	3b1e      	subs	r3, #30
 8003354:	fa00 f203 	lsl.w	r2, r0, r3
 8003358:	687b      	ldr	r3, [r7, #4]
 800335a:	681b      	ldr	r3, [r3, #0]
 800335c:	430a      	orrs	r2, r1
 800335e:	60da      	str	r2, [r3, #12]
 8003360:	e019      	b.n	8003396 <HAL_ADC_ConfigChannel+0x15a>
 8003362:	687b      	ldr	r3, [r7, #4]
 8003364:	681b      	ldr	r3, [r3, #0]
 8003366:	6919      	ldr	r1, [r3, #16]
 8003368:	683b      	ldr	r3, [r7, #0]
 800336a:	681a      	ldr	r2, [r3, #0]
 800336c:	4613      	mov	r3, r2
 800336e:	005b      	lsls	r3, r3, #1
 8003370:	4413      	add	r3, r2
 8003372:	2207      	movs	r2, #7
 8003374:	fa02 f303 	lsl.w	r3, r2, r3
 8003378:	43db      	mvns	r3, r3
 800337a:	4019      	ands	r1, r3
 800337c:	683b      	ldr	r3, [r7, #0]
 800337e:	6898      	ldr	r0, [r3, #8]
 8003380:	683b      	ldr	r3, [r7, #0]
 8003382:	681a      	ldr	r2, [r3, #0]
 8003384:	4613      	mov	r3, r2
 8003386:	005b      	lsls	r3, r3, #1
 8003388:	4413      	add	r3, r2
 800338a:	fa00 f203 	lsl.w	r2, r0, r3
 800338e:	687b      	ldr	r3, [r7, #4]
 8003390:	681b      	ldr	r3, [r3, #0]
 8003392:	430a      	orrs	r2, r1
 8003394:	611a      	str	r2, [r3, #16]
 8003396:	683b      	ldr	r3, [r7, #0]
 8003398:	681b      	ldr	r3, [r3, #0]
 800339a:	2b10      	cmp	r3, #16
 800339c:	d003      	beq.n	80033a6 <HAL_ADC_ConfigChannel+0x16a>
 800339e:	683b      	ldr	r3, [r7, #0]
 80033a0:	681b      	ldr	r3, [r3, #0]
 80033a2:	2b11      	cmp	r3, #17
 80033a4:	d132      	bne.n	800340c <HAL_ADC_ConfigChannel+0x1d0>
 80033a6:	687b      	ldr	r3, [r7, #4]
 80033a8:	681b      	ldr	r3, [r3, #0]
 80033aa:	4a1d      	ldr	r2, [pc, #116]	@ (8003420 <HAL_ADC_ConfigChannel+0x1e4>)
 80033ac:	4293      	cmp	r3, r2
 80033ae:	d125      	bne.n	80033fc <HAL_ADC_ConfigChannel+0x1c0>
 80033b0:	687b      	ldr	r3, [r7, #4]
 80033b2:	681b      	ldr	r3, [r3, #0]
 80033b4:	689b      	ldr	r3, [r3, #8]
 80033b6:	f403 0300 	and.w	r3, r3, #8388608	@ 0x800000
 80033ba:	2b00      	cmp	r3, #0
 80033bc:	d126      	bne.n	800340c <HAL_ADC_ConfigChannel+0x1d0>
 80033be:	687b      	ldr	r3, [r7, #4]
 80033c0:	681b      	ldr	r3, [r3, #0]
 80033c2:	689a      	ldr	r2, [r3, #8]
 80033c4:	687b      	ldr	r3, [r7, #4]
 80033c6:	681b      	ldr	r3, [r3, #0]
 80033c8:	f442 0200 	orr.w	r2, r2, #8388608	@ 0x800000
 80033cc:	609a      	str	r2, [r3, #8]
 80033ce:	683b      	ldr	r3, [r7, #0]
 80033d0:	681b      	ldr	r3, [r3, #0]
 80033d2:	2b10      	cmp	r3, #16
 80033d4:	d11a      	bne.n	800340c <HAL_ADC_ConfigChannel+0x1d0>
 80033d6:	4b13      	ldr	r3, [pc, #76]	@ (8003424 <HAL_ADC_ConfigChannel+0x1e8>)
 80033d8:	681b      	ldr	r3, [r3, #0]
 80033da:	4a13      	ldr	r2, [pc, #76]	@ (8003428 <HAL_ADC_ConfigChannel+0x1ec>)
 80033dc:	fba2 2303 	umull	r2, r3, r2, r3
 80033e0:	0c9a      	lsrs	r2, r3, #18
 80033e2:	4613      	mov	r3, r2
 80033e4:	009b      	lsls	r3, r3, #2
 80033e6:	4413      	add	r3, r2
 80033e8:	005b      	lsls	r3, r3, #1
 80033ea:	60bb      	str	r3, [r7, #8]
 80033ec:	e002      	b.n	80033f4 <HAL_ADC_ConfigChannel+0x1b8>
 80033ee:	68bb      	ldr	r3, [r7, #8]
 80033f0:	3b01      	subs	r3, #1
 80033f2:	60bb      	str	r3, [r7, #8]
 80033f4:	68bb      	ldr	r3, [r7, #8]
 80033f6:	2b00      	cmp	r3, #0
 80033f8:	d1f9      	bne.n	80033ee <HAL_ADC_ConfigChannel+0x1b2>
 80033fa:	e007      	b.n	800340c <HAL_ADC_ConfigChannel+0x1d0>
 80033fc:	687b      	ldr	r3, [r7, #4]
 80033fe:	6a9b      	ldr	r3, [r3, #40]	@ 0x28
 8003400:	f043 0220 	orr.w	r2, r3, #32
 8003404:	687b      	ldr	r3, [r7, #4]
 8003406:	629a      	str	r2, [r3, #40]	@ 0x28
 8003408:	2301      	movs	r3, #1
 800340a:	73fb      	strb	r3, [r7, #15]
 800340c:	687b      	ldr	r3, [r7, #4]
 800340e:	2200      	movs	r2, #0
 8003410:	f883 2024 	strb.w	r2, [r3, #36]	@ 0x24
 8003414:	7bfb      	ldrb	r3, [r7, #15]
 8003416:	4618      	mov	r0, r3
 8003418:	3714      	adds	r7, #20
 800341a:	46bd      	mov	sp, r7
 800341c:	bc80      	pop	{r7}
 800341e:	4770      	bx	lr
 8003420:	40012400 	.word	0x40012400
 8003424:	20000008 	.word	0x20000008
 8003428:	431bde83 	.word	0x431bde83

0800342c <ADC_ConversionStop_Disable>:
 800342c:	b580      	push	{r7, lr}
 800342e:	b084      	sub	sp, #16
 8003430:	af00      	add	r7, sp, #0
 8003432:	6078      	str	r0, [r7, #4]
 8003434:	2300      	movs	r3, #0
 8003436:	60fb      	str	r3, [r7, #12]
 8003438:	687b      	ldr	r3, [r7, #4]
 800343a:	681b      	ldr	r3, [r3, #0]
 800343c:	689b      	ldr	r3, [r3, #8]
 800343e:	f003 0301 	and.w	r3, r3, #1
 8003442:	2b01      	cmp	r3, #1
 8003444:	d12e      	bne.n	80034a4 <ADC_ConversionStop_Disable+0x78>
 8003446:	687b      	ldr	r3, [r7, #4]
 8003448:	681b      	ldr	r3, [r3, #0]
 800344a:	689a      	ldr	r2, [r3, #8]
 800344c:	687b      	ldr	r3, [r7, #4]
 800344e:	681b      	ldr	r3, [r3, #0]
 8003450:	f022 0201 	bic.w	r2, r2, #1
 8003454:	609a      	str	r2, [r3, #8]
 8003456:	f7ff fdeb 	bl	8003030 <HAL_GetTick>
 800345a:	60f8      	str	r0, [r7, #12]
 800345c:	e01b      	b.n	8003496 <ADC_ConversionStop_Disable+0x6a>
 800345e:	f7ff fde7 	bl	8003030 <HAL_GetTick>
 8003462:	4602      	mov	r2, r0
 8003464:	68fb      	ldr	r3, [r7, #12]
 8003466:	1ad3      	subs	r3, r2, r3
 8003468:	2b02      	cmp	r3, #2
 800346a:	d914      	bls.n	8003496 <ADC_ConversionStop_Disable+0x6a>
 800346c:	687b      	ldr	r3, [r7, #4]
 800346e:	681b      	ldr	r3, [r3, #0]
 8003470:	689b      	ldr	r3, [r3, #8]
 8003472:	f003 0301 	and.w	r3, r3, #1
 8003476:	2b01      	cmp	r3, #1
 8003478:	d10d      	bne.n	8003496 <ADC_ConversionStop_Disable+0x6a>
 800347a:	687b      	ldr	r3, [r7, #4]
 800347c:	6a9b      	ldr	r3, [r3, #40]	@ 0x28
 800347e:	f043 0210 	orr.w	r2, r3, #16
 8003482:	687b      	ldr	r3, [r7, #4]
 8003484:	629a      	str	r2, [r3, #40]	@ 0x28
 8003486:	687b      	ldr	r3, [r7, #4]
 8003488:	6adb      	ldr	r3, [r3, #44]	@ 0x2c
 800348a:	f043 0201 	orr.w	r2, r3, #1
 800348e:	687b      	ldr	r3, [r7, #4]
 8003490:	62da      	str	r2, [r3, #44]	@ 0x2c
 8003492:	2301      	movs	r3, #1
 8003494:	e007      	b.n	80034a6 <ADC_ConversionStop_Disable+0x7a>
 8003496:	687b      	ldr	r3, [r7, #4]
 8003498:	681b      	ldr	r3, [r3, #0]
 800349a:	689b      	ldr	r3, [r3, #8]
 800349c:	f003 0301 	and.w	r3, r3, #1
 80034a0:	2b01      	cmp	r3, #1
 80034a2:	d0dc      	beq.n	800345e <ADC_ConversionStop_Disable+0x32>
 80034a4:	2300      	movs	r3, #0
 80034a6:	4618      	mov	r0, r3
 80034a8:	3710      	adds	r7, #16
 80034aa:	46bd      	mov	sp, r7
 80034ac:	bd80      	pop	{r7, pc}
	...

080034b0 <__NVIC_SetPriorityGrouping>:
 80034b0:	b480      	push	{r7}
 80034b2:	b085      	sub	sp, #20
 80034b4:	af00      	add	r7, sp, #0
 80034b6:	6078      	str	r0, [r7, #4]
 80034b8:	687b      	ldr	r3, [r7, #4]
 80034ba:	f003 0307 	and.w	r3, r3, #7
 80034be:	60fb      	str	r3, [r7, #12]
 80034c0:	4b0c      	ldr	r3, [pc, #48]	@ (80034f4 <__NVIC_SetPriorityGrouping+0x44>)
 80034c2:	68db      	ldr	r3, [r3, #12]
 80034c4:	60bb      	str	r3, [r7, #8]
 80034c6:	68ba      	ldr	r2, [r7, #8]
 80034c8:	f64f 03ff 	movw	r3, #63743	@ 0xf8ff
 80034cc:	4013      	ands	r3, r2
 80034ce:	60bb      	str	r3, [r7, #8]
 80034d0:	68fb      	ldr	r3, [r7, #12]
 80034d2:	021a      	lsls	r2, r3, #8
 80034d4:	68bb      	ldr	r3, [r7, #8]
 80034d6:	4313      	orrs	r3, r2
 80034d8:	f043 63bf 	orr.w	r3, r3, #100139008	@ 0x5f80000
 80034dc:	f443 3300 	orr.w	r3, r3, #131072	@ 0x20000
 80034e0:	60bb      	str	r3, [r7, #8]
 80034e2:	4a04      	ldr	r2, [pc, #16]	@ (80034f4 <__NVIC_SetPriorityGrouping+0x44>)
 80034e4:	68bb      	ldr	r3, [r7, #8]
 80034e6:	60d3      	str	r3, [r2, #12]
 80034e8:	bf00      	nop
 80034ea:	3714      	adds	r7, #20
 80034ec:	46bd      	mov	sp, r7
 80034ee:	bc80      	pop	{r7}
 80034f0:	4770      	bx	lr
 80034f2:	bf00      	nop
 80034f4:	e000ed00 	.word	0xe000ed00

080034f8 <__NVIC_GetPriorityGrouping>:
 80034f8:	b480      	push	{r7}
 80034fa:	af00      	add	r7, sp, #0
 80034fc:	4b04      	ldr	r3, [pc, #16]	@ (8003510 <__NVIC_GetPriorityGrouping+0x18>)
 80034fe:	68db      	ldr	r3, [r3, #12]
 8003500:	0a1b      	lsrs	r3, r3, #8
 8003502:	f003 0307 	and.w	r3, r3, #7
 8003506:	4618      	mov	r0, r3
 8003508:	46bd      	mov	sp, r7
 800350a:	bc80      	pop	{r7}
 800350c:	4770      	bx	lr
 800350e:	bf00      	nop
 8003510:	e000ed00 	.word	0xe000ed00

08003514 <__NVIC_EnableIRQ>:
 8003514:	b480      	push	{r7}
 8003516:	b083      	sub	sp, #12
 8003518:	af00      	add	r7, sp, #0
 800351a:	4603      	mov	r3, r0
 800351c:	71fb      	strb	r3, [r7, #7]
 800351e:	f997 3007 	ldrsb.w	r3, [r7, #7]
 8003522:	2b00      	cmp	r3, #0
 8003524:	db0b      	blt.n	800353e <__NVIC_EnableIRQ+0x2a>
 8003526:	79fb      	ldrb	r3, [r7, #7]
 8003528:	f003 021f 	and.w	r2, r3, #31
 800352c:	4906      	ldr	r1, [pc, #24]	@ (8003548 <__NVIC_EnableIRQ+0x34>)
 800352e:	f997 3007 	ldrsb.w	r3, [r7, #7]
 8003532:	095b      	lsrs	r3, r3, #5
 8003534:	2001      	movs	r0, #1
 8003536:	fa00 f202 	lsl.w	r2, r0, r2
 800353a:	f841 2023 	str.w	r2, [r1, r3, lsl #2]
 800353e:	bf00      	nop
 8003540:	370c      	adds	r7, #12
 8003542:	46bd      	mov	sp, r7
 8003544:	bc80      	pop	{r7}
 8003546:	4770      	bx	lr
 8003548:	e000e100 	.word	0xe000e100

0800354c <__NVIC_SetPriority>:
 800354c:	b480      	push	{r7}
 800354e:	b083      	sub	sp, #12
 8003550:	af00      	add	r7, sp, #0
 8003552:	4603      	mov	r3, r0
 8003554:	6039      	str	r1, [r7, #0]
 8003556:	71fb      	strb	r3, [r7, #7]
 8003558:	f997 3007 	ldrsb.w	r3, [r7, #7]
 800355c:	2b00      	cmp	r3, #0
 800355e:	db0a      	blt.n	8003576 <__NVIC_SetPriority+0x2a>
 8003560:	683b      	ldr	r3, [r7, #0]
 8003562:	b2da      	uxtb	r2, r3
 8003564:	490c      	ldr	r1, [pc, #48]	@ (8003598 <__NVIC_SetPriority+0x4c>)
 8003566:	f997 3007 	ldrsb.w	r3, [r7, #7]
 800356a:	0112      	lsls	r2, r2, #4
 800356c:	b2d2      	uxtb	r2, r2
 800356e:	440b      	add	r3, r1
 8003570:	f883 2300 	strb.w	r2, [r3, #768]	@ 0x300
 8003574:	e00a      	b.n	800358c <__NVIC_SetPriority+0x40>
 8003576:	683b      	ldr	r3, [r7, #0]
 8003578:	b2da      	uxtb	r2, r3
 800357a:	4908      	ldr	r1, [pc, #32]	@ (800359c <__NVIC_SetPriority+0x50>)
 800357c:	79fb      	ldrb	r3, [r7, #7]
 800357e:	f003 030f 	and.w	r3, r3, #15
 8003582:	3b04      	subs	r3, #4
 8003584:	0112      	lsls	r2, r2, #4
 8003586:	b2d2      	uxtb	r2, r2
 8003588:	440b      	add	r3, r1
 800358a:	761a      	strb	r2, [r3, #24]
 800358c:	bf00      	nop
 800358e:	370c      	adds	r7, #12
 8003590:	46bd      	mov	sp, r7
 8003592:	bc80      	pop	{r7}
 8003594:	4770      	bx	lr
 8003596:	bf00      	nop
 8003598:	e000e100 	.word	0xe000e100
 800359c:	e000ed00 	.word	0xe000ed00

080035a0 <NVIC_EncodePriority>:
 80035a0:	b480      	push	{r7}
 80035a2:	b089      	sub	sp, #36	@ 0x24
 80035a4:	af00      	add	r7, sp, #0
 80035a6:	60f8      	str	r0, [r7, #12]
 80035a8:	60b9      	str	r1, [r7, #8]
 80035aa:	607a      	str	r2, [r7, #4]
 80035ac:	68fb      	ldr	r3, [r7, #12]
 80035ae:	f003 0307 	and.w	r3, r3, #7
 80035b2:	61fb      	str	r3, [r7, #28]
 80035b4:	69fb      	ldr	r3, [r7, #28]
 80035b6:	f1c3 0307 	rsb	r3, r3, #7
 80035ba:	2b04      	cmp	r3, #4
 80035bc:	bf28      	it	cs
 80035be:	2304      	movcs	r3, #4
 80035c0:	61bb      	str	r3, [r7, #24]
 80035c2:	69fb      	ldr	r3, [r7, #28]
 80035c4:	3304      	adds	r3, #4
 80035c6:	2b06      	cmp	r3, #6
 80035c8:	d902      	bls.n	80035d0 <NVIC_EncodePriority+0x30>
 80035ca:	69fb      	ldr	r3, [r7, #28]
 80035cc:	3b03      	subs	r3, #3
 80035ce:	e000      	b.n	80035d2 <NVIC_EncodePriority+0x32>
 80035d0:	2300      	movs	r3, #0
 80035d2:	617b      	str	r3, [r7, #20]
 80035d4:	f04f 32ff 	mov.w	r2, #4294967295
 80035d8:	69bb      	ldr	r3, [r7, #24]
 80035da:	fa02 f303 	lsl.w	r3, r2, r3
 80035de:	43da      	mvns	r2, r3
 80035e0:	68bb      	ldr	r3, [r7, #8]
 80035e2:	401a      	ands	r2, r3
 80035e4:	697b      	ldr	r3, [r7, #20]
 80035e6:	409a      	lsls	r2, r3
 80035e8:	f04f 31ff 	mov.w	r1, #4294967295
 80035ec:	697b      	ldr	r3, [r7, #20]
 80035ee:	fa01 f303 	lsl.w	r3, r1, r3
 80035f2:	43d9      	mvns	r1, r3
 80035f4:	687b      	ldr	r3, [r7, #4]
 80035f6:	400b      	ands	r3, r1
 80035f8:	4313      	orrs	r3, r2
 80035fa:	4618      	mov	r0, r3
 80035fc:	3724      	adds	r7, #36	@ 0x24
 80035fe:	46bd      	mov	sp, r7
 8003600:	bc80      	pop	{r7}
 8003602:	4770      	bx	lr

08003604 <SysTick_Config>:
 8003604:	b580      	push	{r7, lr}
 8003606:	b082      	sub	sp, #8
 8003608:	af00      	add	r7, sp, #0
 800360a:	6078      	str	r0, [r7, #4]
 800360c:	687b      	ldr	r3, [r7, #4]
 800360e:	3b01      	subs	r3, #1
 8003610:	f1b3 7f80 	cmp.w	r3, #16777216	@ 0x1000000
 8003614:	d301      	bcc.n	800361a <SysTick_Config+0x16>
 8003616:	2301      	movs	r3, #1
 8003618:	e00f      	b.n	800363a <SysTick_Config+0x36>
 800361a:	4a0a      	ldr	r2, [pc, #40]	@ (8003644 <SysTick_Config+0x40>)
 800361c:	687b      	ldr	r3, [r7, #4]
 800361e:	3b01      	subs	r3, #1
 8003620:	6053      	str	r3, [r2, #4]
 8003622:	210f      	movs	r1, #15
 8003624:	f04f 30ff 	mov.w	r0, #4294967295
 8003628:	f7ff ff90 	bl	800354c <__NVIC_SetPriority>
 800362c:	4b05      	ldr	r3, [pc, #20]	@ (8003644 <SysTick_Config+0x40>)
 800362e:	2200      	movs	r2, #0
 8003630:	609a      	str	r2, [r3, #8]
 8003632:	4b04      	ldr	r3, [pc, #16]	@ (8003644 <SysTick_Config+0x40>)
 8003634:	2207      	movs	r2, #7
 8003636:	601a      	str	r2, [r3, #0]
 8003638:	2300      	movs	r3, #0
 800363a:	4618      	mov	r0, r3
 800363c:	3708      	adds	r7, #8
 800363e:	46bd      	mov	sp, r7
 8003640:	bd80      	pop	{r7, pc}
 8003642:	bf00      	nop
 8003644:	e000e010 	.word	0xe000e010

08003648 <HAL_NVIC_SetPriorityGrouping>:
 8003648:	b580      	push	{r7, lr}
 800364a:	b082      	sub	sp, #8
 800364c:	af00      	add	r7, sp, #0
 800364e:	6078      	str	r0, [r7, #4]
 8003650:	6878      	ldr	r0, [r7, #4]
 8003652:	f7ff ff2d 	bl	80034b0 <__NVIC_SetPriorityGrouping>
 8003656:	bf00      	nop
 8003658:	3708      	adds	r7, #8
 800365a:	46bd      	mov	sp, r7
 800365c:	bd80      	pop	{r7, pc}

0800365e <HAL_NVIC_SetPriority>:
 800365e:	b580      	push	{r7, lr}
 8003660:	b086      	sub	sp, #24
 8003662:	af00      	add	r7, sp, #0
 8003664:	4603      	mov	r3, r0
 8003666:	60b9      	str	r1, [r7, #8]
 8003668:	607a      	str	r2, [r7, #4]
 800366a:	73fb      	strb	r3, [r7, #15]
 800366c:	2300      	movs	r3, #0
 800366e:	617b      	str	r3, [r7, #20]
 8003670:	f7ff ff42 	bl	80034f8 <__NVIC_GetPriorityGrouping>
 8003674:	6178      	str	r0, [r7, #20]
 8003676:	687a      	ldr	r2, [r7, #4]
 8003678:	68b9      	ldr	r1, [r7, #8]
 800367a:	6978      	ldr	r0, [r7, #20]
 800367c:	f7ff ff90 	bl	80035a0 <NVIC_EncodePriority>
 8003680:	4602      	mov	r2, r0
 8003682:	f997 300f 	ldrsb.w	r3, [r7, #15]
 8003686:	4611      	mov	r1, r2
 8003688:	4618      	mov	r0, r3
 800368a:	f7ff ff5f 	bl	800354c <__NVIC_SetPriority>
 800368e:	bf00      	nop
 8003690:	3718      	adds	r7, #24
 8003692:	46bd      	mov	sp, r7
 8003694:	bd80      	pop	{r7, pc}

08003696 <HAL_NVIC_EnableIRQ>:
 8003696:	b580      	push	{r7, lr}
 8003698:	b082      	sub	sp, #8
 800369a:	af00      	add	r7, sp, #0
 800369c:	4603      	mov	r3, r0
 800369e:	71fb      	strb	r3, [r7, #7]
 80036a0:	f997 3007 	ldrsb.w	r3, [r7, #7]
 80036a4:	4618      	mov	r0, r3
 80036a6:	f7ff ff35 	bl	8003514 <__NVIC_EnableIRQ>
 80036aa:	bf00      	nop
 80036ac:	3708      	adds	r7, #8
 80036ae:	46bd      	mov	sp, r7
 80036b0:	bd80      	pop	{r7, pc}

080036b2 <HAL_SYSTICK_Config>:
 80036b2:	b580      	push	{r7, lr}
 80036b4:	b082      	sub	sp, #8
 80036b6:	af00      	add	r7, sp, #0
 80036b8:	6078      	str	r0, [r7, #4]
 80036ba:	6878      	ldr	r0, [r7, #4]
 80036bc:	f7ff ffa2 	bl	8003604 <SysTick_Config>
 80036c0:	4603      	mov	r3, r0
 80036c2:	4618      	mov	r0, r3
 80036c4:	3708      	adds	r7, #8
 80036c6:	46bd      	mov	sp, r7
 80036c8:	bd80      	pop	{r7, pc}

080036ca <HAL_DMA_Abort>:
 80036ca:	b480      	push	{r7}
 80036cc:	b085      	sub	sp, #20
 80036ce:	af00      	add	r7, sp, #0
 80036d0:	6078      	str	r0, [r7, #4]
 80036d2:	2300      	movs	r3, #0
 80036d4:	73fb      	strb	r3, [r7, #15]
 80036d6:	687b      	ldr	r3, [r7, #4]
 80036d8:	f893 3021 	ldrb.w	r3, [r3, #33]	@ 0x21
 80036dc:	b2db      	uxtb	r3, r3
 80036de:	2b02      	cmp	r3, #2
 80036e0:	d008      	beq.n	80036f4 <HAL_DMA_Abort+0x2a>
 80036e2:	687b      	ldr	r3, [r7, #4]
 80036e4:	2204      	movs	r2, #4
 80036e6:	639a      	str	r2, [r3, #56]	@ 0x38
 80036e8:	687b      	ldr	r3, [r7, #4]
 80036ea:	2200      	movs	r2, #0
 80036ec:	f883 2020 	strb.w	r2, [r3, #32]
 80036f0:	2301      	movs	r3, #1
 80036f2:	e020      	b.n	8003736 <HAL_DMA_Abort+0x6c>
 80036f4:	687b      	ldr	r3, [r7, #4]
 80036f6:	681b      	ldr	r3, [r3, #0]
 80036f8:	681a      	ldr	r2, [r3, #0]
 80036fa:	687b      	ldr	r3, [r7, #4]
 80036fc:	681b      	ldr	r3, [r3, #0]
 80036fe:	f022 020e 	bic.w	r2, r2, #14
 8003702:	601a      	str	r2, [r3, #0]
 8003704:	687b      	ldr	r3, [r7, #4]
 8003706:	681b      	ldr	r3, [r3, #0]
 8003708:	681a      	ldr	r2, [r3, #0]
 800370a:	687b      	ldr	r3, [r7, #4]
 800370c:	681b      	ldr	r3, [r3, #0]
 800370e:	f022 0201 	bic.w	r2, r2, #1
 8003712:	601a      	str	r2, [r3, #0]
 8003714:	687b      	ldr	r3, [r7, #4]
 8003716:	6c1a      	ldr	r2, [r3, #64]	@ 0x40
 8003718:	687b      	ldr	r3, [r7, #4]
 800371a:	6bdb      	ldr	r3, [r3, #60]	@ 0x3c
 800371c:	2101      	movs	r1, #1
 800371e:	fa01 f202 	lsl.w	r2, r1, r2
 8003722:	605a      	str	r2, [r3, #4]
 8003724:	687b      	ldr	r3, [r7, #4]
 8003726:	2201      	movs	r2, #1
 8003728:	f883 2021 	strb.w	r2, [r3, #33]	@ 0x21
 800372c:	687b      	ldr	r3, [r7, #4]
 800372e:	2200      	movs	r2, #0
 8003730:	f883 2020 	strb.w	r2, [r3, #32]
 8003734:	7bfb      	ldrb	r3, [r7, #15]
 8003736:	4618      	mov	r0, r3
 8003738:	3714      	adds	r7, #20
 800373a:	46bd      	mov	sp, r7
 800373c:	bc80      	pop	{r7}
 800373e:	4770      	bx	lr

08003740 <HAL_DMA_Abort_IT>:
 8003740:	b580      	push	{r7, lr}
 8003742:	b084      	sub	sp, #16
 8003744:	af00      	add	r7, sp, #0
 8003746:	6078      	str	r0, [r7, #4]
 8003748:	2300      	movs	r3, #0
 800374a:	73fb      	strb	r3, [r7, #15]
 800374c:	687b      	ldr	r3, [r7, #4]
 800374e:	f893 3021 	ldrb.w	r3, [r3, #33]	@ 0x21
 8003752:	b2db      	uxtb	r3, r3
 8003754:	2b02      	cmp	r3, #2
 8003756:	d005      	beq.n	8003764 <HAL_DMA_Abort_IT+0x24>
 8003758:	687b      	ldr	r3, [r7, #4]
 800375a:	2204      	movs	r2, #4
 800375c:	639a      	str	r2, [r3, #56]	@ 0x38
 800375e:	2301      	movs	r3, #1
 8003760:	73fb      	strb	r3, [r7, #15]
 8003762:	e051      	b.n	8003808 <HAL_DMA_Abort_IT+0xc8>
 8003764:	687b      	ldr	r3, [r7, #4]
 8003766:	681b      	ldr	r3, [r3, #0]
 8003768:	681a      	ldr	r2, [r3, #0]
 800376a:	687b      	ldr	r3, [r7, #4]
 800376c:	681b      	ldr	r3, [r3, #0]
 800376e:	f022 020e 	bic.w	r2, r2, #14
 8003772:	601a      	str	r2, [r3, #0]
 8003774:	687b      	ldr	r3, [r7, #4]
 8003776:	681b      	ldr	r3, [r3, #0]
 8003778:	681a      	ldr	r2, [r3, #0]
 800377a:	687b      	ldr	r3, [r7, #4]
 800377c:	681b      	ldr	r3, [r3, #0]
 800377e:	f022 0201 	bic.w	r2, r2, #1
 8003782:	601a      	str	r2, [r3, #0]
 8003784:	687b      	ldr	r3, [r7, #4]
 8003786:	681b      	ldr	r3, [r3, #0]
 8003788:	4a22      	ldr	r2, [pc, #136]	@ (8003814 <HAL_DMA_Abort_IT+0xd4>)
 800378a:	4293      	cmp	r3, r2
 800378c:	d029      	beq.n	80037e2 <HAL_DMA_Abort_IT+0xa2>
 800378e:	687b      	ldr	r3, [r7, #4]
 8003790:	681b      	ldr	r3, [r3, #0]
 8003792:	4a21      	ldr	r2, [pc, #132]	@ (8003818 <HAL_DMA_Abort_IT+0xd8>)
 8003794:	4293      	cmp	r3, r2
 8003796:	d022      	beq.n	80037de <HAL_DMA_Abort_IT+0x9e>
 8003798:	687b      	ldr	r3, [r7, #4]
 800379a:	681b      	ldr	r3, [r3, #0]
 800379c:	4a1f      	ldr	r2, [pc, #124]	@ (800381c <HAL_DMA_Abort_IT+0xdc>)
 800379e:	4293      	cmp	r3, r2
 80037a0:	d01a      	beq.n	80037d8 <HAL_DMA_Abort_IT+0x98>
 80037a2:	687b      	ldr	r3, [r7, #4]
 80037a4:	681b      	ldr	r3, [r3, #0]
 80037a6:	4a1e      	ldr	r2, [pc, #120]	@ (8003820 <HAL_DMA_Abort_IT+0xe0>)
 80037a8:	4293      	cmp	r3, r2
 80037aa:	d012      	beq.n	80037d2 <HAL_DMA_Abort_IT+0x92>
 80037ac:	687b      	ldr	r3, [r7, #4]
 80037ae:	681b      	ldr	r3, [r3, #0]
 80037b0:	4a1c      	ldr	r2, [pc, #112]	@ (8003824 <HAL_DMA_Abort_IT+0xe4>)
 80037b2:	4293      	cmp	r3, r2
 80037b4:	d00a      	beq.n	80037cc <HAL_DMA_Abort_IT+0x8c>
 80037b6:	687b      	ldr	r3, [r7, #4]
 80037b8:	681b      	ldr	r3, [r3, #0]
 80037ba:	4a1b      	ldr	r2, [pc, #108]	@ (8003828 <HAL_DMA_Abort_IT+0xe8>)
 80037bc:	4293      	cmp	r3, r2
 80037be:	d102      	bne.n	80037c6 <HAL_DMA_Abort_IT+0x86>
 80037c0:	f44f 1380 	mov.w	r3, #1048576	@ 0x100000
 80037c4:	e00e      	b.n	80037e4 <HAL_DMA_Abort_IT+0xa4>
 80037c6:	f04f 7380 	mov.w	r3, #16777216	@ 0x1000000
 80037ca:	e00b      	b.n	80037e4 <HAL_DMA_Abort_IT+0xa4>
 80037cc:	f44f 3380 	mov.w	r3, #65536	@ 0x10000
 80037d0:	e008      	b.n	80037e4 <HAL_DMA_Abort_IT+0xa4>
 80037d2:	f44f 5380 	mov.w	r3, #4096	@ 0x1000
 80037d6:	e005      	b.n	80037e4 <HAL_DMA_Abort_IT+0xa4>
 80037d8:	f44f 7380 	mov.w	r3, #256	@ 0x100
 80037dc:	e002      	b.n	80037e4 <HAL_DMA_Abort_IT+0xa4>
 80037de:	2310      	movs	r3, #16
 80037e0:	e000      	b.n	80037e4 <HAL_DMA_Abort_IT+0xa4>
 80037e2:	2301      	movs	r3, #1
 80037e4:	4a11      	ldr	r2, [pc, #68]	@ (800382c <HAL_DMA_Abort_IT+0xec>)
 80037e6:	6053      	str	r3, [r2, #4]
 80037e8:	687b      	ldr	r3, [r7, #4]
 80037ea:	2201      	movs	r2, #1
 80037ec:	f883 2021 	strb.w	r2, [r3, #33]	@ 0x21
 80037f0:	687b      	ldr	r3, [r7, #4]
 80037f2:	2200      	movs	r2, #0
 80037f4:	f883 2020 	strb.w	r2, [r3, #32]
 80037f8:	687b      	ldr	r3, [r7, #4]
 80037fa:	6b5b      	ldr	r3, [r3, #52]	@ 0x34
 80037fc:	2b00      	cmp	r3, #0
 80037fe:	d003      	beq.n	8003808 <HAL_DMA_Abort_IT+0xc8>
 8003800:	687b      	ldr	r3, [r7, #4]
 8003802:	6b5b      	ldr	r3, [r3, #52]	@ 0x34
 8003804:	6878      	ldr	r0, [r7, #4]
 8003806:	4798      	blx	r3
 8003808:	7bfb      	ldrb	r3, [r7, #15]
 800380a:	4618      	mov	r0, r3
 800380c:	3710      	adds	r7, #16
 800380e:	46bd      	mov	sp, r7
 8003810:	bd80      	pop	{r7, pc}
 8003812:	bf00      	nop
 8003814:	40020008 	.word	0x40020008
 8003818:	4002001c 	.word	0x4002001c
 800381c:	40020030 	.word	0x40020030
 8003820:	40020044 	.word	0x40020044
 8003824:	40020058 	.word	0x40020058
 8003828:	4002006c 	.word	0x4002006c
 800382c:	40020000 	.word	0x40020000

08003830 <HAL_GPIO_Init>:
 8003830:	b480      	push	{r7}
 8003832:	b08b      	sub	sp, #44	@ 0x2c
 8003834:	af00      	add	r7, sp, #0
 8003836:	6078      	str	r0, [r7, #4]
 8003838:	6039      	str	r1, [r7, #0]
 800383a:	2300      	movs	r3, #0
 800383c:	627b      	str	r3, [r7, #36]	@ 0x24
 800383e:	2300      	movs	r3, #0
 8003840:	623b      	str	r3, [r7, #32]
 8003842:	e169      	b.n	8003b18 <HAL_GPIO_Init+0x2e8>
 8003844:	2201      	movs	r2, #1
 8003846:	6a7b      	ldr	r3, [r7, #36]	@ 0x24
 8003848:	fa02 f303 	lsl.w	r3, r2, r3
 800384c:	61fb      	str	r3, [r7, #28]
 800384e:	683b      	ldr	r3, [r7, #0]
 8003850:	681b      	ldr	r3, [r3, #0]
 8003852:	69fa      	ldr	r2, [r7, #28]
 8003854:	4013      	ands	r3, r2
 8003856:	61bb      	str	r3, [r7, #24]
 8003858:	69ba      	ldr	r2, [r7, #24]
 800385a:	69fb      	ldr	r3, [r7, #28]
 800385c:	429a      	cmp	r2, r3
 800385e:	f040 8158 	bne.w	8003b12 <HAL_GPIO_Init+0x2e2>
 8003862:	683b      	ldr	r3, [r7, #0]
 8003864:	685b      	ldr	r3, [r3, #4]
 8003866:	4a9a      	ldr	r2, [pc, #616]	@ (8003ad0 <HAL_GPIO_Init+0x2a0>)
 8003868:	4293      	cmp	r3, r2
 800386a:	d05e      	beq.n	800392a <HAL_GPIO_Init+0xfa>
 800386c:	4a98      	ldr	r2, [pc, #608]	@ (8003ad0 <HAL_GPIO_Init+0x2a0>)
 800386e:	4293      	cmp	r3, r2
 8003870:	d875      	bhi.n	800395e <HAL_GPIO_Init+0x12e>
 8003872:	4a98      	ldr	r2, [pc, #608]	@ (8003ad4 <HAL_GPIO_Init+0x2a4>)
 8003874:	4293      	cmp	r3, r2
 8003876:	d058      	beq.n	800392a <HAL_GPIO_Init+0xfa>
 8003878:	4a96      	ldr	r2, [pc, #600]	@ (8003ad4 <HAL_GPIO_Init+0x2a4>)
 800387a:	4293      	cmp	r3, r2
 800387c:	d86f      	bhi.n	800395e <HAL_GPIO_Init+0x12e>
 800387e:	4a96      	ldr	r2, [pc, #600]	@ (8003ad8 <HAL_GPIO_Init+0x2a8>)
 8003880:	4293      	cmp	r3, r2
 8003882:	d052      	beq.n	800392a <HAL_GPIO_Init+0xfa>
 8003884:	4a94      	ldr	r2, [pc, #592]	@ (8003ad8 <HAL_GPIO_Init+0x2a8>)
 8003886:	4293      	cmp	r3, r2
 8003888:	d869      	bhi.n	800395e <HAL_GPIO_Init+0x12e>
 800388a:	4a94      	ldr	r2, [pc, #592]	@ (8003adc <HAL_GPIO_Init+0x2ac>)
 800388c:	4293      	cmp	r3, r2
 800388e:	d04c      	beq.n	800392a <HAL_GPIO_Init+0xfa>
 8003890:	4a92      	ldr	r2, [pc, #584]	@ (8003adc <HAL_GPIO_Init+0x2ac>)
 8003892:	4293      	cmp	r3, r2
 8003894:	d863      	bhi.n	800395e <HAL_GPIO_Init+0x12e>
 8003896:	4a92      	ldr	r2, [pc, #584]	@ (8003ae0 <HAL_GPIO_Init+0x2b0>)
 8003898:	4293      	cmp	r3, r2
 800389a:	d046      	beq.n	800392a <HAL_GPIO_Init+0xfa>
 800389c:	4a90      	ldr	r2, [pc, #576]	@ (8003ae0 <HAL_GPIO_Init+0x2b0>)
 800389e:	4293      	cmp	r3, r2
 80038a0:	d85d      	bhi.n	800395e <HAL_GPIO_Init+0x12e>
 80038a2:	2b12      	cmp	r3, #18
 80038a4:	d82a      	bhi.n	80038fc <HAL_GPIO_Init+0xcc>
 80038a6:	2b12      	cmp	r3, #18
 80038a8:	d859      	bhi.n	800395e <HAL_GPIO_Init+0x12e>
 80038aa:	a201      	add	r2, pc, #4	@ (adr r2, 80038b0 <HAL_GPIO_Init+0x80>)
 80038ac:	f852 f023 	ldr.w	pc, [r2, r3, lsl #2]
 80038b0:	0800392b 	.word	0x0800392b
 80038b4:	08003905 	.word	0x08003905
 80038b8:	08003917 	.word	0x08003917
 80038bc:	08003959 	.word	0x08003959
 80038c0:	0800395f 	.word	0x0800395f
 80038c4:	0800395f 	.word	0x0800395f
 80038c8:	0800395f 	.word	0x0800395f
 80038cc:	0800395f 	.word	0x0800395f
 80038d0:	0800395f 	.word	0x0800395f
 80038d4:	0800395f 	.word	0x0800395f
 80038d8:	0800395f 	.word	0x0800395f
 80038dc:	0800395f 	.word	0x0800395f
 80038e0:	0800395f 	.word	0x0800395f
 80038e4:	0800395f 	.word	0x0800395f
 80038e8:	0800395f 	.word	0x0800395f
 80038ec:	0800395f 	.word	0x0800395f
 80038f0:	0800395f 	.word	0x0800395f
 80038f4:	0800390d 	.word	0x0800390d
 80038f8:	08003921 	.word	0x08003921
 80038fc:	4a79      	ldr	r2, [pc, #484]	@ (8003ae4 <HAL_GPIO_Init+0x2b4>)
 80038fe:	4293      	cmp	r3, r2
 8003900:	d013      	beq.n	800392a <HAL_GPIO_Init+0xfa>
 8003902:	e02c      	b.n	800395e <HAL_GPIO_Init+0x12e>
 8003904:	683b      	ldr	r3, [r7, #0]
 8003906:	68db      	ldr	r3, [r3, #12]
 8003908:	623b      	str	r3, [r7, #32]
 800390a:	e029      	b.n	8003960 <HAL_GPIO_Init+0x130>
 800390c:	683b      	ldr	r3, [r7, #0]
 800390e:	68db      	ldr	r3, [r3, #12]
 8003910:	3304      	adds	r3, #4
 8003912:	623b      	str	r3, [r7, #32]
 8003914:	e024      	b.n	8003960 <HAL_GPIO_Init+0x130>
 8003916:	683b      	ldr	r3, [r7, #0]
 8003918:	68db      	ldr	r3, [r3, #12]
 800391a:	3308      	adds	r3, #8
 800391c:	623b      	str	r3, [r7, #32]
 800391e:	e01f      	b.n	8003960 <HAL_GPIO_Init+0x130>
 8003920:	683b      	ldr	r3, [r7, #0]
 8003922:	68db      	ldr	r3, [r3, #12]
 8003924:	330c      	adds	r3, #12
 8003926:	623b      	str	r3, [r7, #32]
 8003928:	e01a      	b.n	8003960 <HAL_GPIO_Init+0x130>
 800392a:	683b      	ldr	r3, [r7, #0]
 800392c:	689b      	ldr	r3, [r3, #8]
 800392e:	2b00      	cmp	r3, #0
 8003930:	d102      	bne.n	8003938 <HAL_GPIO_Init+0x108>
 8003932:	2304      	movs	r3, #4
 8003934:	623b      	str	r3, [r7, #32]
 8003936:	e013      	b.n	8003960 <HAL_GPIO_Init+0x130>
 8003938:	683b      	ldr	r3, [r7, #0]
 800393a:	689b      	ldr	r3, [r3, #8]
 800393c:	2b01      	cmp	r3, #1
 800393e:	d105      	bne.n	800394c <HAL_GPIO_Init+0x11c>
 8003940:	2308      	movs	r3, #8
 8003942:	623b      	str	r3, [r7, #32]
 8003944:	687b      	ldr	r3, [r7, #4]
 8003946:	69fa      	ldr	r2, [r7, #28]
 8003948:	611a      	str	r2, [r3, #16]
 800394a:	e009      	b.n	8003960 <HAL_GPIO_Init+0x130>
 800394c:	2308      	movs	r3, #8
 800394e:	623b      	str	r3, [r7, #32]
 8003950:	687b      	ldr	r3, [r7, #4]
 8003952:	69fa      	ldr	r2, [r7, #28]
 8003954:	615a      	str	r2, [r3, #20]
 8003956:	e003      	b.n	8003960 <HAL_GPIO_Init+0x130>
 8003958:	2300      	movs	r3, #0
 800395a:	623b      	str	r3, [r7, #32]
 800395c:	e000      	b.n	8003960 <HAL_GPIO_Init+0x130>
 800395e:	bf00      	nop
 8003960:	69bb      	ldr	r3, [r7, #24]
 8003962:	2bff      	cmp	r3, #255	@ 0xff
 8003964:	d801      	bhi.n	800396a <HAL_GPIO_Init+0x13a>
 8003966:	687b      	ldr	r3, [r7, #4]
 8003968:	e001      	b.n	800396e <HAL_GPIO_Init+0x13e>
 800396a:	687b      	ldr	r3, [r7, #4]
 800396c:	3304      	adds	r3, #4
 800396e:	617b      	str	r3, [r7, #20]
 8003970:	69bb      	ldr	r3, [r7, #24]
 8003972:	2bff      	cmp	r3, #255	@ 0xff
 8003974:	d802      	bhi.n	800397c <HAL_GPIO_Init+0x14c>
 8003976:	6a7b      	ldr	r3, [r7, #36]	@ 0x24
 8003978:	009b      	lsls	r3, r3, #2
 800397a:	e002      	b.n	8003982 <HAL_GPIO_Init+0x152>
 800397c:	6a7b      	ldr	r3, [r7, #36]	@ 0x24
 800397e:	3b08      	subs	r3, #8
 8003980:	009b      	lsls	r3, r3, #2
 8003982:	613b      	str	r3, [r7, #16]
 8003984:	697b      	ldr	r3, [r7, #20]
 8003986:	681a      	ldr	r2, [r3, #0]
 8003988:	210f      	movs	r1, #15
 800398a:	693b      	ldr	r3, [r7, #16]
 800398c:	fa01 f303 	lsl.w	r3, r1, r3
 8003990:	43db      	mvns	r3, r3
 8003992:	401a      	ands	r2, r3
 8003994:	6a39      	ldr	r1, [r7, #32]
 8003996:	693b      	ldr	r3, [r7, #16]
 8003998:	fa01 f303 	lsl.w	r3, r1, r3
 800399c:	431a      	orrs	r2, r3
 800399e:	697b      	ldr	r3, [r7, #20]
 80039a0:	601a      	str	r2, [r3, #0]
 80039a2:	683b      	ldr	r3, [r7, #0]
 80039a4:	685b      	ldr	r3, [r3, #4]
 80039a6:	f003 5380 	and.w	r3, r3, #268435456	@ 0x10000000
 80039aa:	2b00      	cmp	r3, #0
 80039ac:	f000 80b1 	beq.w	8003b12 <HAL_GPIO_Init+0x2e2>
 80039b0:	4b4d      	ldr	r3, [pc, #308]	@ (8003ae8 <HAL_GPIO_Init+0x2b8>)
 80039b2:	699b      	ldr	r3, [r3, #24]
 80039b4:	4a4c      	ldr	r2, [pc, #304]	@ (8003ae8 <HAL_GPIO_Init+0x2b8>)
 80039b6:	f043 0301 	orr.w	r3, r3, #1
 80039ba:	6193      	str	r3, [r2, #24]
 80039bc:	4b4a      	ldr	r3, [pc, #296]	@ (8003ae8 <HAL_GPIO_Init+0x2b8>)
 80039be:	699b      	ldr	r3, [r3, #24]
 80039c0:	f003 0301 	and.w	r3, r3, #1
 80039c4:	60bb      	str	r3, [r7, #8]
 80039c6:	68bb      	ldr	r3, [r7, #8]
 80039c8:	4a48      	ldr	r2, [pc, #288]	@ (8003aec <HAL_GPIO_Init+0x2bc>)
 80039ca:	6a7b      	ldr	r3, [r7, #36]	@ 0x24
 80039cc:	089b      	lsrs	r3, r3, #2
 80039ce:	3302      	adds	r3, #2
 80039d0:	f852 3023 	ldr.w	r3, [r2, r3, lsl #2]
 80039d4:	60fb      	str	r3, [r7, #12]
 80039d6:	6a7b      	ldr	r3, [r7, #36]	@ 0x24
 80039d8:	f003 0303 	and.w	r3, r3, #3
 80039dc:	009b      	lsls	r3, r3, #2
 80039de:	220f      	movs	r2, #15
 80039e0:	fa02 f303 	lsl.w	r3, r2, r3
 80039e4:	43db      	mvns	r3, r3
 80039e6:	68fa      	ldr	r2, [r7, #12]
 80039e8:	4013      	ands	r3, r2
 80039ea:	60fb      	str	r3, [r7, #12]
 80039ec:	687b      	ldr	r3, [r7, #4]
 80039ee:	4a40      	ldr	r2, [pc, #256]	@ (8003af0 <HAL_GPIO_Init+0x2c0>)
 80039f0:	4293      	cmp	r3, r2
 80039f2:	d013      	beq.n	8003a1c <HAL_GPIO_Init+0x1ec>
 80039f4:	687b      	ldr	r3, [r7, #4]
 80039f6:	4a3f      	ldr	r2, [pc, #252]	@ (8003af4 <HAL_GPIO_Init+0x2c4>)
 80039f8:	4293      	cmp	r3, r2
 80039fa:	d00d      	beq.n	8003a18 <HAL_GPIO_Init+0x1e8>
 80039fc:	687b      	ldr	r3, [r7, #4]
 80039fe:	4a3e      	ldr	r2, [pc, #248]	@ (8003af8 <HAL_GPIO_Init+0x2c8>)
 8003a00:	4293      	cmp	r3, r2
 8003a02:	d007      	beq.n	8003a14 <HAL_GPIO_Init+0x1e4>
 8003a04:	687b      	ldr	r3, [r7, #4]
 8003a06:	4a3d      	ldr	r2, [pc, #244]	@ (8003afc <HAL_GPIO_Init+0x2cc>)
 8003a08:	4293      	cmp	r3, r2
 8003a0a:	d101      	bne.n	8003a10 <HAL_GPIO_Init+0x1e0>
 8003a0c:	2303      	movs	r3, #3
 8003a0e:	e006      	b.n	8003a1e <HAL_GPIO_Init+0x1ee>
 8003a10:	2304      	movs	r3, #4
 8003a12:	e004      	b.n	8003a1e <HAL_GPIO_Init+0x1ee>
 8003a14:	2302      	movs	r3, #2
 8003a16:	e002      	b.n	8003a1e <HAL_GPIO_Init+0x1ee>
 8003a18:	2301      	movs	r3, #1
 8003a1a:	e000      	b.n	8003a1e <HAL_GPIO_Init+0x1ee>
 8003a1c:	2300      	movs	r3, #0
 8003a1e:	6a7a      	ldr	r2, [r7, #36]	@ 0x24
 8003a20:	f002 0203 	and.w	r2, r2, #3
 8003a24:	0092      	lsls	r2, r2, #2
 8003a26:	4093      	lsls	r3, r2
 8003a28:	68fa      	ldr	r2, [r7, #12]
 8003a2a:	4313      	orrs	r3, r2
 8003a2c:	60fb      	str	r3, [r7, #12]
 8003a2e:	492f      	ldr	r1, [pc, #188]	@ (8003aec <HAL_GPIO_Init+0x2bc>)
 8003a30:	6a7b      	ldr	r3, [r7, #36]	@ 0x24
 8003a32:	089b      	lsrs	r3, r3, #2
 8003a34:	3302      	adds	r3, #2
 8003a36:	68fa      	ldr	r2, [r7, #12]
 8003a38:	f841 2023 	str.w	r2, [r1, r3, lsl #2]
 8003a3c:	683b      	ldr	r3, [r7, #0]
 8003a3e:	685b      	ldr	r3, [r3, #4]
 8003a40:	f403 1380 	and.w	r3, r3, #1048576	@ 0x100000
 8003a44:	2b00      	cmp	r3, #0
 8003a46:	d006      	beq.n	8003a56 <HAL_GPIO_Init+0x226>
 8003a48:	4b2d      	ldr	r3, [pc, #180]	@ (8003b00 <HAL_GPIO_Init+0x2d0>)
 8003a4a:	689a      	ldr	r2, [r3, #8]
 8003a4c:	492c      	ldr	r1, [pc, #176]	@ (8003b00 <HAL_GPIO_Init+0x2d0>)
 8003a4e:	69bb      	ldr	r3, [r7, #24]
 8003a50:	4313      	orrs	r3, r2
 8003a52:	608b      	str	r3, [r1, #8]
 8003a54:	e006      	b.n	8003a64 <HAL_GPIO_Init+0x234>
 8003a56:	4b2a      	ldr	r3, [pc, #168]	@ (8003b00 <HAL_GPIO_Init+0x2d0>)
 8003a58:	689a      	ldr	r2, [r3, #8]
 8003a5a:	69bb      	ldr	r3, [r7, #24]
 8003a5c:	43db      	mvns	r3, r3
 8003a5e:	4928      	ldr	r1, [pc, #160]	@ (8003b00 <HAL_GPIO_Init+0x2d0>)
 8003a60:	4013      	ands	r3, r2
 8003a62:	608b      	str	r3, [r1, #8]
 8003a64:	683b      	ldr	r3, [r7, #0]
 8003a66:	685b      	ldr	r3, [r3, #4]
 8003a68:	f403 1300 	and.w	r3, r3, #2097152	@ 0x200000
 8003a6c:	2b00      	cmp	r3, #0
 8003a6e:	d006      	beq.n	8003a7e <HAL_GPIO_Init+0x24e>
 8003a70:	4b23      	ldr	r3, [pc, #140]	@ (8003b00 <HAL_GPIO_Init+0x2d0>)
 8003a72:	68da      	ldr	r2, [r3, #12]
 8003a74:	4922      	ldr	r1, [pc, #136]	@ (8003b00 <HAL_GPIO_Init+0x2d0>)
 8003a76:	69bb      	ldr	r3, [r7, #24]
 8003a78:	4313      	orrs	r3, r2
 8003a7a:	60cb      	str	r3, [r1, #12]
 8003a7c:	e006      	b.n	8003a8c <HAL_GPIO_Init+0x25c>
 8003a7e:	4b20      	ldr	r3, [pc, #128]	@ (8003b00 <HAL_GPIO_Init+0x2d0>)
 8003a80:	68da      	ldr	r2, [r3, #12]
 8003a82:	69bb      	ldr	r3, [r7, #24]
 8003a84:	43db      	mvns	r3, r3
 8003a86:	491e      	ldr	r1, [pc, #120]	@ (8003b00 <HAL_GPIO_Init+0x2d0>)
 8003a88:	4013      	ands	r3, r2
 8003a8a:	60cb      	str	r3, [r1, #12]
 8003a8c:	683b      	ldr	r3, [r7, #0]
 8003a8e:	685b      	ldr	r3, [r3, #4]
 8003a90:	f403 3300 	and.w	r3, r3, #131072	@ 0x20000
 8003a94:	2b00      	cmp	r3, #0
 8003a96:	d006      	beq.n	8003aa6 <HAL_GPIO_Init+0x276>
 8003a98:	4b19      	ldr	r3, [pc, #100]	@ (8003b00 <HAL_GPIO_Init+0x2d0>)
 8003a9a:	685a      	ldr	r2, [r3, #4]
 8003a9c:	4918      	ldr	r1, [pc, #96]	@ (8003b00 <HAL_GPIO_Init+0x2d0>)
 8003a9e:	69bb      	ldr	r3, [r7, #24]
 8003aa0:	4313      	orrs	r3, r2
 8003aa2:	604b      	str	r3, [r1, #4]
 8003aa4:	e006      	b.n	8003ab4 <HAL_GPIO_Init+0x284>
 8003aa6:	4b16      	ldr	r3, [pc, #88]	@ (8003b00 <HAL_GPIO_Init+0x2d0>)
 8003aa8:	685a      	ldr	r2, [r3, #4]
 8003aaa:	69bb      	ldr	r3, [r7, #24]
 8003aac:	43db      	mvns	r3, r3
 8003aae:	4914      	ldr	r1, [pc, #80]	@ (8003b00 <HAL_GPIO_Init+0x2d0>)
 8003ab0:	4013      	ands	r3, r2
 8003ab2:	604b      	str	r3, [r1, #4]
 8003ab4:	683b      	ldr	r3, [r7, #0]
 8003ab6:	685b      	ldr	r3, [r3, #4]
 8003ab8:	f403 3380 	and.w	r3, r3, #65536	@ 0x10000
 8003abc:	2b00      	cmp	r3, #0
 8003abe:	d021      	beq.n	8003b04 <HAL_GPIO_Init+0x2d4>
 8003ac0:	4b0f      	ldr	r3, [pc, #60]	@ (8003b00 <HAL_GPIO_Init+0x2d0>)
 8003ac2:	681a      	ldr	r2, [r3, #0]
 8003ac4:	490e      	ldr	r1, [pc, #56]	@ (8003b00 <HAL_GPIO_Init+0x2d0>)
 8003ac6:	69bb      	ldr	r3, [r7, #24]
 8003ac8:	4313      	orrs	r3, r2
 8003aca:	600b      	str	r3, [r1, #0]
 8003acc:	e021      	b.n	8003b12 <HAL_GPIO_Init+0x2e2>
 8003ace:	bf00      	nop
 8003ad0:	10320000 	.word	0x10320000
 8003ad4:	10310000 	.word	0x10310000
 8003ad8:	10220000 	.word	0x10220000
 8003adc:	10210000 	.word	0x10210000
 8003ae0:	10120000 	.word	0x10120000
 8003ae4:	10110000 	.word	0x10110000
 8003ae8:	40021000 	.word	0x40021000
 8003aec:	40010000 	.word	0x40010000
 8003af0:	40010800 	.word	0x40010800
 8003af4:	40010c00 	.word	0x40010c00
 8003af8:	40011000 	.word	0x40011000
 8003afc:	40011400 	.word	0x40011400
 8003b00:	40010400 	.word	0x40010400
 8003b04:	4b0b      	ldr	r3, [pc, #44]	@ (8003b34 <HAL_GPIO_Init+0x304>)
 8003b06:	681a      	ldr	r2, [r3, #0]
 8003b08:	69bb      	ldr	r3, [r7, #24]
 8003b0a:	43db      	mvns	r3, r3
 8003b0c:	4909      	ldr	r1, [pc, #36]	@ (8003b34 <HAL_GPIO_Init+0x304>)
 8003b0e:	4013      	ands	r3, r2
 8003b10:	600b      	str	r3, [r1, #0]
 8003b12:	6a7b      	ldr	r3, [r7, #36]	@ 0x24
 8003b14:	3301      	adds	r3, #1
 8003b16:	627b      	str	r3, [r7, #36]	@ 0x24
 8003b18:	683b      	ldr	r3, [r7, #0]
 8003b1a:	681a      	ldr	r2, [r3, #0]
 8003b1c:	6a7b      	ldr	r3, [r7, #36]	@ 0x24
 8003b1e:	fa22 f303 	lsr.w	r3, r2, r3
 8003b22:	2b00      	cmp	r3, #0
 8003b24:	f47f ae8e 	bne.w	8003844 <HAL_GPIO_Init+0x14>
 8003b28:	bf00      	nop
 8003b2a:	bf00      	nop
 8003b2c:	372c      	adds	r7, #44	@ 0x2c
 8003b2e:	46bd      	mov	sp, r7
 8003b30:	bc80      	pop	{r7}
 8003b32:	4770      	bx	lr
 8003b34:	40010400 	.word	0x40010400

08003b38 <HAL_GPIO_WritePin>:
 8003b38:	b480      	push	{r7}
 8003b3a:	b083      	sub	sp, #12
 8003b3c:	af00      	add	r7, sp, #0
 8003b3e:	6078      	str	r0, [r7, #4]
 8003b40:	460b      	mov	r3, r1
 8003b42:	807b      	strh	r3, [r7, #2]
 8003b44:	4613      	mov	r3, r2
 8003b46:	707b      	strb	r3, [r7, #1]
 8003b48:	787b      	ldrb	r3, [r7, #1]
 8003b4a:	2b00      	cmp	r3, #0
 8003b4c:	d003      	beq.n	8003b56 <HAL_GPIO_WritePin+0x1e>
 8003b4e:	887a      	ldrh	r2, [r7, #2]
 8003b50:	687b      	ldr	r3, [r7, #4]
 8003b52:	611a      	str	r2, [r3, #16]
 8003b54:	e003      	b.n	8003b5e <HAL_GPIO_WritePin+0x26>
 8003b56:	887b      	ldrh	r3, [r7, #2]
 8003b58:	041a      	lsls	r2, r3, #16
 8003b5a:	687b      	ldr	r3, [r7, #4]
 8003b5c:	611a      	str	r2, [r3, #16]
 8003b5e:	bf00      	nop
 8003b60:	370c      	adds	r7, #12
 8003b62:	46bd      	mov	sp, r7
 8003b64:	bc80      	pop	{r7}
 8003b66:	4770      	bx	lr

08003b68 <HAL_GPIO_TogglePin>:
 8003b68:	b480      	push	{r7}
 8003b6a:	b085      	sub	sp, #20
 8003b6c:	af00      	add	r7, sp, #0
 8003b6e:	6078      	str	r0, [r7, #4]
 8003b70:	460b      	mov	r3, r1
 8003b72:	807b      	strh	r3, [r7, #2]
 8003b74:	687b      	ldr	r3, [r7, #4]
 8003b76:	68db      	ldr	r3, [r3, #12]
 8003b78:	60fb      	str	r3, [r7, #12]
 8003b7a:	887a      	ldrh	r2, [r7, #2]
 8003b7c:	68fb      	ldr	r3, [r7, #12]
 8003b7e:	4013      	ands	r3, r2
 8003b80:	041a      	lsls	r2, r3, #16
 8003b82:	68fb      	ldr	r3, [r7, #12]
 8003b84:	43d9      	mvns	r1, r3
 8003b86:	887b      	ldrh	r3, [r7, #2]
 8003b88:	400b      	ands	r3, r1
 8003b8a:	431a      	orrs	r2, r3
 8003b8c:	687b      	ldr	r3, [r7, #4]
 8003b8e:	611a      	str	r2, [r3, #16]
 8003b90:	bf00      	nop
 8003b92:	3714      	adds	r7, #20
 8003b94:	46bd      	mov	sp, r7
 8003b96:	bc80      	pop	{r7}
 8003b98:	4770      	bx	lr
	...

08003b9c <HAL_GPIO_EXTI_IRQHandler>:
 8003b9c:	b580      	push	{r7, lr}
 8003b9e:	b082      	sub	sp, #8
 8003ba0:	af00      	add	r7, sp, #0
 8003ba2:	4603      	mov	r3, r0
 8003ba4:	80fb      	strh	r3, [r7, #6]
 8003ba6:	4b08      	ldr	r3, [pc, #32]	@ (8003bc8 <HAL_GPIO_EXTI_IRQHandler+0x2c>)
 8003ba8:	695a      	ldr	r2, [r3, #20]
 8003baa:	88fb      	ldrh	r3, [r7, #6]
 8003bac:	4013      	ands	r3, r2
 8003bae:	2b00      	cmp	r3, #0
 8003bb0:	d006      	beq.n	8003bc0 <HAL_GPIO_EXTI_IRQHandler+0x24>
 8003bb2:	4a05      	ldr	r2, [pc, #20]	@ (8003bc8 <HAL_GPIO_EXTI_IRQHandler+0x2c>)
 8003bb4:	88fb      	ldrh	r3, [r7, #6]
 8003bb6:	6153      	str	r3, [r2, #20]
 8003bb8:	88fb      	ldrh	r3, [r7, #6]
 8003bba:	4618      	mov	r0, r3
 8003bbc:	f7fe fad2 	bl	8002164 <HAL_GPIO_EXTI_Callback>
 8003bc0:	bf00      	nop
 8003bc2:	3708      	adds	r7, #8
 8003bc4:	46bd      	mov	sp, r7
 8003bc6:	bd80      	pop	{r7, pc}
 8003bc8:	40010400 	.word	0x40010400

08003bcc <HAL_I2C_Init>:
 8003bcc:	b580      	push	{r7, lr}
 8003bce:	b084      	sub	sp, #16
 8003bd0:	af00      	add	r7, sp, #0
 8003bd2:	6078      	str	r0, [r7, #4]
 8003bd4:	687b      	ldr	r3, [r7, #4]
 8003bd6:	2b00      	cmp	r3, #0
 8003bd8:	d101      	bne.n	8003bde <HAL_I2C_Init+0x12>
 8003bda:	2301      	movs	r3, #1
 8003bdc:	e12b      	b.n	8003e36 <HAL_I2C_Init+0x26a>
 8003bde:	687b      	ldr	r3, [r7, #4]
 8003be0:	f893 303d 	ldrb.w	r3, [r3, #61]	@ 0x3d
 8003be4:	b2db      	uxtb	r3, r3
 8003be6:	2b00      	cmp	r3, #0
 8003be8:	d106      	bne.n	8003bf8 <HAL_I2C_Init+0x2c>
 8003bea:	687b      	ldr	r3, [r7, #4]
 8003bec:	2200      	movs	r2, #0
 8003bee:	f883 203c 	strb.w	r2, [r3, #60]	@ 0x3c
 8003bf2:	6878      	ldr	r0, [r7, #4]
 8003bf4:	f7fe fff6 	bl	8002be4 <HAL_I2C_MspInit>
 8003bf8:	687b      	ldr	r3, [r7, #4]
 8003bfa:	2224      	movs	r2, #36	@ 0x24
 8003bfc:	f883 203d 	strb.w	r2, [r3, #61]	@ 0x3d
 8003c00:	687b      	ldr	r3, [r7, #4]
 8003c02:	681b      	ldr	r3, [r3, #0]
 8003c04:	681a      	ldr	r2, [r3, #0]
 8003c06:	687b      	ldr	r3, [r7, #4]
 8003c08:	681b      	ldr	r3, [r3, #0]
 8003c0a:	f022 0201 	bic.w	r2, r2, #1
 8003c0e:	601a      	str	r2, [r3, #0]
 8003c10:	687b      	ldr	r3, [r7, #4]
 8003c12:	681b      	ldr	r3, [r3, #0]
 8003c14:	681a      	ldr	r2, [r3, #0]
 8003c16:	687b      	ldr	r3, [r7, #4]
 8003c18:	681b      	ldr	r3, [r3, #0]
 8003c1a:	f442 4200 	orr.w	r2, r2, #32768	@ 0x8000
 8003c1e:	601a      	str	r2, [r3, #0]
 8003c20:	687b      	ldr	r3, [r7, #4]
 8003c22:	681b      	ldr	r3, [r3, #0]
 8003c24:	681a      	ldr	r2, [r3, #0]
 8003c26:	687b      	ldr	r3, [r7, #4]
 8003c28:	681b      	ldr	r3, [r3, #0]
 8003c2a:	f422 4200 	bic.w	r2, r2, #32768	@ 0x8000
 8003c2e:	601a      	str	r2, [r3, #0]
 8003c30:	f001 fd7c 	bl	800572c <HAL_RCC_GetPCLK1Freq>
 8003c34:	60f8      	str	r0, [r7, #12]
 8003c36:	687b      	ldr	r3, [r7, #4]
 8003c38:	685b      	ldr	r3, [r3, #4]
 8003c3a:	4a81      	ldr	r2, [pc, #516]	@ (8003e40 <HAL_I2C_Init+0x274>)
 8003c3c:	4293      	cmp	r3, r2
 8003c3e:	d807      	bhi.n	8003c50 <HAL_I2C_Init+0x84>
 8003c40:	68fb      	ldr	r3, [r7, #12]
 8003c42:	4a80      	ldr	r2, [pc, #512]	@ (8003e44 <HAL_I2C_Init+0x278>)
 8003c44:	4293      	cmp	r3, r2
 8003c46:	bf94      	ite	ls
 8003c48:	2301      	movls	r3, #1
 8003c4a:	2300      	movhi	r3, #0
 8003c4c:	b2db      	uxtb	r3, r3
 8003c4e:	e006      	b.n	8003c5e <HAL_I2C_Init+0x92>
 8003c50:	68fb      	ldr	r3, [r7, #12]
 8003c52:	4a7d      	ldr	r2, [pc, #500]	@ (8003e48 <HAL_I2C_Init+0x27c>)
 8003c54:	4293      	cmp	r3, r2
 8003c56:	bf94      	ite	ls
 8003c58:	2301      	movls	r3, #1
 8003c5a:	2300      	movhi	r3, #0
 8003c5c:	b2db      	uxtb	r3, r3
 8003c5e:	2b00      	cmp	r3, #0
 8003c60:	d001      	beq.n	8003c66 <HAL_I2C_Init+0x9a>
 8003c62:	2301      	movs	r3, #1
 8003c64:	e0e7      	b.n	8003e36 <HAL_I2C_Init+0x26a>
 8003c66:	68fb      	ldr	r3, [r7, #12]
 8003c68:	4a78      	ldr	r2, [pc, #480]	@ (8003e4c <HAL_I2C_Init+0x280>)
 8003c6a:	fba2 2303 	umull	r2, r3, r2, r3
 8003c6e:	0c9b      	lsrs	r3, r3, #18
 8003c70:	60bb      	str	r3, [r7, #8]
 8003c72:	687b      	ldr	r3, [r7, #4]
 8003c74:	681b      	ldr	r3, [r3, #0]
 8003c76:	685b      	ldr	r3, [r3, #4]
 8003c78:	f023 013f 	bic.w	r1, r3, #63	@ 0x3f
 8003c7c:	687b      	ldr	r3, [r7, #4]
 8003c7e:	681b      	ldr	r3, [r3, #0]
 8003c80:	68ba      	ldr	r2, [r7, #8]
 8003c82:	430a      	orrs	r2, r1
 8003c84:	605a      	str	r2, [r3, #4]
 8003c86:	687b      	ldr	r3, [r7, #4]
 8003c88:	681b      	ldr	r3, [r3, #0]
 8003c8a:	6a1b      	ldr	r3, [r3, #32]
 8003c8c:	f023 013f 	bic.w	r1, r3, #63	@ 0x3f
 8003c90:	687b      	ldr	r3, [r7, #4]
 8003c92:	685b      	ldr	r3, [r3, #4]
 8003c94:	4a6a      	ldr	r2, [pc, #424]	@ (8003e40 <HAL_I2C_Init+0x274>)
 8003c96:	4293      	cmp	r3, r2
 8003c98:	d802      	bhi.n	8003ca0 <HAL_I2C_Init+0xd4>
 8003c9a:	68bb      	ldr	r3, [r7, #8]
 8003c9c:	3301      	adds	r3, #1
 8003c9e:	e009      	b.n	8003cb4 <HAL_I2C_Init+0xe8>
 8003ca0:	68bb      	ldr	r3, [r7, #8]
 8003ca2:	f44f 7296 	mov.w	r2, #300	@ 0x12c
 8003ca6:	fb02 f303 	mul.w	r3, r2, r3
 8003caa:	4a69      	ldr	r2, [pc, #420]	@ (8003e50 <HAL_I2C_Init+0x284>)
 8003cac:	fba2 2303 	umull	r2, r3, r2, r3
 8003cb0:	099b      	lsrs	r3, r3, #6
 8003cb2:	3301      	adds	r3, #1
 8003cb4:	687a      	ldr	r2, [r7, #4]
 8003cb6:	6812      	ldr	r2, [r2, #0]
 8003cb8:	430b      	orrs	r3, r1
 8003cba:	6213      	str	r3, [r2, #32]
 8003cbc:	687b      	ldr	r3, [r7, #4]
 8003cbe:	681b      	ldr	r3, [r3, #0]
 8003cc0:	69db      	ldr	r3, [r3, #28]
 8003cc2:	f423 424f 	bic.w	r2, r3, #52992	@ 0xcf00
 8003cc6:	f022 02ff 	bic.w	r2, r2, #255	@ 0xff
 8003cca:	687b      	ldr	r3, [r7, #4]
 8003ccc:	685b      	ldr	r3, [r3, #4]
 8003cce:	495c      	ldr	r1, [pc, #368]	@ (8003e40 <HAL_I2C_Init+0x274>)
 8003cd0:	428b      	cmp	r3, r1
 8003cd2:	d819      	bhi.n	8003d08 <HAL_I2C_Init+0x13c>
 8003cd4:	68fb      	ldr	r3, [r7, #12]
 8003cd6:	1e59      	subs	r1, r3, #1
 8003cd8:	687b      	ldr	r3, [r7, #4]
 8003cda:	685b      	ldr	r3, [r3, #4]
 8003cdc:	005b      	lsls	r3, r3, #1
 8003cde:	fbb1 f3f3 	udiv	r3, r1, r3
 8003ce2:	1c59      	adds	r1, r3, #1
 8003ce4:	f640 73fc 	movw	r3, #4092	@ 0xffc
 8003ce8:	400b      	ands	r3, r1
 8003cea:	2b00      	cmp	r3, #0
 8003cec:	d00a      	beq.n	8003d04 <HAL_I2C_Init+0x138>
 8003cee:	68fb      	ldr	r3, [r7, #12]
 8003cf0:	1e59      	subs	r1, r3, #1
 8003cf2:	687b      	ldr	r3, [r7, #4]
 8003cf4:	685b      	ldr	r3, [r3, #4]
 8003cf6:	005b      	lsls	r3, r3, #1
 8003cf8:	fbb1 f3f3 	udiv	r3, r1, r3
 8003cfc:	3301      	adds	r3, #1
 8003cfe:	f3c3 030b 	ubfx	r3, r3, #0, #12
 8003d02:	e051      	b.n	8003da8 <HAL_I2C_Init+0x1dc>
 8003d04:	2304      	movs	r3, #4
 8003d06:	e04f      	b.n	8003da8 <HAL_I2C_Init+0x1dc>
 8003d08:	687b      	ldr	r3, [r7, #4]
 8003d0a:	689b      	ldr	r3, [r3, #8]
 8003d0c:	2b00      	cmp	r3, #0
 8003d0e:	d111      	bne.n	8003d34 <HAL_I2C_Init+0x168>
 8003d10:	68fb      	ldr	r3, [r7, #12]
 8003d12:	1e58      	subs	r0, r3, #1
 8003d14:	687b      	ldr	r3, [r7, #4]
 8003d16:	6859      	ldr	r1, [r3, #4]
 8003d18:	460b      	mov	r3, r1
 8003d1a:	005b      	lsls	r3, r3, #1
 8003d1c:	440b      	add	r3, r1
 8003d1e:	fbb0 f3f3 	udiv	r3, r0, r3
 8003d22:	3301      	adds	r3, #1
 8003d24:	f3c3 030b 	ubfx	r3, r3, #0, #12
 8003d28:	2b00      	cmp	r3, #0
 8003d2a:	bf0c      	ite	eq
 8003d2c:	2301      	moveq	r3, #1
 8003d2e:	2300      	movne	r3, #0
 8003d30:	b2db      	uxtb	r3, r3
 8003d32:	e012      	b.n	8003d5a <HAL_I2C_Init+0x18e>
 8003d34:	68fb      	ldr	r3, [r7, #12]
 8003d36:	1e58      	subs	r0, r3, #1
 8003d38:	687b      	ldr	r3, [r7, #4]
 8003d3a:	6859      	ldr	r1, [r3, #4]
 8003d3c:	460b      	mov	r3, r1
 8003d3e:	009b      	lsls	r3, r3, #2
 8003d40:	440b      	add	r3, r1
 8003d42:	0099      	lsls	r1, r3, #2
 8003d44:	440b      	add	r3, r1
 8003d46:	fbb0 f3f3 	udiv	r3, r0, r3
 8003d4a:	3301      	adds	r3, #1
 8003d4c:	f3c3 030b 	ubfx	r3, r3, #0, #12
 8003d50:	2b00      	cmp	r3, #0
 8003d52:	bf0c      	ite	eq
 8003d54:	2301      	moveq	r3, #1
 8003d56:	2300      	movne	r3, #0
 8003d58:	b2db      	uxtb	r3, r3
 8003d5a:	2b00      	cmp	r3, #0
 8003d5c:	d001      	beq.n	8003d62 <HAL_I2C_Init+0x196>
 8003d5e:	2301      	movs	r3, #1
 8003d60:	e022      	b.n	8003da8 <HAL_I2C_Init+0x1dc>
 8003d62:	687b      	ldr	r3, [r7, #4]
 8003d64:	689b      	ldr	r3, [r3, #8]
 8003d66:	2b00      	cmp	r3, #0
 8003d68:	d10e      	bne.n	8003d88 <HAL_I2C_Init+0x1bc>
 8003d6a:	68fb      	ldr	r3, [r7, #12]
 8003d6c:	1e58      	subs	r0, r3, #1
 8003d6e:	687b      	ldr	r3, [r7, #4]
 8003d70:	6859      	ldr	r1, [r3, #4]
 8003d72:	460b      	mov	r3, r1
 8003d74:	005b      	lsls	r3, r3, #1
 8003d76:	440b      	add	r3, r1
 8003d78:	fbb0 f3f3 	udiv	r3, r0, r3
 8003d7c:	3301      	adds	r3, #1
 8003d7e:	f3c3 030b 	ubfx	r3, r3, #0, #12
 8003d82:	f443 4300 	orr.w	r3, r3, #32768	@ 0x8000
 8003d86:	e00f      	b.n	8003da8 <HAL_I2C_Init+0x1dc>
 8003d88:	68fb      	ldr	r3, [r7, #12]
 8003d8a:	1e58      	subs	r0, r3, #1
 8003d8c:	687b      	ldr	r3, [r7, #4]
 8003d8e:	6859      	ldr	r1, [r3, #4]
 8003d90:	460b      	mov	r3, r1
 8003d92:	009b      	lsls	r3, r3, #2
 8003d94:	440b      	add	r3, r1
 8003d96:	0099      	lsls	r1, r3, #2
 8003d98:	440b      	add	r3, r1
 8003d9a:	fbb0 f3f3 	udiv	r3, r0, r3
 8003d9e:	3301      	adds	r3, #1
 8003da0:	f3c3 030b 	ubfx	r3, r3, #0, #12
 8003da4:	f443 4340 	orr.w	r3, r3, #49152	@ 0xc000
 8003da8:	6879      	ldr	r1, [r7, #4]
 8003daa:	6809      	ldr	r1, [r1, #0]
 8003dac:	4313      	orrs	r3, r2
 8003dae:	61cb      	str	r3, [r1, #28]
 8003db0:	687b      	ldr	r3, [r7, #4]
 8003db2:	681b      	ldr	r3, [r3, #0]
 8003db4:	681b      	ldr	r3, [r3, #0]
 8003db6:	f023 01c0 	bic.w	r1, r3, #192	@ 0xc0
 8003dba:	687b      	ldr	r3, [r7, #4]
 8003dbc:	69da      	ldr	r2, [r3, #28]
 8003dbe:	687b      	ldr	r3, [r7, #4]
 8003dc0:	6a1b      	ldr	r3, [r3, #32]
 8003dc2:	431a      	orrs	r2, r3
 8003dc4:	687b      	ldr	r3, [r7, #4]
 8003dc6:	681b      	ldr	r3, [r3, #0]
 8003dc8:	430a      	orrs	r2, r1
 8003dca:	601a      	str	r2, [r3, #0]
 8003dcc:	687b      	ldr	r3, [r7, #4]
 8003dce:	681b      	ldr	r3, [r3, #0]
 8003dd0:	689b      	ldr	r3, [r3, #8]
 8003dd2:	f423 4303 	bic.w	r3, r3, #33536	@ 0x8300
 8003dd6:	f023 03ff 	bic.w	r3, r3, #255	@ 0xff
 8003dda:	687a      	ldr	r2, [r7, #4]
 8003ddc:	6911      	ldr	r1, [r2, #16]
 8003dde:	687a      	ldr	r2, [r7, #4]
 8003de0:	68d2      	ldr	r2, [r2, #12]
 8003de2:	4311      	orrs	r1, r2
 8003de4:	687a      	ldr	r2, [r7, #4]
 8003de6:	6812      	ldr	r2, [r2, #0]
 8003de8:	430b      	orrs	r3, r1
 8003dea:	6093      	str	r3, [r2, #8]
 8003dec:	687b      	ldr	r3, [r7, #4]
 8003dee:	681b      	ldr	r3, [r3, #0]
 8003df0:	68db      	ldr	r3, [r3, #12]
 8003df2:	f023 01ff 	bic.w	r1, r3, #255	@ 0xff
 8003df6:	687b      	ldr	r3, [r7, #4]
 8003df8:	695a      	ldr	r2, [r3, #20]
 8003dfa:	687b      	ldr	r3, [r7, #4]
 8003dfc:	699b      	ldr	r3, [r3, #24]
 8003dfe:	431a      	orrs	r2, r3
 8003e00:	687b      	ldr	r3, [r7, #4]
 8003e02:	681b      	ldr	r3, [r3, #0]
 8003e04:	430a      	orrs	r2, r1
 8003e06:	60da      	str	r2, [r3, #12]
 8003e08:	687b      	ldr	r3, [r7, #4]
 8003e0a:	681b      	ldr	r3, [r3, #0]
 8003e0c:	681a      	ldr	r2, [r3, #0]
 8003e0e:	687b      	ldr	r3, [r7, #4]
 8003e10:	681b      	ldr	r3, [r3, #0]
 8003e12:	f042 0201 	orr.w	r2, r2, #1
 8003e16:	601a      	str	r2, [r3, #0]
 8003e18:	687b      	ldr	r3, [r7, #4]
 8003e1a:	2200      	movs	r2, #0
 8003e1c:	641a      	str	r2, [r3, #64]	@ 0x40
 8003e1e:	687b      	ldr	r3, [r7, #4]
 8003e20:	2220      	movs	r2, #32
 8003e22:	f883 203d 	strb.w	r2, [r3, #61]	@ 0x3d
 8003e26:	687b      	ldr	r3, [r7, #4]
 8003e28:	2200      	movs	r2, #0
 8003e2a:	631a      	str	r2, [r3, #48]	@ 0x30
 8003e2c:	687b      	ldr	r3, [r7, #4]
 8003e2e:	2200      	movs	r2, #0
 8003e30:	f883 203e 	strb.w	r2, [r3, #62]	@ 0x3e
 8003e34:	2300      	movs	r3, #0
 8003e36:	4618      	mov	r0, r3
 8003e38:	3710      	adds	r7, #16
 8003e3a:	46bd      	mov	sp, r7
 8003e3c:	bd80      	pop	{r7, pc}
 8003e3e:	bf00      	nop
 8003e40:	000186a0 	.word	0x000186a0
 8003e44:	001e847f 	.word	0x001e847f
 8003e48:	003d08ff 	.word	0x003d08ff
 8003e4c:	431bde83 	.word	0x431bde83
 8003e50:	10624dd3 	.word	0x10624dd3

08003e54 <HAL_I2C_Master_Transmit>:
 8003e54:	b580      	push	{r7, lr}
 8003e56:	b088      	sub	sp, #32
 8003e58:	af02      	add	r7, sp, #8
 8003e5a:	60f8      	str	r0, [r7, #12]
 8003e5c:	607a      	str	r2, [r7, #4]
 8003e5e:	461a      	mov	r2, r3
 8003e60:	460b      	mov	r3, r1
 8003e62:	817b      	strh	r3, [r7, #10]
 8003e64:	4613      	mov	r3, r2
 8003e66:	813b      	strh	r3, [r7, #8]
 8003e68:	f7ff f8e2 	bl	8003030 <HAL_GetTick>
 8003e6c:	6178      	str	r0, [r7, #20]
 8003e6e:	68fb      	ldr	r3, [r7, #12]
 8003e70:	f893 303d 	ldrb.w	r3, [r3, #61]	@ 0x3d
 8003e74:	b2db      	uxtb	r3, r3
 8003e76:	2b20      	cmp	r3, #32
 8003e78:	f040 80e0 	bne.w	800403c <HAL_I2C_Master_Transmit+0x1e8>
 8003e7c:	697b      	ldr	r3, [r7, #20]
 8003e7e:	9300      	str	r3, [sp, #0]
 8003e80:	2319      	movs	r3, #25
 8003e82:	2201      	movs	r2, #1
 8003e84:	4970      	ldr	r1, [pc, #448]	@ (8004048 <HAL_I2C_Master_Transmit+0x1f4>)
 8003e86:	68f8      	ldr	r0, [r7, #12]
 8003e88:	f000 fe50 	bl	8004b2c <I2C_WaitOnFlagUntilTimeout>
 8003e8c:	4603      	mov	r3, r0
 8003e8e:	2b00      	cmp	r3, #0
 8003e90:	d001      	beq.n	8003e96 <HAL_I2C_Master_Transmit+0x42>
 8003e92:	2302      	movs	r3, #2
 8003e94:	e0d3      	b.n	800403e <HAL_I2C_Master_Transmit+0x1ea>
 8003e96:	68fb      	ldr	r3, [r7, #12]
 8003e98:	f893 303c 	ldrb.w	r3, [r3, #60]	@ 0x3c
 8003e9c:	2b01      	cmp	r3, #1
 8003e9e:	d101      	bne.n	8003ea4 <HAL_I2C_Master_Transmit+0x50>
 8003ea0:	2302      	movs	r3, #2
 8003ea2:	e0cc      	b.n	800403e <HAL_I2C_Master_Transmit+0x1ea>
 8003ea4:	68fb      	ldr	r3, [r7, #12]
 8003ea6:	2201      	movs	r2, #1
 8003ea8:	f883 203c 	strb.w	r2, [r3, #60]	@ 0x3c
 8003eac:	68fb      	ldr	r3, [r7, #12]
 8003eae:	681b      	ldr	r3, [r3, #0]
 8003eb0:	681b      	ldr	r3, [r3, #0]
 8003eb2:	f003 0301 	and.w	r3, r3, #1
 8003eb6:	2b01      	cmp	r3, #1
 8003eb8:	d007      	beq.n	8003eca <HAL_I2C_Master_Transmit+0x76>
 8003eba:	68fb      	ldr	r3, [r7, #12]
 8003ebc:	681b      	ldr	r3, [r3, #0]
 8003ebe:	681a      	ldr	r2, [r3, #0]
 8003ec0:	68fb      	ldr	r3, [r7, #12]
 8003ec2:	681b      	ldr	r3, [r3, #0]
 8003ec4:	f042 0201 	orr.w	r2, r2, #1
 8003ec8:	601a      	str	r2, [r3, #0]
 8003eca:	68fb      	ldr	r3, [r7, #12]
 8003ecc:	681b      	ldr	r3, [r3, #0]
 8003ece:	681a      	ldr	r2, [r3, #0]
 8003ed0:	68fb      	ldr	r3, [r7, #12]
 8003ed2:	681b      	ldr	r3, [r3, #0]
 8003ed4:	f422 6200 	bic.w	r2, r2, #2048	@ 0x800
 8003ed8:	601a      	str	r2, [r3, #0]
 8003eda:	68fb      	ldr	r3, [r7, #12]
 8003edc:	2221      	movs	r2, #33	@ 0x21
 8003ede:	f883 203d 	strb.w	r2, [r3, #61]	@ 0x3d
 8003ee2:	68fb      	ldr	r3, [r7, #12]
 8003ee4:	2210      	movs	r2, #16
 8003ee6:	f883 203e 	strb.w	r2, [r3, #62]	@ 0x3e
 8003eea:	68fb      	ldr	r3, [r7, #12]
 8003eec:	2200      	movs	r2, #0
 8003eee:	641a      	str	r2, [r3, #64]	@ 0x40
 8003ef0:	68fb      	ldr	r3, [r7, #12]
 8003ef2:	687a      	ldr	r2, [r7, #4]
 8003ef4:	625a      	str	r2, [r3, #36]	@ 0x24
 8003ef6:	68fb      	ldr	r3, [r7, #12]
 8003ef8:	893a      	ldrh	r2, [r7, #8]
 8003efa:	855a      	strh	r2, [r3, #42]	@ 0x2a
 8003efc:	68fb      	ldr	r3, [r7, #12]
 8003efe:	8d5b      	ldrh	r3, [r3, #42]	@ 0x2a
 8003f00:	b29a      	uxth	r2, r3
 8003f02:	68fb      	ldr	r3, [r7, #12]
 8003f04:	851a      	strh	r2, [r3, #40]	@ 0x28
 8003f06:	68fb      	ldr	r3, [r7, #12]
 8003f08:	4a50      	ldr	r2, [pc, #320]	@ (800404c <HAL_I2C_Master_Transmit+0x1f8>)
 8003f0a:	62da      	str	r2, [r3, #44]	@ 0x2c
 8003f0c:	8979      	ldrh	r1, [r7, #10]
 8003f0e:	697b      	ldr	r3, [r7, #20]
 8003f10:	6a3a      	ldr	r2, [r7, #32]
 8003f12:	68f8      	ldr	r0, [r7, #12]
 8003f14:	f000 fc0a 	bl	800472c <I2C_MasterRequestWrite>
 8003f18:	4603      	mov	r3, r0
 8003f1a:	2b00      	cmp	r3, #0
 8003f1c:	d001      	beq.n	8003f22 <HAL_I2C_Master_Transmit+0xce>
 8003f1e:	2301      	movs	r3, #1
 8003f20:	e08d      	b.n	800403e <HAL_I2C_Master_Transmit+0x1ea>
 8003f22:	2300      	movs	r3, #0
 8003f24:	613b      	str	r3, [r7, #16]
 8003f26:	68fb      	ldr	r3, [r7, #12]
 8003f28:	681b      	ldr	r3, [r3, #0]
 8003f2a:	695b      	ldr	r3, [r3, #20]
 8003f2c:	613b      	str	r3, [r7, #16]
 8003f2e:	68fb      	ldr	r3, [r7, #12]
 8003f30:	681b      	ldr	r3, [r3, #0]
 8003f32:	699b      	ldr	r3, [r3, #24]
 8003f34:	613b      	str	r3, [r7, #16]
 8003f36:	693b      	ldr	r3, [r7, #16]
 8003f38:	e066      	b.n	8004008 <HAL_I2C_Master_Transmit+0x1b4>
 8003f3a:	697a      	ldr	r2, [r7, #20]
 8003f3c:	6a39      	ldr	r1, [r7, #32]
 8003f3e:	68f8      	ldr	r0, [r7, #12]
 8003f40:	f000 ff0e 	bl	8004d60 <I2C_WaitOnTXEFlagUntilTimeout>
 8003f44:	4603      	mov	r3, r0
 8003f46:	2b00      	cmp	r3, #0
 8003f48:	d00d      	beq.n	8003f66 <HAL_I2C_Master_Transmit+0x112>
 8003f4a:	68fb      	ldr	r3, [r7, #12]
 8003f4c:	6c1b      	ldr	r3, [r3, #64]	@ 0x40
 8003f4e:	2b04      	cmp	r3, #4
 8003f50:	d107      	bne.n	8003f62 <HAL_I2C_Master_Transmit+0x10e>
 8003f52:	68fb      	ldr	r3, [r7, #12]
 8003f54:	681b      	ldr	r3, [r3, #0]
 8003f56:	681a      	ldr	r2, [r3, #0]
 8003f58:	68fb      	ldr	r3, [r7, #12]
 8003f5a:	681b      	ldr	r3, [r3, #0]
 8003f5c:	f442 7200 	orr.w	r2, r2, #512	@ 0x200
 8003f60:	601a      	str	r2, [r3, #0]
 8003f62:	2301      	movs	r3, #1
 8003f64:	e06b      	b.n	800403e <HAL_I2C_Master_Transmit+0x1ea>
 8003f66:	68fb      	ldr	r3, [r7, #12]
 8003f68:	6a5b      	ldr	r3, [r3, #36]	@ 0x24
 8003f6a:	781a      	ldrb	r2, [r3, #0]
 8003f6c:	68fb      	ldr	r3, [r7, #12]
 8003f6e:	681b      	ldr	r3, [r3, #0]
 8003f70:	611a      	str	r2, [r3, #16]
 8003f72:	68fb      	ldr	r3, [r7, #12]
 8003f74:	6a5b      	ldr	r3, [r3, #36]	@ 0x24
 8003f76:	1c5a      	adds	r2, r3, #1
 8003f78:	68fb      	ldr	r3, [r7, #12]
 8003f7a:	625a      	str	r2, [r3, #36]	@ 0x24
 8003f7c:	68fb      	ldr	r3, [r7, #12]
 8003f7e:	8d5b      	ldrh	r3, [r3, #42]	@ 0x2a
 8003f80:	b29b      	uxth	r3, r3
 8003f82:	3b01      	subs	r3, #1
 8003f84:	b29a      	uxth	r2, r3
 8003f86:	68fb      	ldr	r3, [r7, #12]
 8003f88:	855a      	strh	r2, [r3, #42]	@ 0x2a
 8003f8a:	68fb      	ldr	r3, [r7, #12]
 8003f8c:	8d1b      	ldrh	r3, [r3, #40]	@ 0x28
 8003f8e:	3b01      	subs	r3, #1
 8003f90:	b29a      	uxth	r2, r3
 8003f92:	68fb      	ldr	r3, [r7, #12]
 8003f94:	851a      	strh	r2, [r3, #40]	@ 0x28
 8003f96:	68fb      	ldr	r3, [r7, #12]
 8003f98:	681b      	ldr	r3, [r3, #0]
 8003f9a:	695b      	ldr	r3, [r3, #20]
 8003f9c:	f003 0304 	and.w	r3, r3, #4
 8003fa0:	2b04      	cmp	r3, #4
 8003fa2:	d11b      	bne.n	8003fdc <HAL_I2C_Master_Transmit+0x188>
 8003fa4:	68fb      	ldr	r3, [r7, #12]
 8003fa6:	8d1b      	ldrh	r3, [r3, #40]	@ 0x28
 8003fa8:	2b00      	cmp	r3, #0
 8003faa:	d017      	beq.n	8003fdc <HAL_I2C_Master_Transmit+0x188>
 8003fac:	68fb      	ldr	r3, [r7, #12]
 8003fae:	6a5b      	ldr	r3, [r3, #36]	@ 0x24
 8003fb0:	781a      	ldrb	r2, [r3, #0]
 8003fb2:	68fb      	ldr	r3, [r7, #12]
 8003fb4:	681b      	ldr	r3, [r3, #0]
 8003fb6:	611a      	str	r2, [r3, #16]
 8003fb8:	68fb      	ldr	r3, [r7, #12]
 8003fba:	6a5b      	ldr	r3, [r3, #36]	@ 0x24
 8003fbc:	1c5a      	adds	r2, r3, #1
 8003fbe:	68fb      	ldr	r3, [r7, #12]
 8003fc0:	625a      	str	r2, [r3, #36]	@ 0x24
 8003fc2:	68fb      	ldr	r3, [r7, #12]
 8003fc4:	8d5b      	ldrh	r3, [r3, #42]	@ 0x2a
 8003fc6:	b29b      	uxth	r3, r3
 8003fc8:	3b01      	subs	r3, #1
 8003fca:	b29a      	uxth	r2, r3
 8003fcc:	68fb      	ldr	r3, [r7, #12]
 8003fce:	855a      	strh	r2, [r3, #42]	@ 0x2a
 8003fd0:	68fb      	ldr	r3, [r7, #12]
 8003fd2:	8d1b      	ldrh	r3, [r3, #40]	@ 0x28
 8003fd4:	3b01      	subs	r3, #1
 8003fd6:	b29a      	uxth	r2, r3
 8003fd8:	68fb      	ldr	r3, [r7, #12]
 8003fda:	851a      	strh	r2, [r3, #40]	@ 0x28
 8003fdc:	697a      	ldr	r2, [r7, #20]
 8003fde:	6a39      	ldr	r1, [r7, #32]
 8003fe0:	68f8      	ldr	r0, [r7, #12]
 8003fe2:	f000 ff05 	bl	8004df0 <I2C_WaitOnBTFFlagUntilTimeout>
 8003fe6:	4603      	mov	r3, r0
 8003fe8:	2b00      	cmp	r3, #0
 8003fea:	d00d      	beq.n	8004008 <HAL_I2C_Master_Transmit+0x1b4>
 8003fec:	68fb      	ldr	r3, [r7, #12]
 8003fee:	6c1b      	ldr	r3, [r3, #64]	@ 0x40
 8003ff0:	2b04      	cmp	r3, #4
 8003ff2:	d107      	bne.n	8004004 <HAL_I2C_Master_Transmit+0x1b0>
 8003ff4:	68fb      	ldr	r3, [r7, #12]
 8003ff6:	681b      	ldr	r3, [r3, #0]
 8003ff8:	681a      	ldr	r2, [r3, #0]
 8003ffa:	68fb      	ldr	r3, [r7, #12]
 8003ffc:	681b      	ldr	r3, [r3, #0]
 8003ffe:	f442 7200 	orr.w	r2, r2, #512	@ 0x200
 8004002:	601a      	str	r2, [r3, #0]
 8004004:	2301      	movs	r3, #1
 8004006:	e01a      	b.n	800403e <HAL_I2C_Master_Transmit+0x1ea>
 8004008:	68fb      	ldr	r3, [r7, #12]
 800400a:	8d1b      	ldrh	r3, [r3, #40]	@ 0x28
 800400c:	2b00      	cmp	r3, #0
 800400e:	d194      	bne.n	8003f3a <HAL_I2C_Master_Transmit+0xe6>
 8004010:	68fb      	ldr	r3, [r7, #12]
 8004012:	681b      	ldr	r3, [r3, #0]
 8004014:	681a      	ldr	r2, [r3, #0]
 8004016:	68fb      	ldr	r3, [r7, #12]
 8004018:	681b      	ldr	r3, [r3, #0]
 800401a:	f442 7200 	orr.w	r2, r2, #512	@ 0x200
 800401e:	601a      	str	r2, [r3, #0]
 8004020:	68fb      	ldr	r3, [r7, #12]
 8004022:	2220      	movs	r2, #32
 8004024:	f883 203d 	strb.w	r2, [r3, #61]	@ 0x3d
 8004028:	68fb      	ldr	r3, [r7, #12]
 800402a:	2200      	movs	r2, #0
 800402c:	f883 203e 	strb.w	r2, [r3, #62]	@ 0x3e
 8004030:	68fb      	ldr	r3, [r7, #12]
 8004032:	2200      	movs	r2, #0
 8004034:	f883 203c 	strb.w	r2, [r3, #60]	@ 0x3c
 8004038:	2300      	movs	r3, #0
 800403a:	e000      	b.n	800403e <HAL_I2C_Master_Transmit+0x1ea>
 800403c:	2302      	movs	r3, #2
 800403e:	4618      	mov	r0, r3
 8004040:	3718      	adds	r7, #24
 8004042:	46bd      	mov	sp, r7
 8004044:	bd80      	pop	{r7, pc}
 8004046:	bf00      	nop
 8004048:	00100002 	.word	0x00100002
 800404c:	ffff0000 	.word	0xffff0000

08004050 <HAL_I2C_Mem_Write>:
 8004050:	b580      	push	{r7, lr}
 8004052:	b088      	sub	sp, #32
 8004054:	af02      	add	r7, sp, #8
 8004056:	60f8      	str	r0, [r7, #12]
 8004058:	4608      	mov	r0, r1
 800405a:	4611      	mov	r1, r2
 800405c:	461a      	mov	r2, r3
 800405e:	4603      	mov	r3, r0
 8004060:	817b      	strh	r3, [r7, #10]
 8004062:	460b      	mov	r3, r1
 8004064:	813b      	strh	r3, [r7, #8]
 8004066:	4613      	mov	r3, r2
 8004068:	80fb      	strh	r3, [r7, #6]
 800406a:	f7fe ffe1 	bl	8003030 <HAL_GetTick>
 800406e:	6178      	str	r0, [r7, #20]
 8004070:	68fb      	ldr	r3, [r7, #12]
 8004072:	f893 303d 	ldrb.w	r3, [r3, #61]	@ 0x3d
 8004076:	b2db      	uxtb	r3, r3
 8004078:	2b20      	cmp	r3, #32
 800407a:	f040 80d9 	bne.w	8004230 <HAL_I2C_Mem_Write+0x1e0>
 800407e:	697b      	ldr	r3, [r7, #20]
 8004080:	9300      	str	r3, [sp, #0]
 8004082:	2319      	movs	r3, #25
 8004084:	2201      	movs	r2, #1
 8004086:	496d      	ldr	r1, [pc, #436]	@ (800423c <HAL_I2C_Mem_Write+0x1ec>)
 8004088:	68f8      	ldr	r0, [r7, #12]
 800408a:	f000 fd4f 	bl	8004b2c <I2C_WaitOnFlagUntilTimeout>
 800408e:	4603      	mov	r3, r0
 8004090:	2b00      	cmp	r3, #0
 8004092:	d001      	beq.n	8004098 <HAL_I2C_Mem_Write+0x48>
 8004094:	2302      	movs	r3, #2
 8004096:	e0cc      	b.n	8004232 <HAL_I2C_Mem_Write+0x1e2>
 8004098:	68fb      	ldr	r3, [r7, #12]
 800409a:	f893 303c 	ldrb.w	r3, [r3, #60]	@ 0x3c
 800409e:	2b01      	cmp	r3, #1
 80040a0:	d101      	bne.n	80040a6 <HAL_I2C_Mem_Write+0x56>
 80040a2:	2302      	movs	r3, #2
 80040a4:	e0c5      	b.n	8004232 <HAL_I2C_Mem_Write+0x1e2>
 80040a6:	68fb      	ldr	r3, [r7, #12]
 80040a8:	2201      	movs	r2, #1
 80040aa:	f883 203c 	strb.w	r2, [r3, #60]	@ 0x3c
 80040ae:	68fb      	ldr	r3, [r7, #12]
 80040b0:	681b      	ldr	r3, [r3, #0]
 80040b2:	681b      	ldr	r3, [r3, #0]
 80040b4:	f003 0301 	and.w	r3, r3, #1
 80040b8:	2b01      	cmp	r3, #1
 80040ba:	d007      	beq.n	80040cc <HAL_I2C_Mem_Write+0x7c>
 80040bc:	68fb      	ldr	r3, [r7, #12]
 80040be:	681b      	ldr	r3, [r3, #0]
 80040c0:	681a      	ldr	r2, [r3, #0]
 80040c2:	68fb      	ldr	r3, [r7, #12]
 80040c4:	681b      	ldr	r3, [r3, #0]
 80040c6:	f042 0201 	orr.w	r2, r2, #1
 80040ca:	601a      	str	r2, [r3, #0]
 80040cc:	68fb      	ldr	r3, [r7, #12]
 80040ce:	681b      	ldr	r3, [r3, #0]
 80040d0:	681a      	ldr	r2, [r3, #0]
 80040d2:	68fb      	ldr	r3, [r7, #12]
 80040d4:	681b      	ldr	r3, [r3, #0]
 80040d6:	f422 6200 	bic.w	r2, r2, #2048	@ 0x800
 80040da:	601a      	str	r2, [r3, #0]
 80040dc:	68fb      	ldr	r3, [r7, #12]
 80040de:	2221      	movs	r2, #33	@ 0x21
 80040e0:	f883 203d 	strb.w	r2, [r3, #61]	@ 0x3d
 80040e4:	68fb      	ldr	r3, [r7, #12]
 80040e6:	2240      	movs	r2, #64	@ 0x40
 80040e8:	f883 203e 	strb.w	r2, [r3, #62]	@ 0x3e
 80040ec:	68fb      	ldr	r3, [r7, #12]
 80040ee:	2200      	movs	r2, #0
 80040f0:	641a      	str	r2, [r3, #64]	@ 0x40
 80040f2:	68fb      	ldr	r3, [r7, #12]
 80040f4:	6a3a      	ldr	r2, [r7, #32]
 80040f6:	625a      	str	r2, [r3, #36]	@ 0x24
 80040f8:	68fb      	ldr	r3, [r7, #12]
 80040fa:	8cba      	ldrh	r2, [r7, #36]	@ 0x24
 80040fc:	855a      	strh	r2, [r3, #42]	@ 0x2a
 80040fe:	68fb      	ldr	r3, [r7, #12]
 8004100:	8d5b      	ldrh	r3, [r3, #42]	@ 0x2a
 8004102:	b29a      	uxth	r2, r3
 8004104:	68fb      	ldr	r3, [r7, #12]
 8004106:	851a      	strh	r2, [r3, #40]	@ 0x28
 8004108:	68fb      	ldr	r3, [r7, #12]
 800410a:	4a4d      	ldr	r2, [pc, #308]	@ (8004240 <HAL_I2C_Mem_Write+0x1f0>)
 800410c:	62da      	str	r2, [r3, #44]	@ 0x2c
 800410e:	88f8      	ldrh	r0, [r7, #6]
 8004110:	893a      	ldrh	r2, [r7, #8]
 8004112:	8979      	ldrh	r1, [r7, #10]
 8004114:	697b      	ldr	r3, [r7, #20]
 8004116:	9301      	str	r3, [sp, #4]
 8004118:	6abb      	ldr	r3, [r7, #40]	@ 0x28
 800411a:	9300      	str	r3, [sp, #0]
 800411c:	4603      	mov	r3, r0
 800411e:	68f8      	ldr	r0, [r7, #12]
 8004120:	f000 fb86 	bl	8004830 <I2C_RequestMemoryWrite>
 8004124:	4603      	mov	r3, r0
 8004126:	2b00      	cmp	r3, #0
 8004128:	d052      	beq.n	80041d0 <HAL_I2C_Mem_Write+0x180>
 800412a:	2301      	movs	r3, #1
 800412c:	e081      	b.n	8004232 <HAL_I2C_Mem_Write+0x1e2>
 800412e:	697a      	ldr	r2, [r7, #20]
 8004130:	6ab9      	ldr	r1, [r7, #40]	@ 0x28
 8004132:	68f8      	ldr	r0, [r7, #12]
 8004134:	f000 fe14 	bl	8004d60 <I2C_WaitOnTXEFlagUntilTimeout>
 8004138:	4603      	mov	r3, r0
 800413a:	2b00      	cmp	r3, #0
 800413c:	d00d      	beq.n	800415a <HAL_I2C_Mem_Write+0x10a>
 800413e:	68fb      	ldr	r3, [r7, #12]
 8004140:	6c1b      	ldr	r3, [r3, #64]	@ 0x40
 8004142:	2b04      	cmp	r3, #4
 8004144:	d107      	bne.n	8004156 <HAL_I2C_Mem_Write+0x106>
 8004146:	68fb      	ldr	r3, [r7, #12]
 8004148:	681b      	ldr	r3, [r3, #0]
 800414a:	681a      	ldr	r2, [r3, #0]
 800414c:	68fb      	ldr	r3, [r7, #12]
 800414e:	681b      	ldr	r3, [r3, #0]
 8004150:	f442 7200 	orr.w	r2, r2, #512	@ 0x200
 8004154:	601a      	str	r2, [r3, #0]
 8004156:	2301      	movs	r3, #1
 8004158:	e06b      	b.n	8004232 <HAL_I2C_Mem_Write+0x1e2>
 800415a:	68fb      	ldr	r3, [r7, #12]
 800415c:	6a5b      	ldr	r3, [r3, #36]	@ 0x24
 800415e:	781a      	ldrb	r2, [r3, #0]
 8004160:	68fb      	ldr	r3, [r7, #12]
 8004162:	681b      	ldr	r3, [r3, #0]
 8004164:	611a      	str	r2, [r3, #16]
 8004166:	68fb      	ldr	r3, [r7, #12]
 8004168:	6a5b      	ldr	r3, [r3, #36]	@ 0x24
 800416a:	1c5a      	adds	r2, r3, #1
 800416c:	68fb      	ldr	r3, [r7, #12]
 800416e:	625a      	str	r2, [r3, #36]	@ 0x24
 8004170:	68fb      	ldr	r3, [r7, #12]
 8004172:	8d1b      	ldrh	r3, [r3, #40]	@ 0x28
 8004174:	3b01      	subs	r3, #1
 8004176:	b29a      	uxth	r2, r3
 8004178:	68fb      	ldr	r3, [r7, #12]
 800417a:	851a      	strh	r2, [r3, #40]	@ 0x28
 800417c:	68fb      	ldr	r3, [r7, #12]
 800417e:	8d5b      	ldrh	r3, [r3, #42]	@ 0x2a
 8004180:	b29b      	uxth	r3, r3
 8004182:	3b01      	subs	r3, #1
 8004184:	b29a      	uxth	r2, r3
 8004186:	68fb      	ldr	r3, [r7, #12]
 8004188:	855a      	strh	r2, [r3, #42]	@ 0x2a
 800418a:	68fb      	ldr	r3, [r7, #12]
 800418c:	681b      	ldr	r3, [r3, #0]
 800418e:	695b      	ldr	r3, [r3, #20]
 8004190:	f003 0304 	and.w	r3, r3, #4
 8004194:	2b04      	cmp	r3, #4
 8004196:	d11b      	bne.n	80041d0 <HAL_I2C_Mem_Write+0x180>
 8004198:	68fb      	ldr	r3, [r7, #12]
 800419a:	8d1b      	ldrh	r3, [r3, #40]	@ 0x28
 800419c:	2b00      	cmp	r3, #0
 800419e:	d017      	beq.n	80041d0 <HAL_I2C_Mem_Write+0x180>
 80041a0:	68fb      	ldr	r3, [r7, #12]
 80041a2:	6a5b      	ldr	r3, [r3, #36]	@ 0x24
 80041a4:	781a      	ldrb	r2, [r3, #0]
 80041a6:	68fb      	ldr	r3, [r7, #12]
 80041a8:	681b      	ldr	r3, [r3, #0]
 80041aa:	611a      	str	r2, [r3, #16]
 80041ac:	68fb      	ldr	r3, [r7, #12]
 80041ae:	6a5b      	ldr	r3, [r3, #36]	@ 0x24
 80041b0:	1c5a      	adds	r2, r3, #1
 80041b2:	68fb      	ldr	r3, [r7, #12]
 80041b4:	625a      	str	r2, [r3, #36]	@ 0x24
 80041b6:	68fb      	ldr	r3, [r7, #12]
 80041b8:	8d1b      	ldrh	r3, [r3, #40]	@ 0x28
 80041ba:	3b01      	subs	r3, #1
 80041bc:	b29a      	uxth	r2, r3
 80041be:	68fb      	ldr	r3, [r7, #12]
 80041c0:	851a      	strh	r2, [r3, #40]	@ 0x28
 80041c2:	68fb      	ldr	r3, [r7, #12]
 80041c4:	8d5b      	ldrh	r3, [r3, #42]	@ 0x2a
 80041c6:	b29b      	uxth	r3, r3
 80041c8:	3b01      	subs	r3, #1
 80041ca:	b29a      	uxth	r2, r3
 80041cc:	68fb      	ldr	r3, [r7, #12]
 80041ce:	855a      	strh	r2, [r3, #42]	@ 0x2a
 80041d0:	68fb      	ldr	r3, [r7, #12]
 80041d2:	8d1b      	ldrh	r3, [r3, #40]	@ 0x28
 80041d4:	2b00      	cmp	r3, #0
 80041d6:	d1aa      	bne.n	800412e <HAL_I2C_Mem_Write+0xde>
 80041d8:	697a      	ldr	r2, [r7, #20]
 80041da:	6ab9      	ldr	r1, [r7, #40]	@ 0x28
 80041dc:	68f8      	ldr	r0, [r7, #12]
 80041de:	f000 fe07 	bl	8004df0 <I2C_WaitOnBTFFlagUntilTimeout>
 80041e2:	4603      	mov	r3, r0
 80041e4:	2b00      	cmp	r3, #0
 80041e6:	d00d      	beq.n	8004204 <HAL_I2C_Mem_Write+0x1b4>
 80041e8:	68fb      	ldr	r3, [r7, #12]
 80041ea:	6c1b      	ldr	r3, [r3, #64]	@ 0x40
 80041ec:	2b04      	cmp	r3, #4
 80041ee:	d107      	bne.n	8004200 <HAL_I2C_Mem_Write+0x1b0>
 80041f0:	68fb      	ldr	r3, [r7, #12]
 80041f2:	681b      	ldr	r3, [r3, #0]
 80041f4:	681a      	ldr	r2, [r3, #0]
 80041f6:	68fb      	ldr	r3, [r7, #12]
 80041f8:	681b      	ldr	r3, [r3, #0]
 80041fa:	f442 7200 	orr.w	r2, r2, #512	@ 0x200
 80041fe:	601a      	str	r2, [r3, #0]
 8004200:	2301      	movs	r3, #1
 8004202:	e016      	b.n	8004232 <HAL_I2C_Mem_Write+0x1e2>
 8004204:	68fb      	ldr	r3, [r7, #12]
 8004206:	681b      	ldr	r3, [r3, #0]
 8004208:	681a      	ldr	r2, [r3, #0]
 800420a:	68fb      	ldr	r3, [r7, #12]
 800420c:	681b      	ldr	r3, [r3, #0]
 800420e:	f442 7200 	orr.w	r2, r2, #512	@ 0x200
 8004212:	601a      	str	r2, [r3, #0]
 8004214:	68fb      	ldr	r3, [r7, #12]
 8004216:	2220      	movs	r2, #32
 8004218:	f883 203d 	strb.w	r2, [r3, #61]	@ 0x3d
 800421c:	68fb      	ldr	r3, [r7, #12]
 800421e:	2200      	movs	r2, #0
 8004220:	f883 203e 	strb.w	r2, [r3, #62]	@ 0x3e
 8004224:	68fb      	ldr	r3, [r7, #12]
 8004226:	2200      	movs	r2, #0
 8004228:	f883 203c 	strb.w	r2, [r3, #60]	@ 0x3c
 800422c:	2300      	movs	r3, #0
 800422e:	e000      	b.n	8004232 <HAL_I2C_Mem_Write+0x1e2>
 8004230:	2302      	movs	r3, #2
 8004232:	4618      	mov	r0, r3
 8004234:	3718      	adds	r7, #24
 8004236:	46bd      	mov	sp, r7
 8004238:	bd80      	pop	{r7, pc}
 800423a:	bf00      	nop
 800423c:	00100002 	.word	0x00100002
 8004240:	ffff0000 	.word	0xffff0000

08004244 <HAL_I2C_Mem_Read>:
 8004244:	b580      	push	{r7, lr}
 8004246:	b08c      	sub	sp, #48	@ 0x30
 8004248:	af02      	add	r7, sp, #8
 800424a:	60f8      	str	r0, [r7, #12]
 800424c:	4608      	mov	r0, r1
 800424e:	4611      	mov	r1, r2
 8004250:	461a      	mov	r2, r3
 8004252:	4603      	mov	r3, r0
 8004254:	817b      	strh	r3, [r7, #10]
 8004256:	460b      	mov	r3, r1
 8004258:	813b      	strh	r3, [r7, #8]
 800425a:	4613      	mov	r3, r2
 800425c:	80fb      	strh	r3, [r7, #6]
 800425e:	2300      	movs	r3, #0
 8004260:	623b      	str	r3, [r7, #32]
 8004262:	f7fe fee5 	bl	8003030 <HAL_GetTick>
 8004266:	6278      	str	r0, [r7, #36]	@ 0x24
 8004268:	68fb      	ldr	r3, [r7, #12]
 800426a:	f893 303d 	ldrb.w	r3, [r3, #61]	@ 0x3d
 800426e:	b2db      	uxtb	r3, r3
 8004270:	2b20      	cmp	r3, #32
 8004272:	f040 8250 	bne.w	8004716 <HAL_I2C_Mem_Read+0x4d2>
 8004276:	6a7b      	ldr	r3, [r7, #36]	@ 0x24
 8004278:	9300      	str	r3, [sp, #0]
 800427a:	2319      	movs	r3, #25
 800427c:	2201      	movs	r2, #1
 800427e:	4982      	ldr	r1, [pc, #520]	@ (8004488 <HAL_I2C_Mem_Read+0x244>)
 8004280:	68f8      	ldr	r0, [r7, #12]
 8004282:	f000 fc53 	bl	8004b2c <I2C_WaitOnFlagUntilTimeout>
 8004286:	4603      	mov	r3, r0
 8004288:	2b00      	cmp	r3, #0
 800428a:	d001      	beq.n	8004290 <HAL_I2C_Mem_Read+0x4c>
 800428c:	2302      	movs	r3, #2
 800428e:	e243      	b.n	8004718 <HAL_I2C_Mem_Read+0x4d4>
 8004290:	68fb      	ldr	r3, [r7, #12]
 8004292:	f893 303c 	ldrb.w	r3, [r3, #60]	@ 0x3c
 8004296:	2b01      	cmp	r3, #1
 8004298:	d101      	bne.n	800429e <HAL_I2C_Mem_Read+0x5a>
 800429a:	2302      	movs	r3, #2
 800429c:	e23c      	b.n	8004718 <HAL_I2C_Mem_Read+0x4d4>
 800429e:	68fb      	ldr	r3, [r7, #12]
 80042a0:	2201      	movs	r2, #1
 80042a2:	f883 203c 	strb.w	r2, [r3, #60]	@ 0x3c
 80042a6:	68fb      	ldr	r3, [r7, #12]
 80042a8:	681b      	ldr	r3, [r3, #0]
 80042aa:	681b      	ldr	r3, [r3, #0]
 80042ac:	f003 0301 	and.w	r3, r3, #1
 80042b0:	2b01      	cmp	r3, #1
 80042b2:	d007      	beq.n	80042c4 <HAL_I2C_Mem_Read+0x80>
 80042b4:	68fb      	ldr	r3, [r7, #12]
 80042b6:	681b      	ldr	r3, [r3, #0]
 80042b8:	681a      	ldr	r2, [r3, #0]
 80042ba:	68fb      	ldr	r3, [r7, #12]
 80042bc:	681b      	ldr	r3, [r3, #0]
 80042be:	f042 0201 	orr.w	r2, r2, #1
 80042c2:	601a      	str	r2, [r3, #0]
 80042c4:	68fb      	ldr	r3, [r7, #12]
 80042c6:	681b      	ldr	r3, [r3, #0]
 80042c8:	681a      	ldr	r2, [r3, #0]
 80042ca:	68fb      	ldr	r3, [r7, #12]
 80042cc:	681b      	ldr	r3, [r3, #0]
 80042ce:	f422 6200 	bic.w	r2, r2, #2048	@ 0x800
 80042d2:	601a      	str	r2, [r3, #0]
 80042d4:	68fb      	ldr	r3, [r7, #12]
 80042d6:	2222      	movs	r2, #34	@ 0x22
 80042d8:	f883 203d 	strb.w	r2, [r3, #61]	@ 0x3d
 80042dc:	68fb      	ldr	r3, [r7, #12]
 80042de:	2240      	movs	r2, #64	@ 0x40
 80042e0:	f883 203e 	strb.w	r2, [r3, #62]	@ 0x3e
 80042e4:	68fb      	ldr	r3, [r7, #12]
 80042e6:	2200      	movs	r2, #0
 80042e8:	641a      	str	r2, [r3, #64]	@ 0x40
 80042ea:	68fb      	ldr	r3, [r7, #12]
 80042ec:	6b3a      	ldr	r2, [r7, #48]	@ 0x30
 80042ee:	625a      	str	r2, [r3, #36]	@ 0x24
 80042f0:	68fb      	ldr	r3, [r7, #12]
 80042f2:	8eba      	ldrh	r2, [r7, #52]	@ 0x34
 80042f4:	855a      	strh	r2, [r3, #42]	@ 0x2a
 80042f6:	68fb      	ldr	r3, [r7, #12]
 80042f8:	8d5b      	ldrh	r3, [r3, #42]	@ 0x2a
 80042fa:	b29a      	uxth	r2, r3
 80042fc:	68fb      	ldr	r3, [r7, #12]
 80042fe:	851a      	strh	r2, [r3, #40]	@ 0x28
 8004300:	68fb      	ldr	r3, [r7, #12]
 8004302:	4a62      	ldr	r2, [pc, #392]	@ (800448c <HAL_I2C_Mem_Read+0x248>)
 8004304:	62da      	str	r2, [r3, #44]	@ 0x2c
 8004306:	88f8      	ldrh	r0, [r7, #6]
 8004308:	893a      	ldrh	r2, [r7, #8]
 800430a:	8979      	ldrh	r1, [r7, #10]
 800430c:	6a7b      	ldr	r3, [r7, #36]	@ 0x24
 800430e:	9301      	str	r3, [sp, #4]
 8004310:	6bbb      	ldr	r3, [r7, #56]	@ 0x38
 8004312:	9300      	str	r3, [sp, #0]
 8004314:	4603      	mov	r3, r0
 8004316:	68f8      	ldr	r0, [r7, #12]
 8004318:	f000 fb20 	bl	800495c <I2C_RequestMemoryRead>
 800431c:	4603      	mov	r3, r0
 800431e:	2b00      	cmp	r3, #0
 8004320:	d001      	beq.n	8004326 <HAL_I2C_Mem_Read+0xe2>
 8004322:	2301      	movs	r3, #1
 8004324:	e1f8      	b.n	8004718 <HAL_I2C_Mem_Read+0x4d4>
 8004326:	68fb      	ldr	r3, [r7, #12]
 8004328:	8d1b      	ldrh	r3, [r3, #40]	@ 0x28
 800432a:	2b00      	cmp	r3, #0
 800432c:	d113      	bne.n	8004356 <HAL_I2C_Mem_Read+0x112>
 800432e:	2300      	movs	r3, #0
 8004330:	61fb      	str	r3, [r7, #28]
 8004332:	68fb      	ldr	r3, [r7, #12]
 8004334:	681b      	ldr	r3, [r3, #0]
 8004336:	695b      	ldr	r3, [r3, #20]
 8004338:	61fb      	str	r3, [r7, #28]
 800433a:	68fb      	ldr	r3, [r7, #12]
 800433c:	681b      	ldr	r3, [r3, #0]
 800433e:	699b      	ldr	r3, [r3, #24]
 8004340:	61fb      	str	r3, [r7, #28]
 8004342:	69fb      	ldr	r3, [r7, #28]
 8004344:	68fb      	ldr	r3, [r7, #12]
 8004346:	681b      	ldr	r3, [r3, #0]
 8004348:	681a      	ldr	r2, [r3, #0]
 800434a:	68fb      	ldr	r3, [r7, #12]
 800434c:	681b      	ldr	r3, [r3, #0]
 800434e:	f442 7200 	orr.w	r2, r2, #512	@ 0x200
 8004352:	601a      	str	r2, [r3, #0]
 8004354:	e1cc      	b.n	80046f0 <HAL_I2C_Mem_Read+0x4ac>
 8004356:	68fb      	ldr	r3, [r7, #12]
 8004358:	8d1b      	ldrh	r3, [r3, #40]	@ 0x28
 800435a:	2b01      	cmp	r3, #1
 800435c:	d11e      	bne.n	800439c <HAL_I2C_Mem_Read+0x158>
 800435e:	68fb      	ldr	r3, [r7, #12]
 8004360:	681b      	ldr	r3, [r3, #0]
 8004362:	681a      	ldr	r2, [r3, #0]
 8004364:	68fb      	ldr	r3, [r7, #12]
 8004366:	681b      	ldr	r3, [r3, #0]
 8004368:	f422 6280 	bic.w	r2, r2, #1024	@ 0x400
 800436c:	601a      	str	r2, [r3, #0]
 800436e:	b672      	cpsid	i
 8004370:	bf00      	nop
 8004372:	2300      	movs	r3, #0
 8004374:	61bb      	str	r3, [r7, #24]
 8004376:	68fb      	ldr	r3, [r7, #12]
 8004378:	681b      	ldr	r3, [r3, #0]
 800437a:	695b      	ldr	r3, [r3, #20]
 800437c:	61bb      	str	r3, [r7, #24]
 800437e:	68fb      	ldr	r3, [r7, #12]
 8004380:	681b      	ldr	r3, [r3, #0]
 8004382:	699b      	ldr	r3, [r3, #24]
 8004384:	61bb      	str	r3, [r7, #24]
 8004386:	69bb      	ldr	r3, [r7, #24]
 8004388:	68fb      	ldr	r3, [r7, #12]
 800438a:	681b      	ldr	r3, [r3, #0]
 800438c:	681a      	ldr	r2, [r3, #0]
 800438e:	68fb      	ldr	r3, [r7, #12]
 8004390:	681b      	ldr	r3, [r3, #0]
 8004392:	f442 7200 	orr.w	r2, r2, #512	@ 0x200
 8004396:	601a      	str	r2, [r3, #0]
 8004398:	b662      	cpsie	i
 800439a:	e035      	b.n	8004408 <HAL_I2C_Mem_Read+0x1c4>
 800439c:	68fb      	ldr	r3, [r7, #12]
 800439e:	8d1b      	ldrh	r3, [r3, #40]	@ 0x28
 80043a0:	2b02      	cmp	r3, #2
 80043a2:	d11e      	bne.n	80043e2 <HAL_I2C_Mem_Read+0x19e>
 80043a4:	68fb      	ldr	r3, [r7, #12]
 80043a6:	681b      	ldr	r3, [r3, #0]
 80043a8:	681a      	ldr	r2, [r3, #0]
 80043aa:	68fb      	ldr	r3, [r7, #12]
 80043ac:	681b      	ldr	r3, [r3, #0]
 80043ae:	f442 6200 	orr.w	r2, r2, #2048	@ 0x800
 80043b2:	601a      	str	r2, [r3, #0]
 80043b4:	b672      	cpsid	i
 80043b6:	bf00      	nop
 80043b8:	2300      	movs	r3, #0
 80043ba:	617b      	str	r3, [r7, #20]
 80043bc:	68fb      	ldr	r3, [r7, #12]
 80043be:	681b      	ldr	r3, [r3, #0]
 80043c0:	695b      	ldr	r3, [r3, #20]
 80043c2:	617b      	str	r3, [r7, #20]
 80043c4:	68fb      	ldr	r3, [r7, #12]
 80043c6:	681b      	ldr	r3, [r3, #0]
 80043c8:	699b      	ldr	r3, [r3, #24]
 80043ca:	617b      	str	r3, [r7, #20]
 80043cc:	697b      	ldr	r3, [r7, #20]
 80043ce:	68fb      	ldr	r3, [r7, #12]
 80043d0:	681b      	ldr	r3, [r3, #0]
 80043d2:	681a      	ldr	r2, [r3, #0]
 80043d4:	68fb      	ldr	r3, [r7, #12]
 80043d6:	681b      	ldr	r3, [r3, #0]
 80043d8:	f422 6280 	bic.w	r2, r2, #1024	@ 0x400
 80043dc:	601a      	str	r2, [r3, #0]
 80043de:	b662      	cpsie	i
 80043e0:	e012      	b.n	8004408 <HAL_I2C_Mem_Read+0x1c4>
 80043e2:	68fb      	ldr	r3, [r7, #12]
 80043e4:	681b      	ldr	r3, [r3, #0]
 80043e6:	681a      	ldr	r2, [r3, #0]
 80043e8:	68fb      	ldr	r3, [r7, #12]
 80043ea:	681b      	ldr	r3, [r3, #0]
 80043ec:	f442 6280 	orr.w	r2, r2, #1024	@ 0x400
 80043f0:	601a      	str	r2, [r3, #0]
 80043f2:	2300      	movs	r3, #0
 80043f4:	613b      	str	r3, [r7, #16]
 80043f6:	68fb      	ldr	r3, [r7, #12]
 80043f8:	681b      	ldr	r3, [r3, #0]
 80043fa:	695b      	ldr	r3, [r3, #20]
 80043fc:	613b      	str	r3, [r7, #16]
 80043fe:	68fb      	ldr	r3, [r7, #12]
 8004400:	681b      	ldr	r3, [r3, #0]
 8004402:	699b      	ldr	r3, [r3, #24]
 8004404:	613b      	str	r3, [r7, #16]
 8004406:	693b      	ldr	r3, [r7, #16]
 8004408:	e172      	b.n	80046f0 <HAL_I2C_Mem_Read+0x4ac>
 800440a:	68fb      	ldr	r3, [r7, #12]
 800440c:	8d1b      	ldrh	r3, [r3, #40]	@ 0x28
 800440e:	2b03      	cmp	r3, #3
 8004410:	f200 811f 	bhi.w	8004652 <HAL_I2C_Mem_Read+0x40e>
 8004414:	68fb      	ldr	r3, [r7, #12]
 8004416:	8d1b      	ldrh	r3, [r3, #40]	@ 0x28
 8004418:	2b01      	cmp	r3, #1
 800441a:	d123      	bne.n	8004464 <HAL_I2C_Mem_Read+0x220>
 800441c:	6a7a      	ldr	r2, [r7, #36]	@ 0x24
 800441e:	6bb9      	ldr	r1, [r7, #56]	@ 0x38
 8004420:	68f8      	ldr	r0, [r7, #12]
 8004422:	f000 fd2d 	bl	8004e80 <I2C_WaitOnRXNEFlagUntilTimeout>
 8004426:	4603      	mov	r3, r0
 8004428:	2b00      	cmp	r3, #0
 800442a:	d001      	beq.n	8004430 <HAL_I2C_Mem_Read+0x1ec>
 800442c:	2301      	movs	r3, #1
 800442e:	e173      	b.n	8004718 <HAL_I2C_Mem_Read+0x4d4>
 8004430:	68fb      	ldr	r3, [r7, #12]
 8004432:	681b      	ldr	r3, [r3, #0]
 8004434:	691a      	ldr	r2, [r3, #16]
 8004436:	68fb      	ldr	r3, [r7, #12]
 8004438:	6a5b      	ldr	r3, [r3, #36]	@ 0x24
 800443a:	b2d2      	uxtb	r2, r2
 800443c:	701a      	strb	r2, [r3, #0]
 800443e:	68fb      	ldr	r3, [r7, #12]
 8004440:	6a5b      	ldr	r3, [r3, #36]	@ 0x24
 8004442:	1c5a      	adds	r2, r3, #1
 8004444:	68fb      	ldr	r3, [r7, #12]
 8004446:	625a      	str	r2, [r3, #36]	@ 0x24
 8004448:	68fb      	ldr	r3, [r7, #12]
 800444a:	8d1b      	ldrh	r3, [r3, #40]	@ 0x28
 800444c:	3b01      	subs	r3, #1
 800444e:	b29a      	uxth	r2, r3
 8004450:	68fb      	ldr	r3, [r7, #12]
 8004452:	851a      	strh	r2, [r3, #40]	@ 0x28
 8004454:	68fb      	ldr	r3, [r7, #12]
 8004456:	8d5b      	ldrh	r3, [r3, #42]	@ 0x2a
 8004458:	b29b      	uxth	r3, r3
 800445a:	3b01      	subs	r3, #1
 800445c:	b29a      	uxth	r2, r3
 800445e:	68fb      	ldr	r3, [r7, #12]
 8004460:	855a      	strh	r2, [r3, #42]	@ 0x2a
 8004462:	e145      	b.n	80046f0 <HAL_I2C_Mem_Read+0x4ac>
 8004464:	68fb      	ldr	r3, [r7, #12]
 8004466:	8d1b      	ldrh	r3, [r3, #40]	@ 0x28
 8004468:	2b02      	cmp	r3, #2
 800446a:	d152      	bne.n	8004512 <HAL_I2C_Mem_Read+0x2ce>
 800446c:	6a7b      	ldr	r3, [r7, #36]	@ 0x24
 800446e:	9300      	str	r3, [sp, #0]
 8004470:	6bbb      	ldr	r3, [r7, #56]	@ 0x38
 8004472:	2200      	movs	r2, #0
 8004474:	4906      	ldr	r1, [pc, #24]	@ (8004490 <HAL_I2C_Mem_Read+0x24c>)
 8004476:	68f8      	ldr	r0, [r7, #12]
 8004478:	f000 fb58 	bl	8004b2c <I2C_WaitOnFlagUntilTimeout>
 800447c:	4603      	mov	r3, r0
 800447e:	2b00      	cmp	r3, #0
 8004480:	d008      	beq.n	8004494 <HAL_I2C_Mem_Read+0x250>
 8004482:	2301      	movs	r3, #1
 8004484:	e148      	b.n	8004718 <HAL_I2C_Mem_Read+0x4d4>
 8004486:	bf00      	nop
 8004488:	00100002 	.word	0x00100002
 800448c:	ffff0000 	.word	0xffff0000
 8004490:	00010004 	.word	0x00010004
 8004494:	b672      	cpsid	i
 8004496:	bf00      	nop
 8004498:	68fb      	ldr	r3, [r7, #12]
 800449a:	681b      	ldr	r3, [r3, #0]
 800449c:	681a      	ldr	r2, [r3, #0]
 800449e:	68fb      	ldr	r3, [r7, #12]
 80044a0:	681b      	ldr	r3, [r3, #0]
 80044a2:	f442 7200 	orr.w	r2, r2, #512	@ 0x200
 80044a6:	601a      	str	r2, [r3, #0]
 80044a8:	68fb      	ldr	r3, [r7, #12]
 80044aa:	681b      	ldr	r3, [r3, #0]
 80044ac:	691a      	ldr	r2, [r3, #16]
 80044ae:	68fb      	ldr	r3, [r7, #12]
 80044b0:	6a5b      	ldr	r3, [r3, #36]	@ 0x24
 80044b2:	b2d2      	uxtb	r2, r2
 80044b4:	701a      	strb	r2, [r3, #0]
 80044b6:	68fb      	ldr	r3, [r7, #12]
 80044b8:	6a5b      	ldr	r3, [r3, #36]	@ 0x24
 80044ba:	1c5a      	adds	r2, r3, #1
 80044bc:	68fb      	ldr	r3, [r7, #12]
 80044be:	625a      	str	r2, [r3, #36]	@ 0x24
 80044c0:	68fb      	ldr	r3, [r7, #12]
 80044c2:	8d1b      	ldrh	r3, [r3, #40]	@ 0x28
 80044c4:	3b01      	subs	r3, #1
 80044c6:	b29a      	uxth	r2, r3
 80044c8:	68fb      	ldr	r3, [r7, #12]
 80044ca:	851a      	strh	r2, [r3, #40]	@ 0x28
 80044cc:	68fb      	ldr	r3, [r7, #12]
 80044ce:	8d5b      	ldrh	r3, [r3, #42]	@ 0x2a
 80044d0:	b29b      	uxth	r3, r3
 80044d2:	3b01      	subs	r3, #1
 80044d4:	b29a      	uxth	r2, r3
 80044d6:	68fb      	ldr	r3, [r7, #12]
 80044d8:	855a      	strh	r2, [r3, #42]	@ 0x2a
 80044da:	b662      	cpsie	i
 80044dc:	bf00      	nop
 80044de:	68fb      	ldr	r3, [r7, #12]
 80044e0:	681b      	ldr	r3, [r3, #0]
 80044e2:	691a      	ldr	r2, [r3, #16]
 80044e4:	68fb      	ldr	r3, [r7, #12]
 80044e6:	6a5b      	ldr	r3, [r3, #36]	@ 0x24
 80044e8:	b2d2      	uxtb	r2, r2
 80044ea:	701a      	strb	r2, [r3, #0]
 80044ec:	68fb      	ldr	r3, [r7, #12]
 80044ee:	6a5b      	ldr	r3, [r3, #36]	@ 0x24
 80044f0:	1c5a      	adds	r2, r3, #1
 80044f2:	68fb      	ldr	r3, [r7, #12]
 80044f4:	625a      	str	r2, [r3, #36]	@ 0x24
 80044f6:	68fb      	ldr	r3, [r7, #12]
 80044f8:	8d1b      	ldrh	r3, [r3, #40]	@ 0x28
 80044fa:	3b01      	subs	r3, #1
 80044fc:	b29a      	uxth	r2, r3
 80044fe:	68fb      	ldr	r3, [r7, #12]
 8004500:	851a      	strh	r2, [r3, #40]	@ 0x28
 8004502:	68fb      	ldr	r3, [r7, #12]
 8004504:	8d5b      	ldrh	r3, [r3, #42]	@ 0x2a
 8004506:	b29b      	uxth	r3, r3
 8004508:	3b01      	subs	r3, #1
 800450a:	b29a      	uxth	r2, r3
 800450c:	68fb      	ldr	r3, [r7, #12]
 800450e:	855a      	strh	r2, [r3, #42]	@ 0x2a
 8004510:	e0ee      	b.n	80046f0 <HAL_I2C_Mem_Read+0x4ac>
 8004512:	6a7b      	ldr	r3, [r7, #36]	@ 0x24
 8004514:	9300      	str	r3, [sp, #0]
 8004516:	6bbb      	ldr	r3, [r7, #56]	@ 0x38
 8004518:	2200      	movs	r2, #0
 800451a:	4981      	ldr	r1, [pc, #516]	@ (8004720 <HAL_I2C_Mem_Read+0x4dc>)
 800451c:	68f8      	ldr	r0, [r7, #12]
 800451e:	f000 fb05 	bl	8004b2c <I2C_WaitOnFlagUntilTimeout>
 8004522:	4603      	mov	r3, r0
 8004524:	2b00      	cmp	r3, #0
 8004526:	d001      	beq.n	800452c <HAL_I2C_Mem_Read+0x2e8>
 8004528:	2301      	movs	r3, #1
 800452a:	e0f5      	b.n	8004718 <HAL_I2C_Mem_Read+0x4d4>
 800452c:	68fb      	ldr	r3, [r7, #12]
 800452e:	681b      	ldr	r3, [r3, #0]
 8004530:	681a      	ldr	r2, [r3, #0]
 8004532:	68fb      	ldr	r3, [r7, #12]
 8004534:	681b      	ldr	r3, [r3, #0]
 8004536:	f422 6280 	bic.w	r2, r2, #1024	@ 0x400
 800453a:	601a      	str	r2, [r3, #0]
 800453c:	b672      	cpsid	i
 800453e:	bf00      	nop
 8004540:	68fb      	ldr	r3, [r7, #12]
 8004542:	681b      	ldr	r3, [r3, #0]
 8004544:	691a      	ldr	r2, [r3, #16]
 8004546:	68fb      	ldr	r3, [r7, #12]
 8004548:	6a5b      	ldr	r3, [r3, #36]	@ 0x24
 800454a:	b2d2      	uxtb	r2, r2
 800454c:	701a      	strb	r2, [r3, #0]
 800454e:	68fb      	ldr	r3, [r7, #12]
 8004550:	6a5b      	ldr	r3, [r3, #36]	@ 0x24
 8004552:	1c5a      	adds	r2, r3, #1
 8004554:	68fb      	ldr	r3, [r7, #12]
 8004556:	625a      	str	r2, [r3, #36]	@ 0x24
 8004558:	68fb      	ldr	r3, [r7, #12]
 800455a:	8d1b      	ldrh	r3, [r3, #40]	@ 0x28
 800455c:	3b01      	subs	r3, #1
 800455e:	b29a      	uxth	r2, r3
 8004560:	68fb      	ldr	r3, [r7, #12]
 8004562:	851a      	strh	r2, [r3, #40]	@ 0x28
 8004564:	68fb      	ldr	r3, [r7, #12]
 8004566:	8d5b      	ldrh	r3, [r3, #42]	@ 0x2a
 8004568:	b29b      	uxth	r3, r3
 800456a:	3b01      	subs	r3, #1
 800456c:	b29a      	uxth	r2, r3
 800456e:	68fb      	ldr	r3, [r7, #12]
 8004570:	855a      	strh	r2, [r3, #42]	@ 0x2a
 8004572:	4b6c      	ldr	r3, [pc, #432]	@ (8004724 <HAL_I2C_Mem_Read+0x4e0>)
 8004574:	681b      	ldr	r3, [r3, #0]
 8004576:	08db      	lsrs	r3, r3, #3
 8004578:	4a6b      	ldr	r2, [pc, #428]	@ (8004728 <HAL_I2C_Mem_Read+0x4e4>)
 800457a:	fba2 2303 	umull	r2, r3, r2, r3
 800457e:	0a1a      	lsrs	r2, r3, #8
 8004580:	4613      	mov	r3, r2
 8004582:	009b      	lsls	r3, r3, #2
 8004584:	4413      	add	r3, r2
 8004586:	00da      	lsls	r2, r3, #3
 8004588:	1ad3      	subs	r3, r2, r3
 800458a:	623b      	str	r3, [r7, #32]
 800458c:	6a3b      	ldr	r3, [r7, #32]
 800458e:	3b01      	subs	r3, #1
 8004590:	623b      	str	r3, [r7, #32]
 8004592:	6a3b      	ldr	r3, [r7, #32]
 8004594:	2b00      	cmp	r3, #0
 8004596:	d118      	bne.n	80045ca <HAL_I2C_Mem_Read+0x386>
 8004598:	68fb      	ldr	r3, [r7, #12]
 800459a:	2200      	movs	r2, #0
 800459c:	631a      	str	r2, [r3, #48]	@ 0x30
 800459e:	68fb      	ldr	r3, [r7, #12]
 80045a0:	2220      	movs	r2, #32
 80045a2:	f883 203d 	strb.w	r2, [r3, #61]	@ 0x3d
 80045a6:	68fb      	ldr	r3, [r7, #12]
 80045a8:	2200      	movs	r2, #0
 80045aa:	f883 203e 	strb.w	r2, [r3, #62]	@ 0x3e
 80045ae:	68fb      	ldr	r3, [r7, #12]
 80045b0:	6c1b      	ldr	r3, [r3, #64]	@ 0x40
 80045b2:	f043 0220 	orr.w	r2, r3, #32
 80045b6:	68fb      	ldr	r3, [r7, #12]
 80045b8:	641a      	str	r2, [r3, #64]	@ 0x40
 80045ba:	b662      	cpsie	i
 80045bc:	bf00      	nop
 80045be:	68fb      	ldr	r3, [r7, #12]
 80045c0:	2200      	movs	r2, #0
 80045c2:	f883 203c 	strb.w	r2, [r3, #60]	@ 0x3c
 80045c6:	2301      	movs	r3, #1
 80045c8:	e0a6      	b.n	8004718 <HAL_I2C_Mem_Read+0x4d4>
 80045ca:	68fb      	ldr	r3, [r7, #12]
 80045cc:	681b      	ldr	r3, [r3, #0]
 80045ce:	695b      	ldr	r3, [r3, #20]
 80045d0:	f003 0304 	and.w	r3, r3, #4
 80045d4:	2b04      	cmp	r3, #4
 80045d6:	d1d9      	bne.n	800458c <HAL_I2C_Mem_Read+0x348>
 80045d8:	68fb      	ldr	r3, [r7, #12]
 80045da:	681b      	ldr	r3, [r3, #0]
 80045dc:	681a      	ldr	r2, [r3, #0]
 80045de:	68fb      	ldr	r3, [r7, #12]
 80045e0:	681b      	ldr	r3, [r3, #0]
 80045e2:	f442 7200 	orr.w	r2, r2, #512	@ 0x200
 80045e6:	601a      	str	r2, [r3, #0]
 80045e8:	68fb      	ldr	r3, [r7, #12]
 80045ea:	681b      	ldr	r3, [r3, #0]
 80045ec:	691a      	ldr	r2, [r3, #16]
 80045ee:	68fb      	ldr	r3, [r7, #12]
 80045f0:	6a5b      	ldr	r3, [r3, #36]	@ 0x24
 80045f2:	b2d2      	uxtb	r2, r2
 80045f4:	701a      	strb	r2, [r3, #0]
 80045f6:	68fb      	ldr	r3, [r7, #12]
 80045f8:	6a5b      	ldr	r3, [r3, #36]	@ 0x24
 80045fa:	1c5a      	adds	r2, r3, #1
 80045fc:	68fb      	ldr	r3, [r7, #12]
 80045fe:	625a      	str	r2, [r3, #36]	@ 0x24
 8004600:	68fb      	ldr	r3, [r7, #12]
 8004602:	8d1b      	ldrh	r3, [r3, #40]	@ 0x28
 8004604:	3b01      	subs	r3, #1
 8004606:	b29a      	uxth	r2, r3
 8004608:	68fb      	ldr	r3, [r7, #12]
 800460a:	851a      	strh	r2, [r3, #40]	@ 0x28
 800460c:	68fb      	ldr	r3, [r7, #12]
 800460e:	8d5b      	ldrh	r3, [r3, #42]	@ 0x2a
 8004610:	b29b      	uxth	r3, r3
 8004612:	3b01      	subs	r3, #1
 8004614:	b29a      	uxth	r2, r3
 8004616:	68fb      	ldr	r3, [r7, #12]
 8004618:	855a      	strh	r2, [r3, #42]	@ 0x2a
 800461a:	b662      	cpsie	i
 800461c:	bf00      	nop
 800461e:	68fb      	ldr	r3, [r7, #12]
 8004620:	681b      	ldr	r3, [r3, #0]
 8004622:	691a      	ldr	r2, [r3, #16]
 8004624:	68fb      	ldr	r3, [r7, #12]
 8004626:	6a5b      	ldr	r3, [r3, #36]	@ 0x24
 8004628:	b2d2      	uxtb	r2, r2
 800462a:	701a      	strb	r2, [r3, #0]
 800462c:	68fb      	ldr	r3, [r7, #12]
 800462e:	6a5b      	ldr	r3, [r3, #36]	@ 0x24
 8004630:	1c5a      	adds	r2, r3, #1
 8004632:	68fb      	ldr	r3, [r7, #12]
 8004634:	625a      	str	r2, [r3, #36]	@ 0x24
 8004636:	68fb      	ldr	r3, [r7, #12]
 8004638:	8d1b      	ldrh	r3, [r3, #40]	@ 0x28
 800463a:	3b01      	subs	r3, #1
 800463c:	b29a      	uxth	r2, r3
 800463e:	68fb      	ldr	r3, [r7, #12]
 8004640:	851a      	strh	r2, [r3, #40]	@ 0x28
 8004642:	68fb      	ldr	r3, [r7, #12]
 8004644:	8d5b      	ldrh	r3, [r3, #42]	@ 0x2a
 8004646:	b29b      	uxth	r3, r3
 8004648:	3b01      	subs	r3, #1
 800464a:	b29a      	uxth	r2, r3
 800464c:	68fb      	ldr	r3, [r7, #12]
 800464e:	855a      	strh	r2, [r3, #42]	@ 0x2a
 8004650:	e04e      	b.n	80046f0 <HAL_I2C_Mem_Read+0x4ac>
 8004652:	6a7a      	ldr	r2, [r7, #36]	@ 0x24
 8004654:	6bb9      	ldr	r1, [r7, #56]	@ 0x38
 8004656:	68f8      	ldr	r0, [r7, #12]
 8004658:	f000 fc12 	bl	8004e80 <I2C_WaitOnRXNEFlagUntilTimeout>
 800465c:	4603      	mov	r3, r0
 800465e:	2b00      	cmp	r3, #0
 8004660:	d001      	beq.n	8004666 <HAL_I2C_Mem_Read+0x422>
 8004662:	2301      	movs	r3, #1
 8004664:	e058      	b.n	8004718 <HAL_I2C_Mem_Read+0x4d4>
 8004666:	68fb      	ldr	r3, [r7, #12]
 8004668:	681b      	ldr	r3, [r3, #0]
 800466a:	691a      	ldr	r2, [r3, #16]
 800466c:	68fb      	ldr	r3, [r7, #12]
 800466e:	6a5b      	ldr	r3, [r3, #36]	@ 0x24
 8004670:	b2d2      	uxtb	r2, r2
 8004672:	701a      	strb	r2, [r3, #0]
 8004674:	68fb      	ldr	r3, [r7, #12]
 8004676:	6a5b      	ldr	r3, [r3, #36]	@ 0x24
 8004678:	1c5a      	adds	r2, r3, #1
 800467a:	68fb      	ldr	r3, [r7, #12]
 800467c:	625a      	str	r2, [r3, #36]	@ 0x24
 800467e:	68fb      	ldr	r3, [r7, #12]
 8004680:	8d1b      	ldrh	r3, [r3, #40]	@ 0x28
 8004682:	3b01      	subs	r3, #1
 8004684:	b29a      	uxth	r2, r3
 8004686:	68fb      	ldr	r3, [r7, #12]
 8004688:	851a      	strh	r2, [r3, #40]	@ 0x28
 800468a:	68fb      	ldr	r3, [r7, #12]
 800468c:	8d5b      	ldrh	r3, [r3, #42]	@ 0x2a
 800468e:	b29b      	uxth	r3, r3
 8004690:	3b01      	subs	r3, #1
 8004692:	b29a      	uxth	r2, r3
 8004694:	68fb      	ldr	r3, [r7, #12]
 8004696:	855a      	strh	r2, [r3, #42]	@ 0x2a
 8004698:	68fb      	ldr	r3, [r7, #12]
 800469a:	681b      	ldr	r3, [r3, #0]
 800469c:	695b      	ldr	r3, [r3, #20]
 800469e:	f003 0304 	and.w	r3, r3, #4
 80046a2:	2b04      	cmp	r3, #4
 80046a4:	d124      	bne.n	80046f0 <HAL_I2C_Mem_Read+0x4ac>
 80046a6:	68fb      	ldr	r3, [r7, #12]
 80046a8:	8d1b      	ldrh	r3, [r3, #40]	@ 0x28
 80046aa:	2b03      	cmp	r3, #3
 80046ac:	d107      	bne.n	80046be <HAL_I2C_Mem_Read+0x47a>
 80046ae:	68fb      	ldr	r3, [r7, #12]
 80046b0:	681b      	ldr	r3, [r3, #0]
 80046b2:	681a      	ldr	r2, [r3, #0]
 80046b4:	68fb      	ldr	r3, [r7, #12]
 80046b6:	681b      	ldr	r3, [r3, #0]
 80046b8:	f422 6280 	bic.w	r2, r2, #1024	@ 0x400
 80046bc:	601a      	str	r2, [r3, #0]
 80046be:	68fb      	ldr	r3, [r7, #12]
 80046c0:	681b      	ldr	r3, [r3, #0]
 80046c2:	691a      	ldr	r2, [r3, #16]
 80046c4:	68fb      	ldr	r3, [r7, #12]
 80046c6:	6a5b      	ldr	r3, [r3, #36]	@ 0x24
 80046c8:	b2d2      	uxtb	r2, r2
 80046ca:	701a      	strb	r2, [r3, #0]
 80046cc:	68fb      	ldr	r3, [r7, #12]
 80046ce:	6a5b      	ldr	r3, [r3, #36]	@ 0x24
 80046d0:	1c5a      	adds	r2, r3, #1
 80046d2:	68fb      	ldr	r3, [r7, #12]
 80046d4:	625a      	str	r2, [r3, #36]	@ 0x24
 80046d6:	68fb      	ldr	r3, [r7, #12]
 80046d8:	8d1b      	ldrh	r3, [r3, #40]	@ 0x28
 80046da:	3b01      	subs	r3, #1
 80046dc:	b29a      	uxth	r2, r3
 80046de:	68fb      	ldr	r3, [r7, #12]
 80046e0:	851a      	strh	r2, [r3, #40]	@ 0x28
 80046e2:	68fb      	ldr	r3, [r7, #12]
 80046e4:	8d5b      	ldrh	r3, [r3, #42]	@ 0x2a
 80046e6:	b29b      	uxth	r3, r3
 80046e8:	3b01      	subs	r3, #1
 80046ea:	b29a      	uxth	r2, r3
 80046ec:	68fb      	ldr	r3, [r7, #12]
 80046ee:	855a      	strh	r2, [r3, #42]	@ 0x2a
 80046f0:	68fb      	ldr	r3, [r7, #12]
 80046f2:	8d1b      	ldrh	r3, [r3, #40]	@ 0x28
 80046f4:	2b00      	cmp	r3, #0
 80046f6:	f47f ae88 	bne.w	800440a <HAL_I2C_Mem_Read+0x1c6>
 80046fa:	68fb      	ldr	r3, [r7, #12]
 80046fc:	2220      	movs	r2, #32
 80046fe:	f883 203d 	strb.w	r2, [r3, #61]	@ 0x3d
 8004702:	68fb      	ldr	r3, [r7, #12]
 8004704:	2200      	movs	r2, #0
 8004706:	f883 203e 	strb.w	r2, [r3, #62]	@ 0x3e
 800470a:	68fb      	ldr	r3, [r7, #12]
 800470c:	2200      	movs	r2, #0
 800470e:	f883 203c 	strb.w	r2, [r3, #60]	@ 0x3c
 8004712:	2300      	movs	r3, #0
 8004714:	e000      	b.n	8004718 <HAL_I2C_Mem_Read+0x4d4>
 8004716:	2302      	movs	r3, #2
 8004718:	4618      	mov	r0, r3
 800471a:	3728      	adds	r7, #40	@ 0x28
 800471c:	46bd      	mov	sp, r7
 800471e:	bd80      	pop	{r7, pc}
 8004720:	00010004 	.word	0x00010004
 8004724:	20000008 	.word	0x20000008
 8004728:	14f8b589 	.word	0x14f8b589

0800472c <I2C_MasterRequestWrite>:
 800472c:	b580      	push	{r7, lr}
 800472e:	b088      	sub	sp, #32
 8004730:	af02      	add	r7, sp, #8
 8004732:	60f8      	str	r0, [r7, #12]
 8004734:	607a      	str	r2, [r7, #4]
 8004736:	603b      	str	r3, [r7, #0]
 8004738:	460b      	mov	r3, r1
 800473a:	817b      	strh	r3, [r7, #10]
 800473c:	68fb      	ldr	r3, [r7, #12]
 800473e:	6adb      	ldr	r3, [r3, #44]	@ 0x2c
 8004740:	617b      	str	r3, [r7, #20]
 8004742:	697b      	ldr	r3, [r7, #20]
 8004744:	2b08      	cmp	r3, #8
 8004746:	d006      	beq.n	8004756 <I2C_MasterRequestWrite+0x2a>
 8004748:	697b      	ldr	r3, [r7, #20]
 800474a:	2b01      	cmp	r3, #1
 800474c:	d003      	beq.n	8004756 <I2C_MasterRequestWrite+0x2a>
 800474e:	697b      	ldr	r3, [r7, #20]
 8004750:	f513 3f80 	cmn.w	r3, #65536	@ 0x10000
 8004754:	d108      	bne.n	8004768 <I2C_MasterRequestWrite+0x3c>
 8004756:	68fb      	ldr	r3, [r7, #12]
 8004758:	681b      	ldr	r3, [r3, #0]
 800475a:	681a      	ldr	r2, [r3, #0]
 800475c:	68fb      	ldr	r3, [r7, #12]
 800475e:	681b      	ldr	r3, [r3, #0]
 8004760:	f442 7280 	orr.w	r2, r2, #256	@ 0x100
 8004764:	601a      	str	r2, [r3, #0]
 8004766:	e00b      	b.n	8004780 <I2C_MasterRequestWrite+0x54>
 8004768:	68fb      	ldr	r3, [r7, #12]
 800476a:	6b1b      	ldr	r3, [r3, #48]	@ 0x30
 800476c:	2b12      	cmp	r3, #18
 800476e:	d107      	bne.n	8004780 <I2C_MasterRequestWrite+0x54>
 8004770:	68fb      	ldr	r3, [r7, #12]
 8004772:	681b      	ldr	r3, [r3, #0]
 8004774:	681a      	ldr	r2, [r3, #0]
 8004776:	68fb      	ldr	r3, [r7, #12]
 8004778:	681b      	ldr	r3, [r3, #0]
 800477a:	f442 7280 	orr.w	r2, r2, #256	@ 0x100
 800477e:	601a      	str	r2, [r3, #0]
 8004780:	683b      	ldr	r3, [r7, #0]
 8004782:	9300      	str	r3, [sp, #0]
 8004784:	687b      	ldr	r3, [r7, #4]
 8004786:	2200      	movs	r2, #0
 8004788:	f04f 1101 	mov.w	r1, #65537	@ 0x10001
 800478c:	68f8      	ldr	r0, [r7, #12]
 800478e:	f000 f9cd 	bl	8004b2c <I2C_WaitOnFlagUntilTimeout>
 8004792:	4603      	mov	r3, r0
 8004794:	2b00      	cmp	r3, #0
 8004796:	d00d      	beq.n	80047b4 <I2C_MasterRequestWrite+0x88>
 8004798:	68fb      	ldr	r3, [r7, #12]
 800479a:	681b      	ldr	r3, [r3, #0]
 800479c:	681b      	ldr	r3, [r3, #0]
 800479e:	f403 7380 	and.w	r3, r3, #256	@ 0x100
 80047a2:	f5b3 7f80 	cmp.w	r3, #256	@ 0x100
 80047a6:	d103      	bne.n	80047b0 <I2C_MasterRequestWrite+0x84>
 80047a8:	68fb      	ldr	r3, [r7, #12]
 80047aa:	f44f 7200 	mov.w	r2, #512	@ 0x200
 80047ae:	641a      	str	r2, [r3, #64]	@ 0x40
 80047b0:	2303      	movs	r3, #3
 80047b2:	e035      	b.n	8004820 <I2C_MasterRequestWrite+0xf4>
 80047b4:	68fb      	ldr	r3, [r7, #12]
 80047b6:	691b      	ldr	r3, [r3, #16]
 80047b8:	f5b3 4f80 	cmp.w	r3, #16384	@ 0x4000
 80047bc:	d108      	bne.n	80047d0 <I2C_MasterRequestWrite+0xa4>
 80047be:	897b      	ldrh	r3, [r7, #10]
 80047c0:	b2db      	uxtb	r3, r3
 80047c2:	461a      	mov	r2, r3
 80047c4:	68fb      	ldr	r3, [r7, #12]
 80047c6:	681b      	ldr	r3, [r3, #0]
 80047c8:	f002 02fe 	and.w	r2, r2, #254	@ 0xfe
 80047cc:	611a      	str	r2, [r3, #16]
 80047ce:	e01b      	b.n	8004808 <I2C_MasterRequestWrite+0xdc>
 80047d0:	897b      	ldrh	r3, [r7, #10]
 80047d2:	11db      	asrs	r3, r3, #7
 80047d4:	b2db      	uxtb	r3, r3
 80047d6:	f003 0306 	and.w	r3, r3, #6
 80047da:	b2db      	uxtb	r3, r3
 80047dc:	f063 030f 	orn	r3, r3, #15
 80047e0:	b2da      	uxtb	r2, r3
 80047e2:	68fb      	ldr	r3, [r7, #12]
 80047e4:	681b      	ldr	r3, [r3, #0]
 80047e6:	611a      	str	r2, [r3, #16]
 80047e8:	683b      	ldr	r3, [r7, #0]
 80047ea:	687a      	ldr	r2, [r7, #4]
 80047ec:	490e      	ldr	r1, [pc, #56]	@ (8004828 <I2C_MasterRequestWrite+0xfc>)
 80047ee:	68f8      	ldr	r0, [r7, #12]
 80047f0:	f000 fa16 	bl	8004c20 <I2C_WaitOnMasterAddressFlagUntilTimeout>
 80047f4:	4603      	mov	r3, r0
 80047f6:	2b00      	cmp	r3, #0
 80047f8:	d001      	beq.n	80047fe <I2C_MasterRequestWrite+0xd2>
 80047fa:	2301      	movs	r3, #1
 80047fc:	e010      	b.n	8004820 <I2C_MasterRequestWrite+0xf4>
 80047fe:	897b      	ldrh	r3, [r7, #10]
 8004800:	b2da      	uxtb	r2, r3
 8004802:	68fb      	ldr	r3, [r7, #12]
 8004804:	681b      	ldr	r3, [r3, #0]
 8004806:	611a      	str	r2, [r3, #16]
 8004808:	683b      	ldr	r3, [r7, #0]
 800480a:	687a      	ldr	r2, [r7, #4]
 800480c:	4907      	ldr	r1, [pc, #28]	@ (800482c <I2C_MasterRequestWrite+0x100>)
 800480e:	68f8      	ldr	r0, [r7, #12]
 8004810:	f000 fa06 	bl	8004c20 <I2C_WaitOnMasterAddressFlagUntilTimeout>
 8004814:	4603      	mov	r3, r0
 8004816:	2b00      	cmp	r3, #0
 8004818:	d001      	beq.n	800481e <I2C_MasterRequestWrite+0xf2>
 800481a:	2301      	movs	r3, #1
 800481c:	e000      	b.n	8004820 <I2C_MasterRequestWrite+0xf4>
 800481e:	2300      	movs	r3, #0
 8004820:	4618      	mov	r0, r3
 8004822:	3718      	adds	r7, #24
 8004824:	46bd      	mov	sp, r7
 8004826:	bd80      	pop	{r7, pc}
 8004828:	00010008 	.word	0x00010008
 800482c:	00010002 	.word	0x00010002

08004830 <I2C_RequestMemoryWrite>:
 8004830:	b580      	push	{r7, lr}
 8004832:	b088      	sub	sp, #32
 8004834:	af02      	add	r7, sp, #8
 8004836:	60f8      	str	r0, [r7, #12]
 8004838:	4608      	mov	r0, r1
 800483a:	4611      	mov	r1, r2
 800483c:	461a      	mov	r2, r3
 800483e:	4603      	mov	r3, r0
 8004840:	817b      	strh	r3, [r7, #10]
 8004842:	460b      	mov	r3, r1
 8004844:	813b      	strh	r3, [r7, #8]
 8004846:	4613      	mov	r3, r2
 8004848:	80fb      	strh	r3, [r7, #6]
 800484a:	68fb      	ldr	r3, [r7, #12]
 800484c:	681b      	ldr	r3, [r3, #0]
 800484e:	681a      	ldr	r2, [r3, #0]
 8004850:	68fb      	ldr	r3, [r7, #12]
 8004852:	681b      	ldr	r3, [r3, #0]
 8004854:	f442 7280 	orr.w	r2, r2, #256	@ 0x100
 8004858:	601a      	str	r2, [r3, #0]
 800485a:	6a7b      	ldr	r3, [r7, #36]	@ 0x24
 800485c:	9300      	str	r3, [sp, #0]
 800485e:	6a3b      	ldr	r3, [r7, #32]
 8004860:	2200      	movs	r2, #0
 8004862:	f04f 1101 	mov.w	r1, #65537	@ 0x10001
 8004866:	68f8      	ldr	r0, [r7, #12]
 8004868:	f000 f960 	bl	8004b2c <I2C_WaitOnFlagUntilTimeout>
 800486c:	4603      	mov	r3, r0
 800486e:	2b00      	cmp	r3, #0
 8004870:	d00d      	beq.n	800488e <I2C_RequestMemoryWrite+0x5e>
 8004872:	68fb      	ldr	r3, [r7, #12]
 8004874:	681b      	ldr	r3, [r3, #0]
 8004876:	681b      	ldr	r3, [r3, #0]
 8004878:	f403 7380 	and.w	r3, r3, #256	@ 0x100
 800487c:	f5b3 7f80 	cmp.w	r3, #256	@ 0x100
 8004880:	d103      	bne.n	800488a <I2C_RequestMemoryWrite+0x5a>
 8004882:	68fb      	ldr	r3, [r7, #12]
 8004884:	f44f 7200 	mov.w	r2, #512	@ 0x200
 8004888:	641a      	str	r2, [r3, #64]	@ 0x40
 800488a:	2303      	movs	r3, #3
 800488c:	e05f      	b.n	800494e <I2C_RequestMemoryWrite+0x11e>
 800488e:	897b      	ldrh	r3, [r7, #10]
 8004890:	b2db      	uxtb	r3, r3
 8004892:	461a      	mov	r2, r3
 8004894:	68fb      	ldr	r3, [r7, #12]
 8004896:	681b      	ldr	r3, [r3, #0]
 8004898:	f002 02fe 	and.w	r2, r2, #254	@ 0xfe
 800489c:	611a      	str	r2, [r3, #16]
 800489e:	6a7b      	ldr	r3, [r7, #36]	@ 0x24
 80048a0:	6a3a      	ldr	r2, [r7, #32]
 80048a2:	492d      	ldr	r1, [pc, #180]	@ (8004958 <I2C_RequestMemoryWrite+0x128>)
 80048a4:	68f8      	ldr	r0, [r7, #12]
 80048a6:	f000 f9bb 	bl	8004c20 <I2C_WaitOnMasterAddressFlagUntilTimeout>
 80048aa:	4603      	mov	r3, r0
 80048ac:	2b00      	cmp	r3, #0
 80048ae:	d001      	beq.n	80048b4 <I2C_RequestMemoryWrite+0x84>
 80048b0:	2301      	movs	r3, #1
 80048b2:	e04c      	b.n	800494e <I2C_RequestMemoryWrite+0x11e>
 80048b4:	2300      	movs	r3, #0
 80048b6:	617b      	str	r3, [r7, #20]
 80048b8:	68fb      	ldr	r3, [r7, #12]
 80048ba:	681b      	ldr	r3, [r3, #0]
 80048bc:	695b      	ldr	r3, [r3, #20]
 80048be:	617b      	str	r3, [r7, #20]
 80048c0:	68fb      	ldr	r3, [r7, #12]
 80048c2:	681b      	ldr	r3, [r3, #0]
 80048c4:	699b      	ldr	r3, [r3, #24]
 80048c6:	617b      	str	r3, [r7, #20]
 80048c8:	697b      	ldr	r3, [r7, #20]
 80048ca:	6a7a      	ldr	r2, [r7, #36]	@ 0x24
 80048cc:	6a39      	ldr	r1, [r7, #32]
 80048ce:	68f8      	ldr	r0, [r7, #12]
 80048d0:	f000 fa46 	bl	8004d60 <I2C_WaitOnTXEFlagUntilTimeout>
 80048d4:	4603      	mov	r3, r0
 80048d6:	2b00      	cmp	r3, #0
 80048d8:	d00d      	beq.n	80048f6 <I2C_RequestMemoryWrite+0xc6>
 80048da:	68fb      	ldr	r3, [r7, #12]
 80048dc:	6c1b      	ldr	r3, [r3, #64]	@ 0x40
 80048de:	2b04      	cmp	r3, #4
 80048e0:	d107      	bne.n	80048f2 <I2C_RequestMemoryWrite+0xc2>
 80048e2:	68fb      	ldr	r3, [r7, #12]
 80048e4:	681b      	ldr	r3, [r3, #0]
 80048e6:	681a      	ldr	r2, [r3, #0]
 80048e8:	68fb      	ldr	r3, [r7, #12]
 80048ea:	681b      	ldr	r3, [r3, #0]
 80048ec:	f442 7200 	orr.w	r2, r2, #512	@ 0x200
 80048f0:	601a      	str	r2, [r3, #0]
 80048f2:	2301      	movs	r3, #1
 80048f4:	e02b      	b.n	800494e <I2C_RequestMemoryWrite+0x11e>
 80048f6:	88fb      	ldrh	r3, [r7, #6]
 80048f8:	2b01      	cmp	r3, #1
 80048fa:	d105      	bne.n	8004908 <I2C_RequestMemoryWrite+0xd8>
 80048fc:	893b      	ldrh	r3, [r7, #8]
 80048fe:	b2da      	uxtb	r2, r3
 8004900:	68fb      	ldr	r3, [r7, #12]
 8004902:	681b      	ldr	r3, [r3, #0]
 8004904:	611a      	str	r2, [r3, #16]
 8004906:	e021      	b.n	800494c <I2C_RequestMemoryWrite+0x11c>
 8004908:	893b      	ldrh	r3, [r7, #8]
 800490a:	0a1b      	lsrs	r3, r3, #8
 800490c:	b29b      	uxth	r3, r3
 800490e:	b2da      	uxtb	r2, r3
 8004910:	68fb      	ldr	r3, [r7, #12]
 8004912:	681b      	ldr	r3, [r3, #0]
 8004914:	611a      	str	r2, [r3, #16]
 8004916:	6a7a      	ldr	r2, [r7, #36]	@ 0x24
 8004918:	6a39      	ldr	r1, [r7, #32]
 800491a:	68f8      	ldr	r0, [r7, #12]
 800491c:	f000 fa20 	bl	8004d60 <I2C_WaitOnTXEFlagUntilTimeout>
 8004920:	4603      	mov	r3, r0
 8004922:	2b00      	cmp	r3, #0
 8004924:	d00d      	beq.n	8004942 <I2C_RequestMemoryWrite+0x112>
 8004926:	68fb      	ldr	r3, [r7, #12]
 8004928:	6c1b      	ldr	r3, [r3, #64]	@ 0x40
 800492a:	2b04      	cmp	r3, #4
 800492c:	d107      	bne.n	800493e <I2C_RequestMemoryWrite+0x10e>
 800492e:	68fb      	ldr	r3, [r7, #12]
 8004930:	681b      	ldr	r3, [r3, #0]
 8004932:	681a      	ldr	r2, [r3, #0]
 8004934:	68fb      	ldr	r3, [r7, #12]
 8004936:	681b      	ldr	r3, [r3, #0]
 8004938:	f442 7200 	orr.w	r2, r2, #512	@ 0x200
 800493c:	601a      	str	r2, [r3, #0]
 800493e:	2301      	movs	r3, #1
 8004940:	e005      	b.n	800494e <I2C_RequestMemoryWrite+0x11e>
 8004942:	893b      	ldrh	r3, [r7, #8]
 8004944:	b2da      	uxtb	r2, r3
 8004946:	68fb      	ldr	r3, [r7, #12]
 8004948:	681b      	ldr	r3, [r3, #0]
 800494a:	611a      	str	r2, [r3, #16]
 800494c:	2300      	movs	r3, #0
 800494e:	4618      	mov	r0, r3
 8004950:	3718      	adds	r7, #24
 8004952:	46bd      	mov	sp, r7
 8004954:	bd80      	pop	{r7, pc}
 8004956:	bf00      	nop
 8004958:	00010002 	.word	0x00010002

0800495c <I2C_RequestMemoryRead>:
 800495c:	b580      	push	{r7, lr}
 800495e:	b088      	sub	sp, #32
 8004960:	af02      	add	r7, sp, #8
 8004962:	60f8      	str	r0, [r7, #12]
 8004964:	4608      	mov	r0, r1
 8004966:	4611      	mov	r1, r2
 8004968:	461a      	mov	r2, r3
 800496a:	4603      	mov	r3, r0
 800496c:	817b      	strh	r3, [r7, #10]
 800496e:	460b      	mov	r3, r1
 8004970:	813b      	strh	r3, [r7, #8]
 8004972:	4613      	mov	r3, r2
 8004974:	80fb      	strh	r3, [r7, #6]
 8004976:	68fb      	ldr	r3, [r7, #12]
 8004978:	681b      	ldr	r3, [r3, #0]
 800497a:	681a      	ldr	r2, [r3, #0]
 800497c:	68fb      	ldr	r3, [r7, #12]
 800497e:	681b      	ldr	r3, [r3, #0]
 8004980:	f442 6280 	orr.w	r2, r2, #1024	@ 0x400
 8004984:	601a      	str	r2, [r3, #0]
 8004986:	68fb      	ldr	r3, [r7, #12]
 8004988:	681b      	ldr	r3, [r3, #0]
 800498a:	681a      	ldr	r2, [r3, #0]
 800498c:	68fb      	ldr	r3, [r7, #12]
 800498e:	681b      	ldr	r3, [r3, #0]
 8004990:	f442 7280 	orr.w	r2, r2, #256	@ 0x100
 8004994:	601a      	str	r2, [r3, #0]
 8004996:	6a7b      	ldr	r3, [r7, #36]	@ 0x24
 8004998:	9300      	str	r3, [sp, #0]
 800499a:	6a3b      	ldr	r3, [r7, #32]
 800499c:	2200      	movs	r2, #0
 800499e:	f04f 1101 	mov.w	r1, #65537	@ 0x10001
 80049a2:	68f8      	ldr	r0, [r7, #12]
 80049a4:	f000 f8c2 	bl	8004b2c <I2C_WaitOnFlagUntilTimeout>
 80049a8:	4603      	mov	r3, r0
 80049aa:	2b00      	cmp	r3, #0
 80049ac:	d00d      	beq.n	80049ca <I2C_RequestMemoryRead+0x6e>
 80049ae:	68fb      	ldr	r3, [r7, #12]
 80049b0:	681b      	ldr	r3, [r3, #0]
 80049b2:	681b      	ldr	r3, [r3, #0]
 80049b4:	f403 7380 	and.w	r3, r3, #256	@ 0x100
 80049b8:	f5b3 7f80 	cmp.w	r3, #256	@ 0x100
 80049bc:	d103      	bne.n	80049c6 <I2C_RequestMemoryRead+0x6a>
 80049be:	68fb      	ldr	r3, [r7, #12]
 80049c0:	f44f 7200 	mov.w	r2, #512	@ 0x200
 80049c4:	641a      	str	r2, [r3, #64]	@ 0x40
 80049c6:	2303      	movs	r3, #3
 80049c8:	e0aa      	b.n	8004b20 <I2C_RequestMemoryRead+0x1c4>
 80049ca:	897b      	ldrh	r3, [r7, #10]
 80049cc:	b2db      	uxtb	r3, r3
 80049ce:	461a      	mov	r2, r3
 80049d0:	68fb      	ldr	r3, [r7, #12]
 80049d2:	681b      	ldr	r3, [r3, #0]
 80049d4:	f002 02fe 	and.w	r2, r2, #254	@ 0xfe
 80049d8:	611a      	str	r2, [r3, #16]
 80049da:	6a7b      	ldr	r3, [r7, #36]	@ 0x24
 80049dc:	6a3a      	ldr	r2, [r7, #32]
 80049de:	4952      	ldr	r1, [pc, #328]	@ (8004b28 <I2C_RequestMemoryRead+0x1cc>)
 80049e0:	68f8      	ldr	r0, [r7, #12]
 80049e2:	f000 f91d 	bl	8004c20 <I2C_WaitOnMasterAddressFlagUntilTimeout>
 80049e6:	4603      	mov	r3, r0
 80049e8:	2b00      	cmp	r3, #0
 80049ea:	d001      	beq.n	80049f0 <I2C_RequestMemoryRead+0x94>
 80049ec:	2301      	movs	r3, #1
 80049ee:	e097      	b.n	8004b20 <I2C_RequestMemoryRead+0x1c4>
 80049f0:	2300      	movs	r3, #0
 80049f2:	617b      	str	r3, [r7, #20]
 80049f4:	68fb      	ldr	r3, [r7, #12]
 80049f6:	681b      	ldr	r3, [r3, #0]
 80049f8:	695b      	ldr	r3, [r3, #20]
 80049fa:	617b      	str	r3, [r7, #20]
 80049fc:	68fb      	ldr	r3, [r7, #12]
 80049fe:	681b      	ldr	r3, [r3, #0]
 8004a00:	699b      	ldr	r3, [r3, #24]
 8004a02:	617b      	str	r3, [r7, #20]
 8004a04:	697b      	ldr	r3, [r7, #20]
 8004a06:	6a7a      	ldr	r2, [r7, #36]	@ 0x24
 8004a08:	6a39      	ldr	r1, [r7, #32]
 8004a0a:	68f8      	ldr	r0, [r7, #12]
 8004a0c:	f000 f9a8 	bl	8004d60 <I2C_WaitOnTXEFlagUntilTimeout>
 8004a10:	4603      	mov	r3, r0
 8004a12:	2b00      	cmp	r3, #0
 8004a14:	d00d      	beq.n	8004a32 <I2C_RequestMemoryRead+0xd6>
 8004a16:	68fb      	ldr	r3, [r7, #12]
 8004a18:	6c1b      	ldr	r3, [r3, #64]	@ 0x40
 8004a1a:	2b04      	cmp	r3, #4
 8004a1c:	d107      	bne.n	8004a2e <I2C_RequestMemoryRead+0xd2>
 8004a1e:	68fb      	ldr	r3, [r7, #12]
 8004a20:	681b      	ldr	r3, [r3, #0]
 8004a22:	681a      	ldr	r2, [r3, #0]
 8004a24:	68fb      	ldr	r3, [r7, #12]
 8004a26:	681b      	ldr	r3, [r3, #0]
 8004a28:	f442 7200 	orr.w	r2, r2, #512	@ 0x200
 8004a2c:	601a      	str	r2, [r3, #0]
 8004a2e:	2301      	movs	r3, #1
 8004a30:	e076      	b.n	8004b20 <I2C_RequestMemoryRead+0x1c4>
 8004a32:	88fb      	ldrh	r3, [r7, #6]
 8004a34:	2b01      	cmp	r3, #1
 8004a36:	d105      	bne.n	8004a44 <I2C_RequestMemoryRead+0xe8>
 8004a38:	893b      	ldrh	r3, [r7, #8]
 8004a3a:	b2da      	uxtb	r2, r3
 8004a3c:	68fb      	ldr	r3, [r7, #12]
 8004a3e:	681b      	ldr	r3, [r3, #0]
 8004a40:	611a      	str	r2, [r3, #16]
 8004a42:	e021      	b.n	8004a88 <I2C_RequestMemoryRead+0x12c>
 8004a44:	893b      	ldrh	r3, [r7, #8]
 8004a46:	0a1b      	lsrs	r3, r3, #8
 8004a48:	b29b      	uxth	r3, r3
 8004a4a:	b2da      	uxtb	r2, r3
 8004a4c:	68fb      	ldr	r3, [r7, #12]
 8004a4e:	681b      	ldr	r3, [r3, #0]
 8004a50:	611a      	str	r2, [r3, #16]
 8004a52:	6a7a      	ldr	r2, [r7, #36]	@ 0x24
 8004a54:	6a39      	ldr	r1, [r7, #32]
 8004a56:	68f8      	ldr	r0, [r7, #12]
 8004a58:	f000 f982 	bl	8004d60 <I2C_WaitOnTXEFlagUntilTimeout>
 8004a5c:	4603      	mov	r3, r0
 8004a5e:	2b00      	cmp	r3, #0
 8004a60:	d00d      	beq.n	8004a7e <I2C_RequestMemoryRead+0x122>
 8004a62:	68fb      	ldr	r3, [r7, #12]
 8004a64:	6c1b      	ldr	r3, [r3, #64]	@ 0x40
 8004a66:	2b04      	cmp	r3, #4
 8004a68:	d107      	bne.n	8004a7a <I2C_RequestMemoryRead+0x11e>
 8004a6a:	68fb      	ldr	r3, [r7, #12]
 8004a6c:	681b      	ldr	r3, [r3, #0]
 8004a6e:	681a      	ldr	r2, [r3, #0]
 8004a70:	68fb      	ldr	r3, [r7, #12]
 8004a72:	681b      	ldr	r3, [r3, #0]
 8004a74:	f442 7200 	orr.w	r2, r2, #512	@ 0x200
 8004a78:	601a      	str	r2, [r3, #0]
 8004a7a:	2301      	movs	r3, #1
 8004a7c:	e050      	b.n	8004b20 <I2C_RequestMemoryRead+0x1c4>
 8004a7e:	893b      	ldrh	r3, [r7, #8]
 8004a80:	b2da      	uxtb	r2, r3
 8004a82:	68fb      	ldr	r3, [r7, #12]
 8004a84:	681b      	ldr	r3, [r3, #0]
 8004a86:	611a      	str	r2, [r3, #16]
 8004a88:	6a7a      	ldr	r2, [r7, #36]	@ 0x24
 8004a8a:	6a39      	ldr	r1, [r7, #32]
 8004a8c:	68f8      	ldr	r0, [r7, #12]
 8004a8e:	f000 f967 	bl	8004d60 <I2C_WaitOnTXEFlagUntilTimeout>
 8004a92:	4603      	mov	r3, r0
 8004a94:	2b00      	cmp	r3, #0
 8004a96:	d00d      	beq.n	8004ab4 <I2C_RequestMemoryRead+0x158>
 8004a98:	68fb      	ldr	r3, [r7, #12]
 8004a9a:	6c1b      	ldr	r3, [r3, #64]	@ 0x40
 8004a9c:	2b04      	cmp	r3, #4
 8004a9e:	d107      	bne.n	8004ab0 <I2C_RequestMemoryRead+0x154>
 8004aa0:	68fb      	ldr	r3, [r7, #12]
 8004aa2:	681b      	ldr	r3, [r3, #0]
 8004aa4:	681a      	ldr	r2, [r3, #0]
 8004aa6:	68fb      	ldr	r3, [r7, #12]
 8004aa8:	681b      	ldr	r3, [r3, #0]
 8004aaa:	f442 7200 	orr.w	r2, r2, #512	@ 0x200
 8004aae:	601a      	str	r2, [r3, #0]
 8004ab0:	2301      	movs	r3, #1
 8004ab2:	e035      	b.n	8004b20 <I2C_RequestMemoryRead+0x1c4>
 8004ab4:	68fb      	ldr	r3, [r7, #12]
 8004ab6:	681b      	ldr	r3, [r3, #0]
 8004ab8:	681a      	ldr	r2, [r3, #0]
 8004aba:	68fb      	ldr	r3, [r7, #12]
 8004abc:	681b      	ldr	r3, [r3, #0]
 8004abe:	f442 7280 	orr.w	r2, r2, #256	@ 0x100
 8004ac2:	601a      	str	r2, [r3, #0]
 8004ac4:	6a7b      	ldr	r3, [r7, #36]	@ 0x24
 8004ac6:	9300      	str	r3, [sp, #0]
 8004ac8:	6a3b      	ldr	r3, [r7, #32]
 8004aca:	2200      	movs	r2, #0
 8004acc:	f04f 1101 	mov.w	r1, #65537	@ 0x10001
 8004ad0:	68f8      	ldr	r0, [r7, #12]
 8004ad2:	f000 f82b 	bl	8004b2c <I2C_WaitOnFlagUntilTimeout>
 8004ad6:	4603      	mov	r3, r0
 8004ad8:	2b00      	cmp	r3, #0
 8004ada:	d00d      	beq.n	8004af8 <I2C_RequestMemoryRead+0x19c>
 8004adc:	68fb      	ldr	r3, [r7, #12]
 8004ade:	681b      	ldr	r3, [r3, #0]
 8004ae0:	681b      	ldr	r3, [r3, #0]
 8004ae2:	f403 7380 	and.w	r3, r3, #256	@ 0x100
 8004ae6:	f5b3 7f80 	cmp.w	r3, #256	@ 0x100
 8004aea:	d103      	bne.n	8004af4 <I2C_RequestMemoryRead+0x198>
 8004aec:	68fb      	ldr	r3, [r7, #12]
 8004aee:	f44f 7200 	mov.w	r2, #512	@ 0x200
 8004af2:	641a      	str	r2, [r3, #64]	@ 0x40
 8004af4:	2303      	movs	r3, #3
 8004af6:	e013      	b.n	8004b20 <I2C_RequestMemoryRead+0x1c4>
 8004af8:	897b      	ldrh	r3, [r7, #10]
 8004afa:	b2db      	uxtb	r3, r3
 8004afc:	f043 0301 	orr.w	r3, r3, #1
 8004b00:	b2da      	uxtb	r2, r3
 8004b02:	68fb      	ldr	r3, [r7, #12]
 8004b04:	681b      	ldr	r3, [r3, #0]
 8004b06:	611a      	str	r2, [r3, #16]
 8004b08:	6a7b      	ldr	r3, [r7, #36]	@ 0x24
 8004b0a:	6a3a      	ldr	r2, [r7, #32]
 8004b0c:	4906      	ldr	r1, [pc, #24]	@ (8004b28 <I2C_RequestMemoryRead+0x1cc>)
 8004b0e:	68f8      	ldr	r0, [r7, #12]
 8004b10:	f000 f886 	bl	8004c20 <I2C_WaitOnMasterAddressFlagUntilTimeout>
 8004b14:	4603      	mov	r3, r0
 8004b16:	2b00      	cmp	r3, #0
 8004b18:	d001      	beq.n	8004b1e <I2C_RequestMemoryRead+0x1c2>
 8004b1a:	2301      	movs	r3, #1
 8004b1c:	e000      	b.n	8004b20 <I2C_RequestMemoryRead+0x1c4>
 8004b1e:	2300      	movs	r3, #0
 8004b20:	4618      	mov	r0, r3
 8004b22:	3718      	adds	r7, #24
 8004b24:	46bd      	mov	sp, r7
 8004b26:	bd80      	pop	{r7, pc}
 8004b28:	00010002 	.word	0x00010002

08004b2c <I2C_WaitOnFlagUntilTimeout>:
 8004b2c:	b580      	push	{r7, lr}
 8004b2e:	b084      	sub	sp, #16
 8004b30:	af00      	add	r7, sp, #0
 8004b32:	60f8      	str	r0, [r7, #12]
 8004b34:	60b9      	str	r1, [r7, #8]
 8004b36:	603b      	str	r3, [r7, #0]
 8004b38:	4613      	mov	r3, r2
 8004b3a:	71fb      	strb	r3, [r7, #7]
 8004b3c:	e048      	b.n	8004bd0 <I2C_WaitOnFlagUntilTimeout+0xa4>
 8004b3e:	683b      	ldr	r3, [r7, #0]
 8004b40:	f1b3 3fff 	cmp.w	r3, #4294967295
 8004b44:	d044      	beq.n	8004bd0 <I2C_WaitOnFlagUntilTimeout+0xa4>
 8004b46:	f7fe fa73 	bl	8003030 <HAL_GetTick>
 8004b4a:	4602      	mov	r2, r0
 8004b4c:	69bb      	ldr	r3, [r7, #24]
 8004b4e:	1ad3      	subs	r3, r2, r3
 8004b50:	683a      	ldr	r2, [r7, #0]
 8004b52:	429a      	cmp	r2, r3
 8004b54:	d302      	bcc.n	8004b5c <I2C_WaitOnFlagUntilTimeout+0x30>
 8004b56:	683b      	ldr	r3, [r7, #0]
 8004b58:	2b00      	cmp	r3, #0
 8004b5a:	d139      	bne.n	8004bd0 <I2C_WaitOnFlagUntilTimeout+0xa4>
 8004b5c:	68bb      	ldr	r3, [r7, #8]
 8004b5e:	0c1b      	lsrs	r3, r3, #16
 8004b60:	b2db      	uxtb	r3, r3
 8004b62:	2b01      	cmp	r3, #1
 8004b64:	d10d      	bne.n	8004b82 <I2C_WaitOnFlagUntilTimeout+0x56>
 8004b66:	68fb      	ldr	r3, [r7, #12]
 8004b68:	681b      	ldr	r3, [r3, #0]
 8004b6a:	695b      	ldr	r3, [r3, #20]
 8004b6c:	43da      	mvns	r2, r3
 8004b6e:	68bb      	ldr	r3, [r7, #8]
 8004b70:	4013      	ands	r3, r2
 8004b72:	b29b      	uxth	r3, r3
 8004b74:	2b00      	cmp	r3, #0
 8004b76:	bf0c      	ite	eq
 8004b78:	2301      	moveq	r3, #1
 8004b7a:	2300      	movne	r3, #0
 8004b7c:	b2db      	uxtb	r3, r3
 8004b7e:	461a      	mov	r2, r3
 8004b80:	e00c      	b.n	8004b9c <I2C_WaitOnFlagUntilTimeout+0x70>
 8004b82:	68fb      	ldr	r3, [r7, #12]
 8004b84:	681b      	ldr	r3, [r3, #0]
 8004b86:	699b      	ldr	r3, [r3, #24]
 8004b88:	43da      	mvns	r2, r3
 8004b8a:	68bb      	ldr	r3, [r7, #8]
 8004b8c:	4013      	ands	r3, r2
 8004b8e:	b29b      	uxth	r3, r3
 8004b90:	2b00      	cmp	r3, #0
 8004b92:	bf0c      	ite	eq
 8004b94:	2301      	moveq	r3, #1
 8004b96:	2300      	movne	r3, #0
 8004b98:	b2db      	uxtb	r3, r3
 8004b9a:	461a      	mov	r2, r3
 8004b9c:	79fb      	ldrb	r3, [r7, #7]
 8004b9e:	429a      	cmp	r2, r3
 8004ba0:	d116      	bne.n	8004bd0 <I2C_WaitOnFlagUntilTimeout+0xa4>
 8004ba2:	68fb      	ldr	r3, [r7, #12]
 8004ba4:	2200      	movs	r2, #0
 8004ba6:	631a      	str	r2, [r3, #48]	@ 0x30
 8004ba8:	68fb      	ldr	r3, [r7, #12]
 8004baa:	2220      	movs	r2, #32
 8004bac:	f883 203d 	strb.w	r2, [r3, #61]	@ 0x3d
 8004bb0:	68fb      	ldr	r3, [r7, #12]
 8004bb2:	2200      	movs	r2, #0
 8004bb4:	f883 203e 	strb.w	r2, [r3, #62]	@ 0x3e
 8004bb8:	68fb      	ldr	r3, [r7, #12]
 8004bba:	6c1b      	ldr	r3, [r3, #64]	@ 0x40
 8004bbc:	f043 0220 	orr.w	r2, r3, #32
 8004bc0:	68fb      	ldr	r3, [r7, #12]
 8004bc2:	641a      	str	r2, [r3, #64]	@ 0x40
 8004bc4:	68fb      	ldr	r3, [r7, #12]
 8004bc6:	2200      	movs	r2, #0
 8004bc8:	f883 203c 	strb.w	r2, [r3, #60]	@ 0x3c
 8004bcc:	2301      	movs	r3, #1
 8004bce:	e023      	b.n	8004c18 <I2C_WaitOnFlagUntilTimeout+0xec>
 8004bd0:	68bb      	ldr	r3, [r7, #8]
 8004bd2:	0c1b      	lsrs	r3, r3, #16
 8004bd4:	b2db      	uxtb	r3, r3
 8004bd6:	2b01      	cmp	r3, #1
 8004bd8:	d10d      	bne.n	8004bf6 <I2C_WaitOnFlagUntilTimeout+0xca>
 8004bda:	68fb      	ldr	r3, [r7, #12]
 8004bdc:	681b      	ldr	r3, [r3, #0]
 8004bde:	695b      	ldr	r3, [r3, #20]
 8004be0:	43da      	mvns	r2, r3
 8004be2:	68bb      	ldr	r3, [r7, #8]
 8004be4:	4013      	ands	r3, r2
 8004be6:	b29b      	uxth	r3, r3
 8004be8:	2b00      	cmp	r3, #0
 8004bea:	bf0c      	ite	eq
 8004bec:	2301      	moveq	r3, #1
 8004bee:	2300      	movne	r3, #0
 8004bf0:	b2db      	uxtb	r3, r3
 8004bf2:	461a      	mov	r2, r3
 8004bf4:	e00c      	b.n	8004c10 <I2C_WaitOnFlagUntilTimeout+0xe4>
 8004bf6:	68fb      	ldr	r3, [r7, #12]
 8004bf8:	681b      	ldr	r3, [r3, #0]
 8004bfa:	699b      	ldr	r3, [r3, #24]
 8004bfc:	43da      	mvns	r2, r3
 8004bfe:	68bb      	ldr	r3, [r7, #8]
 8004c00:	4013      	ands	r3, r2
 8004c02:	b29b      	uxth	r3, r3
 8004c04:	2b00      	cmp	r3, #0
 8004c06:	bf0c      	ite	eq
 8004c08:	2301      	moveq	r3, #1
 8004c0a:	2300      	movne	r3, #0
 8004c0c:	b2db      	uxtb	r3, r3
 8004c0e:	461a      	mov	r2, r3
 8004c10:	79fb      	ldrb	r3, [r7, #7]
 8004c12:	429a      	cmp	r2, r3
 8004c14:	d093      	beq.n	8004b3e <I2C_WaitOnFlagUntilTimeout+0x12>
 8004c16:	2300      	movs	r3, #0
 8004c18:	4618      	mov	r0, r3
 8004c1a:	3710      	adds	r7, #16
 8004c1c:	46bd      	mov	sp, r7
 8004c1e:	bd80      	pop	{r7, pc}

08004c20 <I2C_WaitOnMasterAddressFlagUntilTimeout>:
 8004c20:	b580      	push	{r7, lr}
 8004c22:	b084      	sub	sp, #16
 8004c24:	af00      	add	r7, sp, #0
 8004c26:	60f8      	str	r0, [r7, #12]
 8004c28:	60b9      	str	r1, [r7, #8]
 8004c2a:	607a      	str	r2, [r7, #4]
 8004c2c:	603b      	str	r3, [r7, #0]
 8004c2e:	e071      	b.n	8004d14 <I2C_WaitOnMasterAddressFlagUntilTimeout+0xf4>
 8004c30:	68fb      	ldr	r3, [r7, #12]
 8004c32:	681b      	ldr	r3, [r3, #0]
 8004c34:	695b      	ldr	r3, [r3, #20]
 8004c36:	f403 6380 	and.w	r3, r3, #1024	@ 0x400
 8004c3a:	f5b3 6f80 	cmp.w	r3, #1024	@ 0x400
 8004c3e:	d123      	bne.n	8004c88 <I2C_WaitOnMasterAddressFlagUntilTimeout+0x68>
 8004c40:	68fb      	ldr	r3, [r7, #12]
 8004c42:	681b      	ldr	r3, [r3, #0]
 8004c44:	681a      	ldr	r2, [r3, #0]
 8004c46:	68fb      	ldr	r3, [r7, #12]
 8004c48:	681b      	ldr	r3, [r3, #0]
 8004c4a:	f442 7200 	orr.w	r2, r2, #512	@ 0x200
 8004c4e:	601a      	str	r2, [r3, #0]
 8004c50:	68fb      	ldr	r3, [r7, #12]
 8004c52:	681b      	ldr	r3, [r3, #0]
 8004c54:	f46f 6280 	mvn.w	r2, #1024	@ 0x400
 8004c58:	615a      	str	r2, [r3, #20]
 8004c5a:	68fb      	ldr	r3, [r7, #12]
 8004c5c:	2200      	movs	r2, #0
 8004c5e:	631a      	str	r2, [r3, #48]	@ 0x30
 8004c60:	68fb      	ldr	r3, [r7, #12]
 8004c62:	2220      	movs	r2, #32
 8004c64:	f883 203d 	strb.w	r2, [r3, #61]	@ 0x3d
 8004c68:	68fb      	ldr	r3, [r7, #12]
 8004c6a:	2200      	movs	r2, #0
 8004c6c:	f883 203e 	strb.w	r2, [r3, #62]	@ 0x3e
 8004c70:	68fb      	ldr	r3, [r7, #12]
 8004c72:	6c1b      	ldr	r3, [r3, #64]	@ 0x40
 8004c74:	f043 0204 	orr.w	r2, r3, #4
 8004c78:	68fb      	ldr	r3, [r7, #12]
 8004c7a:	641a      	str	r2, [r3, #64]	@ 0x40
 8004c7c:	68fb      	ldr	r3, [r7, #12]
 8004c7e:	2200      	movs	r2, #0
 8004c80:	f883 203c 	strb.w	r2, [r3, #60]	@ 0x3c
 8004c84:	2301      	movs	r3, #1
 8004c86:	e067      	b.n	8004d58 <I2C_WaitOnMasterAddressFlagUntilTimeout+0x138>
 8004c88:	687b      	ldr	r3, [r7, #4]
 8004c8a:	f1b3 3fff 	cmp.w	r3, #4294967295
 8004c8e:	d041      	beq.n	8004d14 <I2C_WaitOnMasterAddressFlagUntilTimeout+0xf4>
 8004c90:	f7fe f9ce 	bl	8003030 <HAL_GetTick>
 8004c94:	4602      	mov	r2, r0
 8004c96:	683b      	ldr	r3, [r7, #0]
 8004c98:	1ad3      	subs	r3, r2, r3
 8004c9a:	687a      	ldr	r2, [r7, #4]
 8004c9c:	429a      	cmp	r2, r3
 8004c9e:	d302      	bcc.n	8004ca6 <I2C_WaitOnMasterAddressFlagUntilTimeout+0x86>
 8004ca0:	687b      	ldr	r3, [r7, #4]
 8004ca2:	2b00      	cmp	r3, #0
 8004ca4:	d136      	bne.n	8004d14 <I2C_WaitOnMasterAddressFlagUntilTimeout+0xf4>
 8004ca6:	68bb      	ldr	r3, [r7, #8]
 8004ca8:	0c1b      	lsrs	r3, r3, #16
 8004caa:	b2db      	uxtb	r3, r3
 8004cac:	2b01      	cmp	r3, #1
 8004cae:	d10c      	bne.n	8004cca <I2C_WaitOnMasterAddressFlagUntilTimeout+0xaa>
 8004cb0:	68fb      	ldr	r3, [r7, #12]
 8004cb2:	681b      	ldr	r3, [r3, #0]
 8004cb4:	695b      	ldr	r3, [r3, #20]
 8004cb6:	43da      	mvns	r2, r3
 8004cb8:	68bb      	ldr	r3, [r7, #8]
 8004cba:	4013      	ands	r3, r2
 8004cbc:	b29b      	uxth	r3, r3
 8004cbe:	2b00      	cmp	r3, #0
 8004cc0:	bf14      	ite	ne
 8004cc2:	2301      	movne	r3, #1
 8004cc4:	2300      	moveq	r3, #0
 8004cc6:	b2db      	uxtb	r3, r3
 8004cc8:	e00b      	b.n	8004ce2 <I2C_WaitOnMasterAddressFlagUntilTimeout+0xc2>
 8004cca:	68fb      	ldr	r3, [r7, #12]
 8004ccc:	681b      	ldr	r3, [r3, #0]
 8004cce:	699b      	ldr	r3, [r3, #24]
 8004cd0:	43da      	mvns	r2, r3
 8004cd2:	68bb      	ldr	r3, [r7, #8]
 8004cd4:	4013      	ands	r3, r2
 8004cd6:	b29b      	uxth	r3, r3
 8004cd8:	2b00      	cmp	r3, #0
 8004cda:	bf14      	ite	ne
 8004cdc:	2301      	movne	r3, #1
 8004cde:	2300      	moveq	r3, #0
 8004ce0:	b2db      	uxtb	r3, r3
 8004ce2:	2b00      	cmp	r3, #0
 8004ce4:	d016      	beq.n	8004d14 <I2C_WaitOnMasterAddressFlagUntilTimeout+0xf4>
 8004ce6:	68fb      	ldr	r3, [r7, #12]
 8004ce8:	2200      	movs	r2, #0
 8004cea:	631a      	str	r2, [r3, #48]	@ 0x30
 8004cec:	68fb      	ldr	r3, [r7, #12]
 8004cee:	2220      	movs	r2, #32
 8004cf0:	f883 203d 	strb.w	r2, [r3, #61]	@ 0x3d
 8004cf4:	68fb      	ldr	r3, [r7, #12]
 8004cf6:	2200      	movs	r2, #0
 8004cf8:	f883 203e 	strb.w	r2, [r3, #62]	@ 0x3e
 8004cfc:	68fb      	ldr	r3, [r7, #12]
 8004cfe:	6c1b      	ldr	r3, [r3, #64]	@ 0x40
 8004d00:	f043 0220 	orr.w	r2, r3, #32
 8004d04:	68fb      	ldr	r3, [r7, #12]
 8004d06:	641a      	str	r2, [r3, #64]	@ 0x40
 8004d08:	68fb      	ldr	r3, [r7, #12]
 8004d0a:	2200      	movs	r2, #0
 8004d0c:	f883 203c 	strb.w	r2, [r3, #60]	@ 0x3c
 8004d10:	2301      	movs	r3, #1
 8004d12:	e021      	b.n	8004d58 <I2C_WaitOnMasterAddressFlagUntilTimeout+0x138>
 8004d14:	68bb      	ldr	r3, [r7, #8]
 8004d16:	0c1b      	lsrs	r3, r3, #16
 8004d18:	b2db      	uxtb	r3, r3
 8004d1a:	2b01      	cmp	r3, #1
 8004d1c:	d10c      	bne.n	8004d38 <I2C_WaitOnMasterAddressFlagUntilTimeout+0x118>
 8004d1e:	68fb      	ldr	r3, [r7, #12]
 8004d20:	681b      	ldr	r3, [r3, #0]
 8004d22:	695b      	ldr	r3, [r3, #20]
 8004d24:	43da      	mvns	r2, r3
 8004d26:	68bb      	ldr	r3, [r7, #8]
 8004d28:	4013      	ands	r3, r2
 8004d2a:	b29b      	uxth	r3, r3
 8004d2c:	2b00      	cmp	r3, #0
 8004d2e:	bf14      	ite	ne
 8004d30:	2301      	movne	r3, #1
 8004d32:	2300      	moveq	r3, #0
 8004d34:	b2db      	uxtb	r3, r3
 8004d36:	e00b      	b.n	8004d50 <I2C_WaitOnMasterAddressFlagUntilTimeout+0x130>
 8004d38:	68fb      	ldr	r3, [r7, #12]
 8004d3a:	681b      	ldr	r3, [r3, #0]
 8004d3c:	699b      	ldr	r3, [r3, #24]
 8004d3e:	43da      	mvns	r2, r3
 8004d40:	68bb      	ldr	r3, [r7, #8]
 8004d42:	4013      	ands	r3, r2
 8004d44:	b29b      	uxth	r3, r3
 8004d46:	2b00      	cmp	r3, #0
 8004d48:	bf14      	ite	ne
 8004d4a:	2301      	movne	r3, #1
 8004d4c:	2300      	moveq	r3, #0
 8004d4e:	b2db      	uxtb	r3, r3
 8004d50:	2b00      	cmp	r3, #0
 8004d52:	f47f af6d 	bne.w	8004c30 <I2C_WaitOnMasterAddressFlagUntilTimeout+0x10>
 8004d56:	2300      	movs	r3, #0
 8004d58:	4618      	mov	r0, r3
 8004d5a:	3710      	adds	r7, #16
 8004d5c:	46bd      	mov	sp, r7
 8004d5e:	bd80      	pop	{r7, pc}

08004d60 <I2C_WaitOnTXEFlagUntilTimeout>:
 8004d60:	b580      	push	{r7, lr}
 8004d62:	b084      	sub	sp, #16
 8004d64:	af00      	add	r7, sp, #0
 8004d66:	60f8      	str	r0, [r7, #12]
 8004d68:	60b9      	str	r1, [r7, #8]
 8004d6a:	607a      	str	r2, [r7, #4]
 8004d6c:	e034      	b.n	8004dd8 <I2C_WaitOnTXEFlagUntilTimeout+0x78>
 8004d6e:	68f8      	ldr	r0, [r7, #12]
 8004d70:	f000 f8e3 	bl	8004f3a <I2C_IsAcknowledgeFailed>
 8004d74:	4603      	mov	r3, r0
 8004d76:	2b00      	cmp	r3, #0
 8004d78:	d001      	beq.n	8004d7e <I2C_WaitOnTXEFlagUntilTimeout+0x1e>
 8004d7a:	2301      	movs	r3, #1
 8004d7c:	e034      	b.n	8004de8 <I2C_WaitOnTXEFlagUntilTimeout+0x88>
 8004d7e:	68bb      	ldr	r3, [r7, #8]
 8004d80:	f1b3 3fff 	cmp.w	r3, #4294967295
 8004d84:	d028      	beq.n	8004dd8 <I2C_WaitOnTXEFlagUntilTimeout+0x78>
 8004d86:	f7fe f953 	bl	8003030 <HAL_GetTick>
 8004d8a:	4602      	mov	r2, r0
 8004d8c:	687b      	ldr	r3, [r7, #4]
 8004d8e:	1ad3      	subs	r3, r2, r3
 8004d90:	68ba      	ldr	r2, [r7, #8]
 8004d92:	429a      	cmp	r2, r3
 8004d94:	d302      	bcc.n	8004d9c <I2C_WaitOnTXEFlagUntilTimeout+0x3c>
 8004d96:	68bb      	ldr	r3, [r7, #8]
 8004d98:	2b00      	cmp	r3, #0
 8004d9a:	d11d      	bne.n	8004dd8 <I2C_WaitOnTXEFlagUntilTimeout+0x78>
 8004d9c:	68fb      	ldr	r3, [r7, #12]
 8004d9e:	681b      	ldr	r3, [r3, #0]
 8004da0:	695b      	ldr	r3, [r3, #20]
 8004da2:	f003 0380 	and.w	r3, r3, #128	@ 0x80
 8004da6:	2b80      	cmp	r3, #128	@ 0x80
 8004da8:	d016      	beq.n	8004dd8 <I2C_WaitOnTXEFlagUntilTimeout+0x78>
 8004daa:	68fb      	ldr	r3, [r7, #12]
 8004dac:	2200      	movs	r2, #0
 8004dae:	631a      	str	r2, [r3, #48]	@ 0x30
 8004db0:	68fb      	ldr	r3, [r7, #12]
 8004db2:	2220      	movs	r2, #32
 8004db4:	f883 203d 	strb.w	r2, [r3, #61]	@ 0x3d
 8004db8:	68fb      	ldr	r3, [r7, #12]
 8004dba:	2200      	movs	r2, #0
 8004dbc:	f883 203e 	strb.w	r2, [r3, #62]	@ 0x3e
 8004dc0:	68fb      	ldr	r3, [r7, #12]
 8004dc2:	6c1b      	ldr	r3, [r3, #64]	@ 0x40
 8004dc4:	f043 0220 	orr.w	r2, r3, #32
 8004dc8:	68fb      	ldr	r3, [r7, #12]
 8004dca:	641a      	str	r2, [r3, #64]	@ 0x40
 8004dcc:	68fb      	ldr	r3, [r7, #12]
 8004dce:	2200      	movs	r2, #0
 8004dd0:	f883 203c 	strb.w	r2, [r3, #60]	@ 0x3c
 8004dd4:	2301      	movs	r3, #1
 8004dd6:	e007      	b.n	8004de8 <I2C_WaitOnTXEFlagUntilTimeout+0x88>
 8004dd8:	68fb      	ldr	r3, [r7, #12]
 8004dda:	681b      	ldr	r3, [r3, #0]
 8004ddc:	695b      	ldr	r3, [r3, #20]
 8004dde:	f003 0380 	and.w	r3, r3, #128	@ 0x80
 8004de2:	2b80      	cmp	r3, #128	@ 0x80
 8004de4:	d1c3      	bne.n	8004d6e <I2C_WaitOnTXEFlagUntilTimeout+0xe>
 8004de6:	2300      	movs	r3, #0
 8004de8:	4618      	mov	r0, r3
 8004dea:	3710      	adds	r7, #16
 8004dec:	46bd      	mov	sp, r7
 8004dee:	bd80      	pop	{r7, pc}

08004df0 <I2C_WaitOnBTFFlagUntilTimeout>:
 8004df0:	b580      	push	{r7, lr}
 8004df2:	b084      	sub	sp, #16
 8004df4:	af00      	add	r7, sp, #0
 8004df6:	60f8      	str	r0, [r7, #12]
 8004df8:	60b9      	str	r1, [r7, #8]
 8004dfa:	607a      	str	r2, [r7, #4]
 8004dfc:	e034      	b.n	8004e68 <I2C_WaitOnBTFFlagUntilTimeout+0x78>
 8004dfe:	68f8      	ldr	r0, [r7, #12]
 8004e00:	f000 f89b 	bl	8004f3a <I2C_IsAcknowledgeFailed>
 8004e04:	4603      	mov	r3, r0
 8004e06:	2b00      	cmp	r3, #0
 8004e08:	d001      	beq.n	8004e0e <I2C_WaitOnBTFFlagUntilTimeout+0x1e>
 8004e0a:	2301      	movs	r3, #1
 8004e0c:	e034      	b.n	8004e78 <I2C_WaitOnBTFFlagUntilTimeout+0x88>
 8004e0e:	68bb      	ldr	r3, [r7, #8]
 8004e10:	f1b3 3fff 	cmp.w	r3, #4294967295
 8004e14:	d028      	beq.n	8004e68 <I2C_WaitOnBTFFlagUntilTimeout+0x78>
 8004e16:	f7fe f90b 	bl	8003030 <HAL_GetTick>
 8004e1a:	4602      	mov	r2, r0
 8004e1c:	687b      	ldr	r3, [r7, #4]
 8004e1e:	1ad3      	subs	r3, r2, r3
 8004e20:	68ba      	ldr	r2, [r7, #8]
 8004e22:	429a      	cmp	r2, r3
 8004e24:	d302      	bcc.n	8004e2c <I2C_WaitOnBTFFlagUntilTimeout+0x3c>
 8004e26:	68bb      	ldr	r3, [r7, #8]
 8004e28:	2b00      	cmp	r3, #0
 8004e2a:	d11d      	bne.n	8004e68 <I2C_WaitOnBTFFlagUntilTimeout+0x78>
 8004e2c:	68fb      	ldr	r3, [r7, #12]
 8004e2e:	681b      	ldr	r3, [r3, #0]
 8004e30:	695b      	ldr	r3, [r3, #20]
 8004e32:	f003 0304 	and.w	r3, r3, #4
 8004e36:	2b04      	cmp	r3, #4
 8004e38:	d016      	beq.n	8004e68 <I2C_WaitOnBTFFlagUntilTimeout+0x78>
 8004e3a:	68fb      	ldr	r3, [r7, #12]
 8004e3c:	2200      	movs	r2, #0
 8004e3e:	631a      	str	r2, [r3, #48]	@ 0x30
 8004e40:	68fb      	ldr	r3, [r7, #12]
 8004e42:	2220      	movs	r2, #32
 8004e44:	f883 203d 	strb.w	r2, [r3, #61]	@ 0x3d
 8004e48:	68fb      	ldr	r3, [r7, #12]
 8004e4a:	2200      	movs	r2, #0
 8004e4c:	f883 203e 	strb.w	r2, [r3, #62]	@ 0x3e
 8004e50:	68fb      	ldr	r3, [r7, #12]
 8004e52:	6c1b      	ldr	r3, [r3, #64]	@ 0x40
 8004e54:	f043 0220 	orr.w	r2, r3, #32
 8004e58:	68fb      	ldr	r3, [r7, #12]
 8004e5a:	641a      	str	r2, [r3, #64]	@ 0x40
 8004e5c:	68fb      	ldr	r3, [r7, #12]
 8004e5e:	2200      	movs	r2, #0
 8004e60:	f883 203c 	strb.w	r2, [r3, #60]	@ 0x3c
 8004e64:	2301      	movs	r3, #1
 8004e66:	e007      	b.n	8004e78 <I2C_WaitOnBTFFlagUntilTimeout+0x88>
 8004e68:	68fb      	ldr	r3, [r7, #12]
 8004e6a:	681b      	ldr	r3, [r3, #0]
 8004e6c:	695b      	ldr	r3, [r3, #20]
 8004e6e:	f003 0304 	and.w	r3, r3, #4
 8004e72:	2b04      	cmp	r3, #4
 8004e74:	d1c3      	bne.n	8004dfe <I2C_WaitOnBTFFlagUntilTimeout+0xe>
 8004e76:	2300      	movs	r3, #0
 8004e78:	4618      	mov	r0, r3
 8004e7a:	3710      	adds	r7, #16
 8004e7c:	46bd      	mov	sp, r7
 8004e7e:	bd80      	pop	{r7, pc}

08004e80 <I2C_WaitOnRXNEFlagUntilTimeout>:
 8004e80:	b580      	push	{r7, lr}
 8004e82:	b084      	sub	sp, #16
 8004e84:	af00      	add	r7, sp, #0
 8004e86:	60f8      	str	r0, [r7, #12]
 8004e88:	60b9      	str	r1, [r7, #8]
 8004e8a:	607a      	str	r2, [r7, #4]
 8004e8c:	e049      	b.n	8004f22 <I2C_WaitOnRXNEFlagUntilTimeout+0xa2>
 8004e8e:	68fb      	ldr	r3, [r7, #12]
 8004e90:	681b      	ldr	r3, [r3, #0]
 8004e92:	695b      	ldr	r3, [r3, #20]
 8004e94:	f003 0310 	and.w	r3, r3, #16
 8004e98:	2b10      	cmp	r3, #16
 8004e9a:	d119      	bne.n	8004ed0 <I2C_WaitOnRXNEFlagUntilTimeout+0x50>
 8004e9c:	68fb      	ldr	r3, [r7, #12]
 8004e9e:	681b      	ldr	r3, [r3, #0]
 8004ea0:	f06f 0210 	mvn.w	r2, #16
 8004ea4:	615a      	str	r2, [r3, #20]
 8004ea6:	68fb      	ldr	r3, [r7, #12]
 8004ea8:	2200      	movs	r2, #0
 8004eaa:	631a      	str	r2, [r3, #48]	@ 0x30
 8004eac:	68fb      	ldr	r3, [r7, #12]
 8004eae:	2220      	movs	r2, #32
 8004eb0:	f883 203d 	strb.w	r2, [r3, #61]	@ 0x3d
 8004eb4:	68fb      	ldr	r3, [r7, #12]
 8004eb6:	2200      	movs	r2, #0
 8004eb8:	f883 203e 	strb.w	r2, [r3, #62]	@ 0x3e
 8004ebc:	68fb      	ldr	r3, [r7, #12]
 8004ebe:	6c1a      	ldr	r2, [r3, #64]	@ 0x40
 8004ec0:	68fb      	ldr	r3, [r7, #12]
 8004ec2:	641a      	str	r2, [r3, #64]	@ 0x40
 8004ec4:	68fb      	ldr	r3, [r7, #12]
 8004ec6:	2200      	movs	r2, #0
 8004ec8:	f883 203c 	strb.w	r2, [r3, #60]	@ 0x3c
 8004ecc:	2301      	movs	r3, #1
 8004ece:	e030      	b.n	8004f32 <I2C_WaitOnRXNEFlagUntilTimeout+0xb2>
 8004ed0:	f7fe f8ae 	bl	8003030 <HAL_GetTick>
 8004ed4:	4602      	mov	r2, r0
 8004ed6:	687b      	ldr	r3, [r7, #4]
 8004ed8:	1ad3      	subs	r3, r2, r3
 8004eda:	68ba      	ldr	r2, [r7, #8]
 8004edc:	429a      	cmp	r2, r3
 8004ede:	d302      	bcc.n	8004ee6 <I2C_WaitOnRXNEFlagUntilTimeout+0x66>
 8004ee0:	68bb      	ldr	r3, [r7, #8]
 8004ee2:	2b00      	cmp	r3, #0
 8004ee4:	d11d      	bne.n	8004f22 <I2C_WaitOnRXNEFlagUntilTimeout+0xa2>
 8004ee6:	68fb      	ldr	r3, [r7, #12]
 8004ee8:	681b      	ldr	r3, [r3, #0]
 8004eea:	695b      	ldr	r3, [r3, #20]
 8004eec:	f003 0340 	and.w	r3, r3, #64	@ 0x40
 8004ef0:	2b40      	cmp	r3, #64	@ 0x40
 8004ef2:	d016      	beq.n	8004f22 <I2C_WaitOnRXNEFlagUntilTimeout+0xa2>
 8004ef4:	68fb      	ldr	r3, [r7, #12]
 8004ef6:	2200      	movs	r2, #0
 8004ef8:	631a      	str	r2, [r3, #48]	@ 0x30
 8004efa:	68fb      	ldr	r3, [r7, #12]
 8004efc:	2220      	movs	r2, #32
 8004efe:	f883 203d 	strb.w	r2, [r3, #61]	@ 0x3d
 8004f02:	68fb      	ldr	r3, [r7, #12]
 8004f04:	2200      	movs	r2, #0
 8004f06:	f883 203e 	strb.w	r2, [r3, #62]	@ 0x3e
 8004f0a:	68fb      	ldr	r3, [r7, #12]
 8004f0c:	6c1b      	ldr	r3, [r3, #64]	@ 0x40
 8004f0e:	f043 0220 	orr.w	r2, r3, #32
 8004f12:	68fb      	ldr	r3, [r7, #12]
 8004f14:	641a      	str	r2, [r3, #64]	@ 0x40
 8004f16:	68fb      	ldr	r3, [r7, #12]
 8004f18:	2200      	movs	r2, #0
 8004f1a:	f883 203c 	strb.w	r2, [r3, #60]	@ 0x3c
 8004f1e:	2301      	movs	r3, #1
 8004f20:	e007      	b.n	8004f32 <I2C_WaitOnRXNEFlagUntilTimeout+0xb2>
 8004f22:	68fb      	ldr	r3, [r7, #12]
 8004f24:	681b      	ldr	r3, [r3, #0]
 8004f26:	695b      	ldr	r3, [r3, #20]
 8004f28:	f003 0340 	and.w	r3, r3, #64	@ 0x40
 8004f2c:	2b40      	cmp	r3, #64	@ 0x40
 8004f2e:	d1ae      	bne.n	8004e8e <I2C_WaitOnRXNEFlagUntilTimeout+0xe>
 8004f30:	2300      	movs	r3, #0
 8004f32:	4618      	mov	r0, r3
 8004f34:	3710      	adds	r7, #16
 8004f36:	46bd      	mov	sp, r7
 8004f38:	bd80      	pop	{r7, pc}

08004f3a <I2C_IsAcknowledgeFailed>:
 8004f3a:	b480      	push	{r7}
 8004f3c:	b083      	sub	sp, #12
 8004f3e:	af00      	add	r7, sp, #0
 8004f40:	6078      	str	r0, [r7, #4]
 8004f42:	687b      	ldr	r3, [r7, #4]
 8004f44:	681b      	ldr	r3, [r3, #0]
 8004f46:	695b      	ldr	r3, [r3, #20]
 8004f48:	f403 6380 	and.w	r3, r3, #1024	@ 0x400
 8004f4c:	f5b3 6f80 	cmp.w	r3, #1024	@ 0x400
 8004f50:	d11b      	bne.n	8004f8a <I2C_IsAcknowledgeFailed+0x50>
 8004f52:	687b      	ldr	r3, [r7, #4]
 8004f54:	681b      	ldr	r3, [r3, #0]
 8004f56:	f46f 6280 	mvn.w	r2, #1024	@ 0x400
 8004f5a:	615a      	str	r2, [r3, #20]
 8004f5c:	687b      	ldr	r3, [r7, #4]
 8004f5e:	2200      	movs	r2, #0
 8004f60:	631a      	str	r2, [r3, #48]	@ 0x30
 8004f62:	687b      	ldr	r3, [r7, #4]
 8004f64:	2220      	movs	r2, #32
 8004f66:	f883 203d 	strb.w	r2, [r3, #61]	@ 0x3d
 8004f6a:	687b      	ldr	r3, [r7, #4]
 8004f6c:	2200      	movs	r2, #0
 8004f6e:	f883 203e 	strb.w	r2, [r3, #62]	@ 0x3e
 8004f72:	687b      	ldr	r3, [r7, #4]
 8004f74:	6c1b      	ldr	r3, [r3, #64]	@ 0x40
 8004f76:	f043 0204 	orr.w	r2, r3, #4
 8004f7a:	687b      	ldr	r3, [r7, #4]
 8004f7c:	641a      	str	r2, [r3, #64]	@ 0x40
 8004f7e:	687b      	ldr	r3, [r7, #4]
 8004f80:	2200      	movs	r2, #0
 8004f82:	f883 203c 	strb.w	r2, [r3, #60]	@ 0x3c
 8004f86:	2301      	movs	r3, #1
 8004f88:	e000      	b.n	8004f8c <I2C_IsAcknowledgeFailed+0x52>
 8004f8a:	2300      	movs	r3, #0
 8004f8c:	4618      	mov	r0, r3
 8004f8e:	370c      	adds	r7, #12
 8004f90:	46bd      	mov	sp, r7
 8004f92:	bc80      	pop	{r7}
 8004f94:	4770      	bx	lr
	...

08004f98 <HAL_RCC_OscConfig>:
 8004f98:	b580      	push	{r7, lr}
 8004f9a:	b086      	sub	sp, #24
 8004f9c:	af00      	add	r7, sp, #0
 8004f9e:	6078      	str	r0, [r7, #4]
 8004fa0:	687b      	ldr	r3, [r7, #4]
 8004fa2:	2b00      	cmp	r3, #0
 8004fa4:	d101      	bne.n	8004faa <HAL_RCC_OscConfig+0x12>
 8004fa6:	2301      	movs	r3, #1
 8004fa8:	e272      	b.n	8005490 <HAL_RCC_OscConfig+0x4f8>
 8004faa:	687b      	ldr	r3, [r7, #4]
 8004fac:	681b      	ldr	r3, [r3, #0]
 8004fae:	f003 0301 	and.w	r3, r3, #1
 8004fb2:	2b00      	cmp	r3, #0
 8004fb4:	f000 8087 	beq.w	80050c6 <HAL_RCC_OscConfig+0x12e>
 8004fb8:	4b92      	ldr	r3, [pc, #584]	@ (8005204 <HAL_RCC_OscConfig+0x26c>)
 8004fba:	685b      	ldr	r3, [r3, #4]
 8004fbc:	f003 030c 	and.w	r3, r3, #12
 8004fc0:	2b04      	cmp	r3, #4
 8004fc2:	d00c      	beq.n	8004fde <HAL_RCC_OscConfig+0x46>
 8004fc4:	4b8f      	ldr	r3, [pc, #572]	@ (8005204 <HAL_RCC_OscConfig+0x26c>)
 8004fc6:	685b      	ldr	r3, [r3, #4]
 8004fc8:	f003 030c 	and.w	r3, r3, #12
 8004fcc:	2b08      	cmp	r3, #8
 8004fce:	d112      	bne.n	8004ff6 <HAL_RCC_OscConfig+0x5e>
 8004fd0:	4b8c      	ldr	r3, [pc, #560]	@ (8005204 <HAL_RCC_OscConfig+0x26c>)
 8004fd2:	685b      	ldr	r3, [r3, #4]
 8004fd4:	f403 3380 	and.w	r3, r3, #65536	@ 0x10000
 8004fd8:	f5b3 3f80 	cmp.w	r3, #65536	@ 0x10000
 8004fdc:	d10b      	bne.n	8004ff6 <HAL_RCC_OscConfig+0x5e>
 8004fde:	4b89      	ldr	r3, [pc, #548]	@ (8005204 <HAL_RCC_OscConfig+0x26c>)
 8004fe0:	681b      	ldr	r3, [r3, #0]
 8004fe2:	f403 3300 	and.w	r3, r3, #131072	@ 0x20000
 8004fe6:	2b00      	cmp	r3, #0
 8004fe8:	d06c      	beq.n	80050c4 <HAL_RCC_OscConfig+0x12c>
 8004fea:	687b      	ldr	r3, [r7, #4]
 8004fec:	685b      	ldr	r3, [r3, #4]
 8004fee:	2b00      	cmp	r3, #0
 8004ff0:	d168      	bne.n	80050c4 <HAL_RCC_OscConfig+0x12c>
 8004ff2:	2301      	movs	r3, #1
 8004ff4:	e24c      	b.n	8005490 <HAL_RCC_OscConfig+0x4f8>
 8004ff6:	687b      	ldr	r3, [r7, #4]
 8004ff8:	685b      	ldr	r3, [r3, #4]
 8004ffa:	f5b3 3f80 	cmp.w	r3, #65536	@ 0x10000
 8004ffe:	d106      	bne.n	800500e <HAL_RCC_OscConfig+0x76>
 8005000:	4b80      	ldr	r3, [pc, #512]	@ (8005204 <HAL_RCC_OscConfig+0x26c>)
 8005002:	681b      	ldr	r3, [r3, #0]
 8005004:	4a7f      	ldr	r2, [pc, #508]	@ (8005204 <HAL_RCC_OscConfig+0x26c>)
 8005006:	f443 3380 	orr.w	r3, r3, #65536	@ 0x10000
 800500a:	6013      	str	r3, [r2, #0]
 800500c:	e02e      	b.n	800506c <HAL_RCC_OscConfig+0xd4>
 800500e:	687b      	ldr	r3, [r7, #4]
 8005010:	685b      	ldr	r3, [r3, #4]
 8005012:	2b00      	cmp	r3, #0
 8005014:	d10c      	bne.n	8005030 <HAL_RCC_OscConfig+0x98>
 8005016:	4b7b      	ldr	r3, [pc, #492]	@ (8005204 <HAL_RCC_OscConfig+0x26c>)
 8005018:	681b      	ldr	r3, [r3, #0]
 800501a:	4a7a      	ldr	r2, [pc, #488]	@ (8005204 <HAL_RCC_OscConfig+0x26c>)
 800501c:	f423 3380 	bic.w	r3, r3, #65536	@ 0x10000
 8005020:	6013      	str	r3, [r2, #0]
 8005022:	4b78      	ldr	r3, [pc, #480]	@ (8005204 <HAL_RCC_OscConfig+0x26c>)
 8005024:	681b      	ldr	r3, [r3, #0]
 8005026:	4a77      	ldr	r2, [pc, #476]	@ (8005204 <HAL_RCC_OscConfig+0x26c>)
 8005028:	f423 2380 	bic.w	r3, r3, #262144	@ 0x40000
 800502c:	6013      	str	r3, [r2, #0]
 800502e:	e01d      	b.n	800506c <HAL_RCC_OscConfig+0xd4>
 8005030:	687b      	ldr	r3, [r7, #4]
 8005032:	685b      	ldr	r3, [r3, #4]
 8005034:	f5b3 2fa0 	cmp.w	r3, #327680	@ 0x50000
 8005038:	d10c      	bne.n	8005054 <HAL_RCC_OscConfig+0xbc>
 800503a:	4b72      	ldr	r3, [pc, #456]	@ (8005204 <HAL_RCC_OscConfig+0x26c>)
 800503c:	681b      	ldr	r3, [r3, #0]
 800503e:	4a71      	ldr	r2, [pc, #452]	@ (8005204 <HAL_RCC_OscConfig+0x26c>)
 8005040:	f443 2380 	orr.w	r3, r3, #262144	@ 0x40000
 8005044:	6013      	str	r3, [r2, #0]
 8005046:	4b6f      	ldr	r3, [pc, #444]	@ (8005204 <HAL_RCC_OscConfig+0x26c>)
 8005048:	681b      	ldr	r3, [r3, #0]
 800504a:	4a6e      	ldr	r2, [pc, #440]	@ (8005204 <HAL_RCC_OscConfig+0x26c>)
 800504c:	f443 3380 	orr.w	r3, r3, #65536	@ 0x10000
 8005050:	6013      	str	r3, [r2, #0]
 8005052:	e00b      	b.n	800506c <HAL_RCC_OscConfig+0xd4>
 8005054:	4b6b      	ldr	r3, [pc, #428]	@ (8005204 <HAL_RCC_OscConfig+0x26c>)
 8005056:	681b      	ldr	r3, [r3, #0]
 8005058:	4a6a      	ldr	r2, [pc, #424]	@ (8005204 <HAL_RCC_OscConfig+0x26c>)
 800505a:	f423 3380 	bic.w	r3, r3, #65536	@ 0x10000
 800505e:	6013      	str	r3, [r2, #0]
 8005060:	4b68      	ldr	r3, [pc, #416]	@ (8005204 <HAL_RCC_OscConfig+0x26c>)
 8005062:	681b      	ldr	r3, [r3, #0]
 8005064:	4a67      	ldr	r2, [pc, #412]	@ (8005204 <HAL_RCC_OscConfig+0x26c>)
 8005066:	f423 2380 	bic.w	r3, r3, #262144	@ 0x40000
 800506a:	6013      	str	r3, [r2, #0]
 800506c:	687b      	ldr	r3, [r7, #4]
 800506e:	685b      	ldr	r3, [r3, #4]
 8005070:	2b00      	cmp	r3, #0
 8005072:	d013      	beq.n	800509c <HAL_RCC_OscConfig+0x104>
 8005074:	f7fd ffdc 	bl	8003030 <HAL_GetTick>
 8005078:	6138      	str	r0, [r7, #16]
 800507a:	e008      	b.n	800508e <HAL_RCC_OscConfig+0xf6>
 800507c:	f7fd ffd8 	bl	8003030 <HAL_GetTick>
 8005080:	4602      	mov	r2, r0
 8005082:	693b      	ldr	r3, [r7, #16]
 8005084:	1ad3      	subs	r3, r2, r3
 8005086:	2b64      	cmp	r3, #100	@ 0x64
 8005088:	d901      	bls.n	800508e <HAL_RCC_OscConfig+0xf6>
 800508a:	2303      	movs	r3, #3
 800508c:	e200      	b.n	8005490 <HAL_RCC_OscConfig+0x4f8>
 800508e:	4b5d      	ldr	r3, [pc, #372]	@ (8005204 <HAL_RCC_OscConfig+0x26c>)
 8005090:	681b      	ldr	r3, [r3, #0]
 8005092:	f403 3300 	and.w	r3, r3, #131072	@ 0x20000
 8005096:	2b00      	cmp	r3, #0
 8005098:	d0f0      	beq.n	800507c <HAL_RCC_OscConfig+0xe4>
 800509a:	e014      	b.n	80050c6 <HAL_RCC_OscConfig+0x12e>
 800509c:	f7fd ffc8 	bl	8003030 <HAL_GetTick>
 80050a0:	6138      	str	r0, [r7, #16]
 80050a2:	e008      	b.n	80050b6 <HAL_RCC_OscConfig+0x11e>
 80050a4:	f7fd ffc4 	bl	8003030 <HAL_GetTick>
 80050a8:	4602      	mov	r2, r0
 80050aa:	693b      	ldr	r3, [r7, #16]
 80050ac:	1ad3      	subs	r3, r2, r3
 80050ae:	2b64      	cmp	r3, #100	@ 0x64
 80050b0:	d901      	bls.n	80050b6 <HAL_RCC_OscConfig+0x11e>
 80050b2:	2303      	movs	r3, #3
 80050b4:	e1ec      	b.n	8005490 <HAL_RCC_OscConfig+0x4f8>
 80050b6:	4b53      	ldr	r3, [pc, #332]	@ (8005204 <HAL_RCC_OscConfig+0x26c>)
 80050b8:	681b      	ldr	r3, [r3, #0]
 80050ba:	f403 3300 	and.w	r3, r3, #131072	@ 0x20000
 80050be:	2b00      	cmp	r3, #0
 80050c0:	d1f0      	bne.n	80050a4 <HAL_RCC_OscConfig+0x10c>
 80050c2:	e000      	b.n	80050c6 <HAL_RCC_OscConfig+0x12e>
 80050c4:	bf00      	nop
 80050c6:	687b      	ldr	r3, [r7, #4]
 80050c8:	681b      	ldr	r3, [r3, #0]
 80050ca:	f003 0302 	and.w	r3, r3, #2
 80050ce:	2b00      	cmp	r3, #0
 80050d0:	d063      	beq.n	800519a <HAL_RCC_OscConfig+0x202>
 80050d2:	4b4c      	ldr	r3, [pc, #304]	@ (8005204 <HAL_RCC_OscConfig+0x26c>)
 80050d4:	685b      	ldr	r3, [r3, #4]
 80050d6:	f003 030c 	and.w	r3, r3, #12
 80050da:	2b00      	cmp	r3, #0
 80050dc:	d00b      	beq.n	80050f6 <HAL_RCC_OscConfig+0x15e>
 80050de:	4b49      	ldr	r3, [pc, #292]	@ (8005204 <HAL_RCC_OscConfig+0x26c>)
 80050e0:	685b      	ldr	r3, [r3, #4]
 80050e2:	f003 030c 	and.w	r3, r3, #12
 80050e6:	2b08      	cmp	r3, #8
 80050e8:	d11c      	bne.n	8005124 <HAL_RCC_OscConfig+0x18c>
 80050ea:	4b46      	ldr	r3, [pc, #280]	@ (8005204 <HAL_RCC_OscConfig+0x26c>)
 80050ec:	685b      	ldr	r3, [r3, #4]
 80050ee:	f403 3380 	and.w	r3, r3, #65536	@ 0x10000
 80050f2:	2b00      	cmp	r3, #0
 80050f4:	d116      	bne.n	8005124 <HAL_RCC_OscConfig+0x18c>
 80050f6:	4b43      	ldr	r3, [pc, #268]	@ (8005204 <HAL_RCC_OscConfig+0x26c>)
 80050f8:	681b      	ldr	r3, [r3, #0]
 80050fa:	f003 0302 	and.w	r3, r3, #2
 80050fe:	2b00      	cmp	r3, #0
 8005100:	d005      	beq.n	800510e <HAL_RCC_OscConfig+0x176>
 8005102:	687b      	ldr	r3, [r7, #4]
 8005104:	691b      	ldr	r3, [r3, #16]
 8005106:	2b01      	cmp	r3, #1
 8005108:	d001      	beq.n	800510e <HAL_RCC_OscConfig+0x176>
 800510a:	2301      	movs	r3, #1
 800510c:	e1c0      	b.n	8005490 <HAL_RCC_OscConfig+0x4f8>
 800510e:	4b3d      	ldr	r3, [pc, #244]	@ (8005204 <HAL_RCC_OscConfig+0x26c>)
 8005110:	681b      	ldr	r3, [r3, #0]
 8005112:	f023 02f8 	bic.w	r2, r3, #248	@ 0xf8
 8005116:	687b      	ldr	r3, [r7, #4]
 8005118:	695b      	ldr	r3, [r3, #20]
 800511a:	00db      	lsls	r3, r3, #3
 800511c:	4939      	ldr	r1, [pc, #228]	@ (8005204 <HAL_RCC_OscConfig+0x26c>)
 800511e:	4313      	orrs	r3, r2
 8005120:	600b      	str	r3, [r1, #0]
 8005122:	e03a      	b.n	800519a <HAL_RCC_OscConfig+0x202>
 8005124:	687b      	ldr	r3, [r7, #4]
 8005126:	691b      	ldr	r3, [r3, #16]
 8005128:	2b00      	cmp	r3, #0
 800512a:	d020      	beq.n	800516e <HAL_RCC_OscConfig+0x1d6>
 800512c:	4b36      	ldr	r3, [pc, #216]	@ (8005208 <HAL_RCC_OscConfig+0x270>)
 800512e:	2201      	movs	r2, #1
 8005130:	601a      	str	r2, [r3, #0]
 8005132:	f7fd ff7d 	bl	8003030 <HAL_GetTick>
 8005136:	6138      	str	r0, [r7, #16]
 8005138:	e008      	b.n	800514c <HAL_RCC_OscConfig+0x1b4>
 800513a:	f7fd ff79 	bl	8003030 <HAL_GetTick>
 800513e:	4602      	mov	r2, r0
 8005140:	693b      	ldr	r3, [r7, #16]
 8005142:	1ad3      	subs	r3, r2, r3
 8005144:	2b02      	cmp	r3, #2
 8005146:	d901      	bls.n	800514c <HAL_RCC_OscConfig+0x1b4>
 8005148:	2303      	movs	r3, #3
 800514a:	e1a1      	b.n	8005490 <HAL_RCC_OscConfig+0x4f8>
 800514c:	4b2d      	ldr	r3, [pc, #180]	@ (8005204 <HAL_RCC_OscConfig+0x26c>)
 800514e:	681b      	ldr	r3, [r3, #0]
 8005150:	f003 0302 	and.w	r3, r3, #2
 8005154:	2b00      	cmp	r3, #0
 8005156:	d0f0      	beq.n	800513a <HAL_RCC_OscConfig+0x1a2>
 8005158:	4b2a      	ldr	r3, [pc, #168]	@ (8005204 <HAL_RCC_OscConfig+0x26c>)
 800515a:	681b      	ldr	r3, [r3, #0]
 800515c:	f023 02f8 	bic.w	r2, r3, #248	@ 0xf8
 8005160:	687b      	ldr	r3, [r7, #4]
 8005162:	695b      	ldr	r3, [r3, #20]
 8005164:	00db      	lsls	r3, r3, #3
 8005166:	4927      	ldr	r1, [pc, #156]	@ (8005204 <HAL_RCC_OscConfig+0x26c>)
 8005168:	4313      	orrs	r3, r2
 800516a:	600b      	str	r3, [r1, #0]
 800516c:	e015      	b.n	800519a <HAL_RCC_OscConfig+0x202>
 800516e:	4b26      	ldr	r3, [pc, #152]	@ (8005208 <HAL_RCC_OscConfig+0x270>)
 8005170:	2200      	movs	r2, #0
 8005172:	601a      	str	r2, [r3, #0]
 8005174:	f7fd ff5c 	bl	8003030 <HAL_GetTick>
 8005178:	6138      	str	r0, [r7, #16]
 800517a:	e008      	b.n	800518e <HAL_RCC_OscConfig+0x1f6>
 800517c:	f7fd ff58 	bl	8003030 <HAL_GetTick>
 8005180:	4602      	mov	r2, r0
 8005182:	693b      	ldr	r3, [r7, #16]
 8005184:	1ad3      	subs	r3, r2, r3
 8005186:	2b02      	cmp	r3, #2
 8005188:	d901      	bls.n	800518e <HAL_RCC_OscConfig+0x1f6>
 800518a:	2303      	movs	r3, #3
 800518c:	e180      	b.n	8005490 <HAL_RCC_OscConfig+0x4f8>
 800518e:	4b1d      	ldr	r3, [pc, #116]	@ (8005204 <HAL_RCC_OscConfig+0x26c>)
 8005190:	681b      	ldr	r3, [r3, #0]
 8005192:	f003 0302 	and.w	r3, r3, #2
 8005196:	2b00      	cmp	r3, #0
 8005198:	d1f0      	bne.n	800517c <HAL_RCC_OscConfig+0x1e4>
 800519a:	687b      	ldr	r3, [r7, #4]
 800519c:	681b      	ldr	r3, [r3, #0]
 800519e:	f003 0308 	and.w	r3, r3, #8
 80051a2:	2b00      	cmp	r3, #0
 80051a4:	d03a      	beq.n	800521c <HAL_RCC_OscConfig+0x284>
 80051a6:	687b      	ldr	r3, [r7, #4]
 80051a8:	699b      	ldr	r3, [r3, #24]
 80051aa:	2b00      	cmp	r3, #0
 80051ac:	d019      	beq.n	80051e2 <HAL_RCC_OscConfig+0x24a>
 80051ae:	4b17      	ldr	r3, [pc, #92]	@ (800520c <HAL_RCC_OscConfig+0x274>)
 80051b0:	2201      	movs	r2, #1
 80051b2:	601a      	str	r2, [r3, #0]
 80051b4:	f7fd ff3c 	bl	8003030 <HAL_GetTick>
 80051b8:	6138      	str	r0, [r7, #16]
 80051ba:	e008      	b.n	80051ce <HAL_RCC_OscConfig+0x236>
 80051bc:	f7fd ff38 	bl	8003030 <HAL_GetTick>
 80051c0:	4602      	mov	r2, r0
 80051c2:	693b      	ldr	r3, [r7, #16]
 80051c4:	1ad3      	subs	r3, r2, r3
 80051c6:	2b02      	cmp	r3, #2
 80051c8:	d901      	bls.n	80051ce <HAL_RCC_OscConfig+0x236>
 80051ca:	2303      	movs	r3, #3
 80051cc:	e160      	b.n	8005490 <HAL_RCC_OscConfig+0x4f8>
 80051ce:	4b0d      	ldr	r3, [pc, #52]	@ (8005204 <HAL_RCC_OscConfig+0x26c>)
 80051d0:	6a5b      	ldr	r3, [r3, #36]	@ 0x24
 80051d2:	f003 0302 	and.w	r3, r3, #2
 80051d6:	2b00      	cmp	r3, #0
 80051d8:	d0f0      	beq.n	80051bc <HAL_RCC_OscConfig+0x224>
 80051da:	2001      	movs	r0, #1
 80051dc:	f000 face 	bl	800577c <RCC_Delay>
 80051e0:	e01c      	b.n	800521c <HAL_RCC_OscConfig+0x284>
 80051e2:	4b0a      	ldr	r3, [pc, #40]	@ (800520c <HAL_RCC_OscConfig+0x274>)
 80051e4:	2200      	movs	r2, #0
 80051e6:	601a      	str	r2, [r3, #0]
 80051e8:	f7fd ff22 	bl	8003030 <HAL_GetTick>
 80051ec:	6138      	str	r0, [r7, #16]
 80051ee:	e00f      	b.n	8005210 <HAL_RCC_OscConfig+0x278>
 80051f0:	f7fd ff1e 	bl	8003030 <HAL_GetTick>
 80051f4:	4602      	mov	r2, r0
 80051f6:	693b      	ldr	r3, [r7, #16]
 80051f8:	1ad3      	subs	r3, r2, r3
 80051fa:	2b02      	cmp	r3, #2
 80051fc:	d908      	bls.n	8005210 <HAL_RCC_OscConfig+0x278>
 80051fe:	2303      	movs	r3, #3
 8005200:	e146      	b.n	8005490 <HAL_RCC_OscConfig+0x4f8>
 8005202:	bf00      	nop
 8005204:	40021000 	.word	0x40021000
 8005208:	42420000 	.word	0x42420000
 800520c:	42420480 	.word	0x42420480
 8005210:	4b92      	ldr	r3, [pc, #584]	@ (800545c <HAL_RCC_OscConfig+0x4c4>)
 8005212:	6a5b      	ldr	r3, [r3, #36]	@ 0x24
 8005214:	f003 0302 	and.w	r3, r3, #2
 8005218:	2b00      	cmp	r3, #0
 800521a:	d1e9      	bne.n	80051f0 <HAL_RCC_OscConfig+0x258>
 800521c:	687b      	ldr	r3, [r7, #4]
 800521e:	681b      	ldr	r3, [r3, #0]
 8005220:	f003 0304 	and.w	r3, r3, #4
 8005224:	2b00      	cmp	r3, #0
 8005226:	f000 80a6 	beq.w	8005376 <HAL_RCC_OscConfig+0x3de>
 800522a:	2300      	movs	r3, #0
 800522c:	75fb      	strb	r3, [r7, #23]
 800522e:	4b8b      	ldr	r3, [pc, #556]	@ (800545c <HAL_RCC_OscConfig+0x4c4>)
 8005230:	69db      	ldr	r3, [r3, #28]
 8005232:	f003 5380 	and.w	r3, r3, #268435456	@ 0x10000000
 8005236:	2b00      	cmp	r3, #0
 8005238:	d10d      	bne.n	8005256 <HAL_RCC_OscConfig+0x2be>
 800523a:	4b88      	ldr	r3, [pc, #544]	@ (800545c <HAL_RCC_OscConfig+0x4c4>)
 800523c:	69db      	ldr	r3, [r3, #28]
 800523e:	4a87      	ldr	r2, [pc, #540]	@ (800545c <HAL_RCC_OscConfig+0x4c4>)
 8005240:	f043 5380 	orr.w	r3, r3, #268435456	@ 0x10000000
 8005244:	61d3      	str	r3, [r2, #28]
 8005246:	4b85      	ldr	r3, [pc, #532]	@ (800545c <HAL_RCC_OscConfig+0x4c4>)
 8005248:	69db      	ldr	r3, [r3, #28]
 800524a:	f003 5380 	and.w	r3, r3, #268435456	@ 0x10000000
 800524e:	60bb      	str	r3, [r7, #8]
 8005250:	68bb      	ldr	r3, [r7, #8]
 8005252:	2301      	movs	r3, #1
 8005254:	75fb      	strb	r3, [r7, #23]
 8005256:	4b82      	ldr	r3, [pc, #520]	@ (8005460 <HAL_RCC_OscConfig+0x4c8>)
 8005258:	681b      	ldr	r3, [r3, #0]
 800525a:	f403 7380 	and.w	r3, r3, #256	@ 0x100
 800525e:	2b00      	cmp	r3, #0
 8005260:	d118      	bne.n	8005294 <HAL_RCC_OscConfig+0x2fc>
 8005262:	4b7f      	ldr	r3, [pc, #508]	@ (8005460 <HAL_RCC_OscConfig+0x4c8>)
 8005264:	681b      	ldr	r3, [r3, #0]
 8005266:	4a7e      	ldr	r2, [pc, #504]	@ (8005460 <HAL_RCC_OscConfig+0x4c8>)
 8005268:	f443 7380 	orr.w	r3, r3, #256	@ 0x100
 800526c:	6013      	str	r3, [r2, #0]
 800526e:	f7fd fedf 	bl	8003030 <HAL_GetTick>
 8005272:	6138      	str	r0, [r7, #16]
 8005274:	e008      	b.n	8005288 <HAL_RCC_OscConfig+0x2f0>
 8005276:	f7fd fedb 	bl	8003030 <HAL_GetTick>
 800527a:	4602      	mov	r2, r0
 800527c:	693b      	ldr	r3, [r7, #16]
 800527e:	1ad3      	subs	r3, r2, r3
 8005280:	2b64      	cmp	r3, #100	@ 0x64
 8005282:	d901      	bls.n	8005288 <HAL_RCC_OscConfig+0x2f0>
 8005284:	2303      	movs	r3, #3
 8005286:	e103      	b.n	8005490 <HAL_RCC_OscConfig+0x4f8>
 8005288:	4b75      	ldr	r3, [pc, #468]	@ (8005460 <HAL_RCC_OscConfig+0x4c8>)
 800528a:	681b      	ldr	r3, [r3, #0]
 800528c:	f403 7380 	and.w	r3, r3, #256	@ 0x100
 8005290:	2b00      	cmp	r3, #0
 8005292:	d0f0      	beq.n	8005276 <HAL_RCC_OscConfig+0x2de>
 8005294:	687b      	ldr	r3, [r7, #4]
 8005296:	68db      	ldr	r3, [r3, #12]
 8005298:	2b01      	cmp	r3, #1
 800529a:	d106      	bne.n	80052aa <HAL_RCC_OscConfig+0x312>
 800529c:	4b6f      	ldr	r3, [pc, #444]	@ (800545c <HAL_RCC_OscConfig+0x4c4>)
 800529e:	6a1b      	ldr	r3, [r3, #32]
 80052a0:	4a6e      	ldr	r2, [pc, #440]	@ (800545c <HAL_RCC_OscConfig+0x4c4>)
 80052a2:	f043 0301 	orr.w	r3, r3, #1
 80052a6:	6213      	str	r3, [r2, #32]
 80052a8:	e02d      	b.n	8005306 <HAL_RCC_OscConfig+0x36e>
 80052aa:	687b      	ldr	r3, [r7, #4]
 80052ac:	68db      	ldr	r3, [r3, #12]
 80052ae:	2b00      	cmp	r3, #0
 80052b0:	d10c      	bne.n	80052cc <HAL_RCC_OscConfig+0x334>
 80052b2:	4b6a      	ldr	r3, [pc, #424]	@ (800545c <HAL_RCC_OscConfig+0x4c4>)
 80052b4:	6a1b      	ldr	r3, [r3, #32]
 80052b6:	4a69      	ldr	r2, [pc, #420]	@ (800545c <HAL_RCC_OscConfig+0x4c4>)
 80052b8:	f023 0301 	bic.w	r3, r3, #1
 80052bc:	6213      	str	r3, [r2, #32]
 80052be:	4b67      	ldr	r3, [pc, #412]	@ (800545c <HAL_RCC_OscConfig+0x4c4>)
 80052c0:	6a1b      	ldr	r3, [r3, #32]
 80052c2:	4a66      	ldr	r2, [pc, #408]	@ (800545c <HAL_RCC_OscConfig+0x4c4>)
 80052c4:	f023 0304 	bic.w	r3, r3, #4
 80052c8:	6213      	str	r3, [r2, #32]
 80052ca:	e01c      	b.n	8005306 <HAL_RCC_OscConfig+0x36e>
 80052cc:	687b      	ldr	r3, [r7, #4]
 80052ce:	68db      	ldr	r3, [r3, #12]
 80052d0:	2b05      	cmp	r3, #5
 80052d2:	d10c      	bne.n	80052ee <HAL_RCC_OscConfig+0x356>
 80052d4:	4b61      	ldr	r3, [pc, #388]	@ (800545c <HAL_RCC_OscConfig+0x4c4>)
 80052d6:	6a1b      	ldr	r3, [r3, #32]
 80052d8:	4a60      	ldr	r2, [pc, #384]	@ (800545c <HAL_RCC_OscConfig+0x4c4>)
 80052da:	f043 0304 	orr.w	r3, r3, #4
 80052de:	6213      	str	r3, [r2, #32]
 80052e0:	4b5e      	ldr	r3, [pc, #376]	@ (800545c <HAL_RCC_OscConfig+0x4c4>)
 80052e2:	6a1b      	ldr	r3, [r3, #32]
 80052e4:	4a5d      	ldr	r2, [pc, #372]	@ (800545c <HAL_RCC_OscConfig+0x4c4>)
 80052e6:	f043 0301 	orr.w	r3, r3, #1
 80052ea:	6213      	str	r3, [r2, #32]
 80052ec:	e00b      	b.n	8005306 <HAL_RCC_OscConfig+0x36e>
 80052ee:	4b5b      	ldr	r3, [pc, #364]	@ (800545c <HAL_RCC_OscConfig+0x4c4>)
 80052f0:	6a1b      	ldr	r3, [r3, #32]
 80052f2:	4a5a      	ldr	r2, [pc, #360]	@ (800545c <HAL_RCC_OscConfig+0x4c4>)
 80052f4:	f023 0301 	bic.w	r3, r3, #1
 80052f8:	6213      	str	r3, [r2, #32]
 80052fa:	4b58      	ldr	r3, [pc, #352]	@ (800545c <HAL_RCC_OscConfig+0x4c4>)
 80052fc:	6a1b      	ldr	r3, [r3, #32]
 80052fe:	4a57      	ldr	r2, [pc, #348]	@ (800545c <HAL_RCC_OscConfig+0x4c4>)
 8005300:	f023 0304 	bic.w	r3, r3, #4
 8005304:	6213      	str	r3, [r2, #32]
 8005306:	687b      	ldr	r3, [r7, #4]
 8005308:	68db      	ldr	r3, [r3, #12]
 800530a:	2b00      	cmp	r3, #0
 800530c:	d015      	beq.n	800533a <HAL_RCC_OscConfig+0x3a2>
 800530e:	f7fd fe8f 	bl	8003030 <HAL_GetTick>
 8005312:	6138      	str	r0, [r7, #16]
 8005314:	e00a      	b.n	800532c <HAL_RCC_OscConfig+0x394>
 8005316:	f7fd fe8b 	bl	8003030 <HAL_GetTick>
 800531a:	4602      	mov	r2, r0
 800531c:	693b      	ldr	r3, [r7, #16]
 800531e:	1ad3      	subs	r3, r2, r3
 8005320:	f241 3288 	movw	r2, #5000	@ 0x1388
 8005324:	4293      	cmp	r3, r2
 8005326:	d901      	bls.n	800532c <HAL_RCC_OscConfig+0x394>
 8005328:	2303      	movs	r3, #3
 800532a:	e0b1      	b.n	8005490 <HAL_RCC_OscConfig+0x4f8>
 800532c:	4b4b      	ldr	r3, [pc, #300]	@ (800545c <HAL_RCC_OscConfig+0x4c4>)
 800532e:	6a1b      	ldr	r3, [r3, #32]
 8005330:	f003 0302 	and.w	r3, r3, #2
 8005334:	2b00      	cmp	r3, #0
 8005336:	d0ee      	beq.n	8005316 <HAL_RCC_OscConfig+0x37e>
 8005338:	e014      	b.n	8005364 <HAL_RCC_OscConfig+0x3cc>
 800533a:	f7fd fe79 	bl	8003030 <HAL_GetTick>
 800533e:	6138      	str	r0, [r7, #16]
 8005340:	e00a      	b.n	8005358 <HAL_RCC_OscConfig+0x3c0>
 8005342:	f7fd fe75 	bl	8003030 <HAL_GetTick>
 8005346:	4602      	mov	r2, r0
 8005348:	693b      	ldr	r3, [r7, #16]
 800534a:	1ad3      	subs	r3, r2, r3
 800534c:	f241 3288 	movw	r2, #5000	@ 0x1388
 8005350:	4293      	cmp	r3, r2
 8005352:	d901      	bls.n	8005358 <HAL_RCC_OscConfig+0x3c0>
 8005354:	2303      	movs	r3, #3
 8005356:	e09b      	b.n	8005490 <HAL_RCC_OscConfig+0x4f8>
 8005358:	4b40      	ldr	r3, [pc, #256]	@ (800545c <HAL_RCC_OscConfig+0x4c4>)
 800535a:	6a1b      	ldr	r3, [r3, #32]
 800535c:	f003 0302 	and.w	r3, r3, #2
 8005360:	2b00      	cmp	r3, #0
 8005362:	d1ee      	bne.n	8005342 <HAL_RCC_OscConfig+0x3aa>
 8005364:	7dfb      	ldrb	r3, [r7, #23]
 8005366:	2b01      	cmp	r3, #1
 8005368:	d105      	bne.n	8005376 <HAL_RCC_OscConfig+0x3de>
 800536a:	4b3c      	ldr	r3, [pc, #240]	@ (800545c <HAL_RCC_OscConfig+0x4c4>)
 800536c:	69db      	ldr	r3, [r3, #28]
 800536e:	4a3b      	ldr	r2, [pc, #236]	@ (800545c <HAL_RCC_OscConfig+0x4c4>)
 8005370:	f023 5380 	bic.w	r3, r3, #268435456	@ 0x10000000
 8005374:	61d3      	str	r3, [r2, #28]
 8005376:	687b      	ldr	r3, [r7, #4]
 8005378:	69db      	ldr	r3, [r3, #28]
 800537a:	2b00      	cmp	r3, #0
 800537c:	f000 8087 	beq.w	800548e <HAL_RCC_OscConfig+0x4f6>
 8005380:	4b36      	ldr	r3, [pc, #216]	@ (800545c <HAL_RCC_OscConfig+0x4c4>)
 8005382:	685b      	ldr	r3, [r3, #4]
 8005384:	f003 030c 	and.w	r3, r3, #12
 8005388:	2b08      	cmp	r3, #8
 800538a:	d061      	beq.n	8005450 <HAL_RCC_OscConfig+0x4b8>
 800538c:	687b      	ldr	r3, [r7, #4]
 800538e:	69db      	ldr	r3, [r3, #28]
 8005390:	2b02      	cmp	r3, #2
 8005392:	d146      	bne.n	8005422 <HAL_RCC_OscConfig+0x48a>
 8005394:	4b33      	ldr	r3, [pc, #204]	@ (8005464 <HAL_RCC_OscConfig+0x4cc>)
 8005396:	2200      	movs	r2, #0
 8005398:	601a      	str	r2, [r3, #0]
 800539a:	f7fd fe49 	bl	8003030 <HAL_GetTick>
 800539e:	6138      	str	r0, [r7, #16]
 80053a0:	e008      	b.n	80053b4 <HAL_RCC_OscConfig+0x41c>
 80053a2:	f7fd fe45 	bl	8003030 <HAL_GetTick>
 80053a6:	4602      	mov	r2, r0
 80053a8:	693b      	ldr	r3, [r7, #16]
 80053aa:	1ad3      	subs	r3, r2, r3
 80053ac:	2b02      	cmp	r3, #2
 80053ae:	d901      	bls.n	80053b4 <HAL_RCC_OscConfig+0x41c>
 80053b0:	2303      	movs	r3, #3
 80053b2:	e06d      	b.n	8005490 <HAL_RCC_OscConfig+0x4f8>
 80053b4:	4b29      	ldr	r3, [pc, #164]	@ (800545c <HAL_RCC_OscConfig+0x4c4>)
 80053b6:	681b      	ldr	r3, [r3, #0]
 80053b8:	f003 7300 	and.w	r3, r3, #33554432	@ 0x2000000
 80053bc:	2b00      	cmp	r3, #0
 80053be:	d1f0      	bne.n	80053a2 <HAL_RCC_OscConfig+0x40a>
 80053c0:	687b      	ldr	r3, [r7, #4]
 80053c2:	6a1b      	ldr	r3, [r3, #32]
 80053c4:	f5b3 3f80 	cmp.w	r3, #65536	@ 0x10000
 80053c8:	d108      	bne.n	80053dc <HAL_RCC_OscConfig+0x444>
 80053ca:	4b24      	ldr	r3, [pc, #144]	@ (800545c <HAL_RCC_OscConfig+0x4c4>)
 80053cc:	685b      	ldr	r3, [r3, #4]
 80053ce:	f423 3200 	bic.w	r2, r3, #131072	@ 0x20000
 80053d2:	687b      	ldr	r3, [r7, #4]
 80053d4:	689b      	ldr	r3, [r3, #8]
 80053d6:	4921      	ldr	r1, [pc, #132]	@ (800545c <HAL_RCC_OscConfig+0x4c4>)
 80053d8:	4313      	orrs	r3, r2
 80053da:	604b      	str	r3, [r1, #4]
 80053dc:	4b1f      	ldr	r3, [pc, #124]	@ (800545c <HAL_RCC_OscConfig+0x4c4>)
 80053de:	685b      	ldr	r3, [r3, #4]
 80053e0:	f423 1274 	bic.w	r2, r3, #3997696	@ 0x3d0000
 80053e4:	687b      	ldr	r3, [r7, #4]
 80053e6:	6a19      	ldr	r1, [r3, #32]
 80053e8:	687b      	ldr	r3, [r7, #4]
 80053ea:	6a5b      	ldr	r3, [r3, #36]	@ 0x24
 80053ec:	430b      	orrs	r3, r1
 80053ee:	491b      	ldr	r1, [pc, #108]	@ (800545c <HAL_RCC_OscConfig+0x4c4>)
 80053f0:	4313      	orrs	r3, r2
 80053f2:	604b      	str	r3, [r1, #4]
 80053f4:	4b1b      	ldr	r3, [pc, #108]	@ (8005464 <HAL_RCC_OscConfig+0x4cc>)
 80053f6:	2201      	movs	r2, #1
 80053f8:	601a      	str	r2, [r3, #0]
 80053fa:	f7fd fe19 	bl	8003030 <HAL_GetTick>
 80053fe:	6138      	str	r0, [r7, #16]
 8005400:	e008      	b.n	8005414 <HAL_RCC_OscConfig+0x47c>
 8005402:	f7fd fe15 	bl	8003030 <HAL_GetTick>
 8005406:	4602      	mov	r2, r0
 8005408:	693b      	ldr	r3, [r7, #16]
 800540a:	1ad3      	subs	r3, r2, r3
 800540c:	2b02      	cmp	r3, #2
 800540e:	d901      	bls.n	8005414 <HAL_RCC_OscConfig+0x47c>
 8005410:	2303      	movs	r3, #3
 8005412:	e03d      	b.n	8005490 <HAL_RCC_OscConfig+0x4f8>
 8005414:	4b11      	ldr	r3, [pc, #68]	@ (800545c <HAL_RCC_OscConfig+0x4c4>)
 8005416:	681b      	ldr	r3, [r3, #0]
 8005418:	f003 7300 	and.w	r3, r3, #33554432	@ 0x2000000
 800541c:	2b00      	cmp	r3, #0
 800541e:	d0f0      	beq.n	8005402 <HAL_RCC_OscConfig+0x46a>
 8005420:	e035      	b.n	800548e <HAL_RCC_OscConfig+0x4f6>
 8005422:	4b10      	ldr	r3, [pc, #64]	@ (8005464 <HAL_RCC_OscConfig+0x4cc>)
 8005424:	2200      	movs	r2, #0
 8005426:	601a      	str	r2, [r3, #0]
 8005428:	f7fd fe02 	bl	8003030 <HAL_GetTick>
 800542c:	6138      	str	r0, [r7, #16]
 800542e:	e008      	b.n	8005442 <HAL_RCC_OscConfig+0x4aa>
 8005430:	f7fd fdfe 	bl	8003030 <HAL_GetTick>
 8005434:	4602      	mov	r2, r0
 8005436:	693b      	ldr	r3, [r7, #16]
 8005438:	1ad3      	subs	r3, r2, r3
 800543a:	2b02      	cmp	r3, #2
 800543c:	d901      	bls.n	8005442 <HAL_RCC_OscConfig+0x4aa>
 800543e:	2303      	movs	r3, #3
 8005440:	e026      	b.n	8005490 <HAL_RCC_OscConfig+0x4f8>
 8005442:	4b06      	ldr	r3, [pc, #24]	@ (800545c <HAL_RCC_OscConfig+0x4c4>)
 8005444:	681b      	ldr	r3, [r3, #0]
 8005446:	f003 7300 	and.w	r3, r3, #33554432	@ 0x2000000
 800544a:	2b00      	cmp	r3, #0
 800544c:	d1f0      	bne.n	8005430 <HAL_RCC_OscConfig+0x498>
 800544e:	e01e      	b.n	800548e <HAL_RCC_OscConfig+0x4f6>
 8005450:	687b      	ldr	r3, [r7, #4]
 8005452:	69db      	ldr	r3, [r3, #28]
 8005454:	2b01      	cmp	r3, #1
 8005456:	d107      	bne.n	8005468 <HAL_RCC_OscConfig+0x4d0>
 8005458:	2301      	movs	r3, #1
 800545a:	e019      	b.n	8005490 <HAL_RCC_OscConfig+0x4f8>
 800545c:	40021000 	.word	0x40021000
 8005460:	40007000 	.word	0x40007000
 8005464:	42420060 	.word	0x42420060
 8005468:	4b0b      	ldr	r3, [pc, #44]	@ (8005498 <HAL_RCC_OscConfig+0x500>)
 800546a:	685b      	ldr	r3, [r3, #4]
 800546c:	60fb      	str	r3, [r7, #12]
 800546e:	68fb      	ldr	r3, [r7, #12]
 8005470:	f403 3280 	and.w	r2, r3, #65536	@ 0x10000
 8005474:	687b      	ldr	r3, [r7, #4]
 8005476:	6a1b      	ldr	r3, [r3, #32]
 8005478:	429a      	cmp	r2, r3
 800547a:	d106      	bne.n	800548a <HAL_RCC_OscConfig+0x4f2>
 800547c:	68fb      	ldr	r3, [r7, #12]
 800547e:	f403 1270 	and.w	r2, r3, #3932160	@ 0x3c0000
 8005482:	687b      	ldr	r3, [r7, #4]
 8005484:	6a5b      	ldr	r3, [r3, #36]	@ 0x24
 8005486:	429a      	cmp	r2, r3
 8005488:	d001      	beq.n	800548e <HAL_RCC_OscConfig+0x4f6>
 800548a:	2301      	movs	r3, #1
 800548c:	e000      	b.n	8005490 <HAL_RCC_OscConfig+0x4f8>
 800548e:	2300      	movs	r3, #0
 8005490:	4618      	mov	r0, r3
 8005492:	3718      	adds	r7, #24
 8005494:	46bd      	mov	sp, r7
 8005496:	bd80      	pop	{r7, pc}
 8005498:	40021000 	.word	0x40021000

0800549c <HAL_RCC_ClockConfig>:
 800549c:	b580      	push	{r7, lr}
 800549e:	b084      	sub	sp, #16
 80054a0:	af00      	add	r7, sp, #0
 80054a2:	6078      	str	r0, [r7, #4]
 80054a4:	6039      	str	r1, [r7, #0]
 80054a6:	687b      	ldr	r3, [r7, #4]
 80054a8:	2b00      	cmp	r3, #0
 80054aa:	d101      	bne.n	80054b0 <HAL_RCC_ClockConfig+0x14>
 80054ac:	2301      	movs	r3, #1
 80054ae:	e0d0      	b.n	8005652 <HAL_RCC_ClockConfig+0x1b6>
 80054b0:	4b6a      	ldr	r3, [pc, #424]	@ (800565c <HAL_RCC_ClockConfig+0x1c0>)
 80054b2:	681b      	ldr	r3, [r3, #0]
 80054b4:	f003 0307 	and.w	r3, r3, #7
 80054b8:	683a      	ldr	r2, [r7, #0]
 80054ba:	429a      	cmp	r2, r3
 80054bc:	d910      	bls.n	80054e0 <HAL_RCC_ClockConfig+0x44>
 80054be:	4b67      	ldr	r3, [pc, #412]	@ (800565c <HAL_RCC_ClockConfig+0x1c0>)
 80054c0:	681b      	ldr	r3, [r3, #0]
 80054c2:	f023 0207 	bic.w	r2, r3, #7
 80054c6:	4965      	ldr	r1, [pc, #404]	@ (800565c <HAL_RCC_ClockConfig+0x1c0>)
 80054c8:	683b      	ldr	r3, [r7, #0]
 80054ca:	4313      	orrs	r3, r2
 80054cc:	600b      	str	r3, [r1, #0]
 80054ce:	4b63      	ldr	r3, [pc, #396]	@ (800565c <HAL_RCC_ClockConfig+0x1c0>)
 80054d0:	681b      	ldr	r3, [r3, #0]
 80054d2:	f003 0307 	and.w	r3, r3, #7
 80054d6:	683a      	ldr	r2, [r7, #0]
 80054d8:	429a      	cmp	r2, r3
 80054da:	d001      	beq.n	80054e0 <HAL_RCC_ClockConfig+0x44>
 80054dc:	2301      	movs	r3, #1
 80054de:	e0b8      	b.n	8005652 <HAL_RCC_ClockConfig+0x1b6>
 80054e0:	687b      	ldr	r3, [r7, #4]
 80054e2:	681b      	ldr	r3, [r3, #0]
 80054e4:	f003 0302 	and.w	r3, r3, #2
 80054e8:	2b00      	cmp	r3, #0
 80054ea:	d020      	beq.n	800552e <HAL_RCC_ClockConfig+0x92>
 80054ec:	687b      	ldr	r3, [r7, #4]
 80054ee:	681b      	ldr	r3, [r3, #0]
 80054f0:	f003 0304 	and.w	r3, r3, #4
 80054f4:	2b00      	cmp	r3, #0
 80054f6:	d005      	beq.n	8005504 <HAL_RCC_ClockConfig+0x68>
 80054f8:	4b59      	ldr	r3, [pc, #356]	@ (8005660 <HAL_RCC_ClockConfig+0x1c4>)
 80054fa:	685b      	ldr	r3, [r3, #4]
 80054fc:	4a58      	ldr	r2, [pc, #352]	@ (8005660 <HAL_RCC_ClockConfig+0x1c4>)
 80054fe:	f443 63e0 	orr.w	r3, r3, #1792	@ 0x700
 8005502:	6053      	str	r3, [r2, #4]
 8005504:	687b      	ldr	r3, [r7, #4]
 8005506:	681b      	ldr	r3, [r3, #0]
 8005508:	f003 0308 	and.w	r3, r3, #8
 800550c:	2b00      	cmp	r3, #0
 800550e:	d005      	beq.n	800551c <HAL_RCC_ClockConfig+0x80>
 8005510:	4b53      	ldr	r3, [pc, #332]	@ (8005660 <HAL_RCC_ClockConfig+0x1c4>)
 8005512:	685b      	ldr	r3, [r3, #4]
 8005514:	4a52      	ldr	r2, [pc, #328]	@ (8005660 <HAL_RCC_ClockConfig+0x1c4>)
 8005516:	f443 5360 	orr.w	r3, r3, #14336	@ 0x3800
 800551a:	6053      	str	r3, [r2, #4]
 800551c:	4b50      	ldr	r3, [pc, #320]	@ (8005660 <HAL_RCC_ClockConfig+0x1c4>)
 800551e:	685b      	ldr	r3, [r3, #4]
 8005520:	f023 02f0 	bic.w	r2, r3, #240	@ 0xf0
 8005524:	687b      	ldr	r3, [r7, #4]
 8005526:	689b      	ldr	r3, [r3, #8]
 8005528:	494d      	ldr	r1, [pc, #308]	@ (8005660 <HAL_RCC_ClockConfig+0x1c4>)
 800552a:	4313      	orrs	r3, r2
 800552c:	604b      	str	r3, [r1, #4]
 800552e:	687b      	ldr	r3, [r7, #4]
 8005530:	681b      	ldr	r3, [r3, #0]
 8005532:	f003 0301 	and.w	r3, r3, #1
 8005536:	2b00      	cmp	r3, #0
 8005538:	d040      	beq.n	80055bc <HAL_RCC_ClockConfig+0x120>
 800553a:	687b      	ldr	r3, [r7, #4]
 800553c:	685b      	ldr	r3, [r3, #4]
 800553e:	2b01      	cmp	r3, #1
 8005540:	d107      	bne.n	8005552 <HAL_RCC_ClockConfig+0xb6>
 8005542:	4b47      	ldr	r3, [pc, #284]	@ (8005660 <HAL_RCC_ClockConfig+0x1c4>)
 8005544:	681b      	ldr	r3, [r3, #0]
 8005546:	f403 3300 	and.w	r3, r3, #131072	@ 0x20000
 800554a:	2b00      	cmp	r3, #0
 800554c:	d115      	bne.n	800557a <HAL_RCC_ClockConfig+0xde>
 800554e:	2301      	movs	r3, #1
 8005550:	e07f      	b.n	8005652 <HAL_RCC_ClockConfig+0x1b6>
 8005552:	687b      	ldr	r3, [r7, #4]
 8005554:	685b      	ldr	r3, [r3, #4]
 8005556:	2b02      	cmp	r3, #2
 8005558:	d107      	bne.n	800556a <HAL_RCC_ClockConfig+0xce>
 800555a:	4b41      	ldr	r3, [pc, #260]	@ (8005660 <HAL_RCC_ClockConfig+0x1c4>)
 800555c:	681b      	ldr	r3, [r3, #0]
 800555e:	f003 7300 	and.w	r3, r3, #33554432	@ 0x2000000
 8005562:	2b00      	cmp	r3, #0
 8005564:	d109      	bne.n	800557a <HAL_RCC_ClockConfig+0xde>
 8005566:	2301      	movs	r3, #1
 8005568:	e073      	b.n	8005652 <HAL_RCC_ClockConfig+0x1b6>
 800556a:	4b3d      	ldr	r3, [pc, #244]	@ (8005660 <HAL_RCC_ClockConfig+0x1c4>)
 800556c:	681b      	ldr	r3, [r3, #0]
 800556e:	f003 0302 	and.w	r3, r3, #2
 8005572:	2b00      	cmp	r3, #0
 8005574:	d101      	bne.n	800557a <HAL_RCC_ClockConfig+0xde>
 8005576:	2301      	movs	r3, #1
 8005578:	e06b      	b.n	8005652 <HAL_RCC_ClockConfig+0x1b6>
 800557a:	4b39      	ldr	r3, [pc, #228]	@ (8005660 <HAL_RCC_ClockConfig+0x1c4>)
 800557c:	685b      	ldr	r3, [r3, #4]
 800557e:	f023 0203 	bic.w	r2, r3, #3
 8005582:	687b      	ldr	r3, [r7, #4]
 8005584:	685b      	ldr	r3, [r3, #4]
 8005586:	4936      	ldr	r1, [pc, #216]	@ (8005660 <HAL_RCC_ClockConfig+0x1c4>)
 8005588:	4313      	orrs	r3, r2
 800558a:	604b      	str	r3, [r1, #4]
 800558c:	f7fd fd50 	bl	8003030 <HAL_GetTick>
 8005590:	60f8      	str	r0, [r7, #12]
 8005592:	e00a      	b.n	80055aa <HAL_RCC_ClockConfig+0x10e>
 8005594:	f7fd fd4c 	bl	8003030 <HAL_GetTick>
 8005598:	4602      	mov	r2, r0
 800559a:	68fb      	ldr	r3, [r7, #12]
 800559c:	1ad3      	subs	r3, r2, r3
 800559e:	f241 3288 	movw	r2, #5000	@ 0x1388
 80055a2:	4293      	cmp	r3, r2
 80055a4:	d901      	bls.n	80055aa <HAL_RCC_ClockConfig+0x10e>
 80055a6:	2303      	movs	r3, #3
 80055a8:	e053      	b.n	8005652 <HAL_RCC_ClockConfig+0x1b6>
 80055aa:	4b2d      	ldr	r3, [pc, #180]	@ (8005660 <HAL_RCC_ClockConfig+0x1c4>)
 80055ac:	685b      	ldr	r3, [r3, #4]
 80055ae:	f003 020c 	and.w	r2, r3, #12
 80055b2:	687b      	ldr	r3, [r7, #4]
 80055b4:	685b      	ldr	r3, [r3, #4]
 80055b6:	009b      	lsls	r3, r3, #2
 80055b8:	429a      	cmp	r2, r3
 80055ba:	d1eb      	bne.n	8005594 <HAL_RCC_ClockConfig+0xf8>
 80055bc:	4b27      	ldr	r3, [pc, #156]	@ (800565c <HAL_RCC_ClockConfig+0x1c0>)
 80055be:	681b      	ldr	r3, [r3, #0]
 80055c0:	f003 0307 	and.w	r3, r3, #7
 80055c4:	683a      	ldr	r2, [r7, #0]
 80055c6:	429a      	cmp	r2, r3
 80055c8:	d210      	bcs.n	80055ec <HAL_RCC_ClockConfig+0x150>
 80055ca:	4b24      	ldr	r3, [pc, #144]	@ (800565c <HAL_RCC_ClockConfig+0x1c0>)
 80055cc:	681b      	ldr	r3, [r3, #0]
 80055ce:	f023 0207 	bic.w	r2, r3, #7
 80055d2:	4922      	ldr	r1, [pc, #136]	@ (800565c <HAL_RCC_ClockConfig+0x1c0>)
 80055d4:	683b      	ldr	r3, [r7, #0]
 80055d6:	4313      	orrs	r3, r2
 80055d8:	600b      	str	r3, [r1, #0]
 80055da:	4b20      	ldr	r3, [pc, #128]	@ (800565c <HAL_RCC_ClockConfig+0x1c0>)
 80055dc:	681b      	ldr	r3, [r3, #0]
 80055de:	f003 0307 	and.w	r3, r3, #7
 80055e2:	683a      	ldr	r2, [r7, #0]
 80055e4:	429a      	cmp	r2, r3
 80055e6:	d001      	beq.n	80055ec <HAL_RCC_ClockConfig+0x150>
 80055e8:	2301      	movs	r3, #1
 80055ea:	e032      	b.n	8005652 <HAL_RCC_ClockConfig+0x1b6>
 80055ec:	687b      	ldr	r3, [r7, #4]
 80055ee:	681b      	ldr	r3, [r3, #0]
 80055f0:	f003 0304 	and.w	r3, r3, #4
 80055f4:	2b00      	cmp	r3, #0
 80055f6:	d008      	beq.n	800560a <HAL_RCC_ClockConfig+0x16e>
 80055f8:	4b19      	ldr	r3, [pc, #100]	@ (8005660 <HAL_RCC_ClockConfig+0x1c4>)
 80055fa:	685b      	ldr	r3, [r3, #4]
 80055fc:	f423 62e0 	bic.w	r2, r3, #1792	@ 0x700
 8005600:	687b      	ldr	r3, [r7, #4]
 8005602:	68db      	ldr	r3, [r3, #12]
 8005604:	4916      	ldr	r1, [pc, #88]	@ (8005660 <HAL_RCC_ClockConfig+0x1c4>)
 8005606:	4313      	orrs	r3, r2
 8005608:	604b      	str	r3, [r1, #4]
 800560a:	687b      	ldr	r3, [r7, #4]
 800560c:	681b      	ldr	r3, [r3, #0]
 800560e:	f003 0308 	and.w	r3, r3, #8
 8005612:	2b00      	cmp	r3, #0
 8005614:	d009      	beq.n	800562a <HAL_RCC_ClockConfig+0x18e>
 8005616:	4b12      	ldr	r3, [pc, #72]	@ (8005660 <HAL_RCC_ClockConfig+0x1c4>)
 8005618:	685b      	ldr	r3, [r3, #4]
 800561a:	f423 5260 	bic.w	r2, r3, #14336	@ 0x3800
 800561e:	687b      	ldr	r3, [r7, #4]
 8005620:	691b      	ldr	r3, [r3, #16]
 8005622:	00db      	lsls	r3, r3, #3
 8005624:	490e      	ldr	r1, [pc, #56]	@ (8005660 <HAL_RCC_ClockConfig+0x1c4>)
 8005626:	4313      	orrs	r3, r2
 8005628:	604b      	str	r3, [r1, #4]
 800562a:	f000 f821 	bl	8005670 <HAL_RCC_GetSysClockFreq>
 800562e:	4602      	mov	r2, r0
 8005630:	4b0b      	ldr	r3, [pc, #44]	@ (8005660 <HAL_RCC_ClockConfig+0x1c4>)
 8005632:	685b      	ldr	r3, [r3, #4]
 8005634:	091b      	lsrs	r3, r3, #4
 8005636:	f003 030f 	and.w	r3, r3, #15
 800563a:	490a      	ldr	r1, [pc, #40]	@ (8005664 <HAL_RCC_ClockConfig+0x1c8>)
 800563c:	5ccb      	ldrb	r3, [r1, r3]
 800563e:	fa22 f303 	lsr.w	r3, r2, r3
 8005642:	4a09      	ldr	r2, [pc, #36]	@ (8005668 <HAL_RCC_ClockConfig+0x1cc>)
 8005644:	6013      	str	r3, [r2, #0]
 8005646:	4b09      	ldr	r3, [pc, #36]	@ (800566c <HAL_RCC_ClockConfig+0x1d0>)
 8005648:	681b      	ldr	r3, [r3, #0]
 800564a:	4618      	mov	r0, r3
 800564c:	f7fd fcae 	bl	8002fac <HAL_InitTick>
 8005650:	2300      	movs	r3, #0
 8005652:	4618      	mov	r0, r3
 8005654:	3710      	adds	r7, #16
 8005656:	46bd      	mov	sp, r7
 8005658:	bd80      	pop	{r7, pc}
 800565a:	bf00      	nop
 800565c:	40022000 	.word	0x40022000
 8005660:	40021000 	.word	0x40021000
 8005664:	080091ec 	.word	0x080091ec
 8005668:	20000008 	.word	0x20000008
 800566c:	2000000c 	.word	0x2000000c

08005670 <HAL_RCC_GetSysClockFreq>:
 8005670:	b480      	push	{r7}
 8005672:	b087      	sub	sp, #28
 8005674:	af00      	add	r7, sp, #0
 8005676:	2300      	movs	r3, #0
 8005678:	60fb      	str	r3, [r7, #12]
 800567a:	2300      	movs	r3, #0
 800567c:	60bb      	str	r3, [r7, #8]
 800567e:	2300      	movs	r3, #0
 8005680:	617b      	str	r3, [r7, #20]
 8005682:	2300      	movs	r3, #0
 8005684:	607b      	str	r3, [r7, #4]
 8005686:	2300      	movs	r3, #0
 8005688:	613b      	str	r3, [r7, #16]
 800568a:	4b1e      	ldr	r3, [pc, #120]	@ (8005704 <HAL_RCC_GetSysClockFreq+0x94>)
 800568c:	685b      	ldr	r3, [r3, #4]
 800568e:	60fb      	str	r3, [r7, #12]
 8005690:	68fb      	ldr	r3, [r7, #12]
 8005692:	f003 030c 	and.w	r3, r3, #12
 8005696:	2b04      	cmp	r3, #4
 8005698:	d002      	beq.n	80056a0 <HAL_RCC_GetSysClockFreq+0x30>
 800569a:	2b08      	cmp	r3, #8
 800569c:	d003      	beq.n	80056a6 <HAL_RCC_GetSysClockFreq+0x36>
 800569e:	e027      	b.n	80056f0 <HAL_RCC_GetSysClockFreq+0x80>
 80056a0:	4b19      	ldr	r3, [pc, #100]	@ (8005708 <HAL_RCC_GetSysClockFreq+0x98>)
 80056a2:	613b      	str	r3, [r7, #16]
 80056a4:	e027      	b.n	80056f6 <HAL_RCC_GetSysClockFreq+0x86>
 80056a6:	68fb      	ldr	r3, [r7, #12]
 80056a8:	0c9b      	lsrs	r3, r3, #18
 80056aa:	f003 030f 	and.w	r3, r3, #15
 80056ae:	4a17      	ldr	r2, [pc, #92]	@ (800570c <HAL_RCC_GetSysClockFreq+0x9c>)
 80056b0:	5cd3      	ldrb	r3, [r2, r3]
 80056b2:	607b      	str	r3, [r7, #4]
 80056b4:	68fb      	ldr	r3, [r7, #12]
 80056b6:	f403 3380 	and.w	r3, r3, #65536	@ 0x10000
 80056ba:	2b00      	cmp	r3, #0
 80056bc:	d010      	beq.n	80056e0 <HAL_RCC_GetSysClockFreq+0x70>
 80056be:	4b11      	ldr	r3, [pc, #68]	@ (8005704 <HAL_RCC_GetSysClockFreq+0x94>)
 80056c0:	685b      	ldr	r3, [r3, #4]
 80056c2:	0c5b      	lsrs	r3, r3, #17
 80056c4:	f003 0301 	and.w	r3, r3, #1
 80056c8:	4a11      	ldr	r2, [pc, #68]	@ (8005710 <HAL_RCC_GetSysClockFreq+0xa0>)
 80056ca:	5cd3      	ldrb	r3, [r2, r3]
 80056cc:	60bb      	str	r3, [r7, #8]
 80056ce:	687b      	ldr	r3, [r7, #4]
 80056d0:	4a0d      	ldr	r2, [pc, #52]	@ (8005708 <HAL_RCC_GetSysClockFreq+0x98>)
 80056d2:	fb03 f202 	mul.w	r2, r3, r2
 80056d6:	68bb      	ldr	r3, [r7, #8]
 80056d8:	fbb2 f3f3 	udiv	r3, r2, r3
 80056dc:	617b      	str	r3, [r7, #20]
 80056de:	e004      	b.n	80056ea <HAL_RCC_GetSysClockFreq+0x7a>
 80056e0:	687b      	ldr	r3, [r7, #4]
 80056e2:	4a0c      	ldr	r2, [pc, #48]	@ (8005714 <HAL_RCC_GetSysClockFreq+0xa4>)
 80056e4:	fb02 f303 	mul.w	r3, r2, r3
 80056e8:	617b      	str	r3, [r7, #20]
 80056ea:	697b      	ldr	r3, [r7, #20]
 80056ec:	613b      	str	r3, [r7, #16]
 80056ee:	e002      	b.n	80056f6 <HAL_RCC_GetSysClockFreq+0x86>
 80056f0:	4b05      	ldr	r3, [pc, #20]	@ (8005708 <HAL_RCC_GetSysClockFreq+0x98>)
 80056f2:	613b      	str	r3, [r7, #16]
 80056f4:	bf00      	nop
 80056f6:	693b      	ldr	r3, [r7, #16]
 80056f8:	4618      	mov	r0, r3
 80056fa:	371c      	adds	r7, #28
 80056fc:	46bd      	mov	sp, r7
 80056fe:	bc80      	pop	{r7}
 8005700:	4770      	bx	lr
 8005702:	bf00      	nop
 8005704:	40021000 	.word	0x40021000
 8005708:	007a1200 	.word	0x007a1200
 800570c:	08009204 	.word	0x08009204
 8005710:	08009214 	.word	0x08009214
 8005714:	003d0900 	.word	0x003d0900

08005718 <HAL_RCC_GetHCLKFreq>:
 8005718:	b480      	push	{r7}
 800571a:	af00      	add	r7, sp, #0
 800571c:	4b02      	ldr	r3, [pc, #8]	@ (8005728 <HAL_RCC_GetHCLKFreq+0x10>)
 800571e:	681b      	ldr	r3, [r3, #0]
 8005720:	4618      	mov	r0, r3
 8005722:	46bd      	mov	sp, r7
 8005724:	bc80      	pop	{r7}
 8005726:	4770      	bx	lr
 8005728:	20000008 	.word	0x20000008

0800572c <HAL_RCC_GetPCLK1Freq>:
 800572c:	b580      	push	{r7, lr}
 800572e:	af00      	add	r7, sp, #0
 8005730:	f7ff fff2 	bl	8005718 <HAL_RCC_GetHCLKFreq>
 8005734:	4602      	mov	r2, r0
 8005736:	4b05      	ldr	r3, [pc, #20]	@ (800574c <HAL_RCC_GetPCLK1Freq+0x20>)
 8005738:	685b      	ldr	r3, [r3, #4]
 800573a:	0a1b      	lsrs	r3, r3, #8
 800573c:	f003 0307 	and.w	r3, r3, #7
 8005740:	4903      	ldr	r1, [pc, #12]	@ (8005750 <HAL_RCC_GetPCLK1Freq+0x24>)
 8005742:	5ccb      	ldrb	r3, [r1, r3]
 8005744:	fa22 f303 	lsr.w	r3, r2, r3
 8005748:	4618      	mov	r0, r3
 800574a:	bd80      	pop	{r7, pc}
 800574c:	40021000 	.word	0x40021000
 8005750:	080091fc 	.word	0x080091fc

08005754 <HAL_RCC_GetPCLK2Freq>:
 8005754:	b580      	push	{r7, lr}
 8005756:	af00      	add	r7, sp, #0
 8005758:	f7ff ffde 	bl	8005718 <HAL_RCC_GetHCLKFreq>
 800575c:	4602      	mov	r2, r0
 800575e:	4b05      	ldr	r3, [pc, #20]	@ (8005774 <HAL_RCC_GetPCLK2Freq+0x20>)
 8005760:	685b      	ldr	r3, [r3, #4]
 8005762:	0adb      	lsrs	r3, r3, #11
 8005764:	f003 0307 	and.w	r3, r3, #7
 8005768:	4903      	ldr	r1, [pc, #12]	@ (8005778 <HAL_RCC_GetPCLK2Freq+0x24>)
 800576a:	5ccb      	ldrb	r3, [r1, r3]
 800576c:	fa22 f303 	lsr.w	r3, r2, r3
 8005770:	4618      	mov	r0, r3
 8005772:	bd80      	pop	{r7, pc}
 8005774:	40021000 	.word	0x40021000
 8005778:	080091fc 	.word	0x080091fc

0800577c <RCC_Delay>:
 800577c:	b480      	push	{r7}
 800577e:	b085      	sub	sp, #20
 8005780:	af00      	add	r7, sp, #0
 8005782:	6078      	str	r0, [r7, #4]
 8005784:	4b0a      	ldr	r3, [pc, #40]	@ (80057b0 <RCC_Delay+0x34>)
 8005786:	681b      	ldr	r3, [r3, #0]
 8005788:	4a0a      	ldr	r2, [pc, #40]	@ (80057b4 <RCC_Delay+0x38>)
 800578a:	fba2 2303 	umull	r2, r3, r2, r3
 800578e:	0a5b      	lsrs	r3, r3, #9
 8005790:	687a      	ldr	r2, [r7, #4]
 8005792:	fb02 f303 	mul.w	r3, r2, r3
 8005796:	60fb      	str	r3, [r7, #12]
 8005798:	bf00      	nop
 800579a:	68fb      	ldr	r3, [r7, #12]
 800579c:	1e5a      	subs	r2, r3, #1
 800579e:	60fa      	str	r2, [r7, #12]
 80057a0:	2b00      	cmp	r3, #0
 80057a2:	d1f9      	bne.n	8005798 <RCC_Delay+0x1c>
 80057a4:	bf00      	nop
 80057a6:	bf00      	nop
 80057a8:	3714      	adds	r7, #20
 80057aa:	46bd      	mov	sp, r7
 80057ac:	bc80      	pop	{r7}
 80057ae:	4770      	bx	lr
 80057b0:	20000008 	.word	0x20000008
 80057b4:	10624dd3 	.word	0x10624dd3

080057b8 <HAL_RCCEx_PeriphCLKConfig>:
 80057b8:	b580      	push	{r7, lr}
 80057ba:	b086      	sub	sp, #24
 80057bc:	af00      	add	r7, sp, #0
 80057be:	6078      	str	r0, [r7, #4]
 80057c0:	2300      	movs	r3, #0
 80057c2:	613b      	str	r3, [r7, #16]
 80057c4:	2300      	movs	r3, #0
 80057c6:	60fb      	str	r3, [r7, #12]
 80057c8:	687b      	ldr	r3, [r7, #4]
 80057ca:	681b      	ldr	r3, [r3, #0]
 80057cc:	f003 0301 	and.w	r3, r3, #1
 80057d0:	2b00      	cmp	r3, #0
 80057d2:	d07d      	beq.n	80058d0 <HAL_RCCEx_PeriphCLKConfig+0x118>
 80057d4:	2300      	movs	r3, #0
 80057d6:	75fb      	strb	r3, [r7, #23]
 80057d8:	4b4f      	ldr	r3, [pc, #316]	@ (8005918 <HAL_RCCEx_PeriphCLKConfig+0x160>)
 80057da:	69db      	ldr	r3, [r3, #28]
 80057dc:	f003 5380 	and.w	r3, r3, #268435456	@ 0x10000000
 80057e0:	2b00      	cmp	r3, #0
 80057e2:	d10d      	bne.n	8005800 <HAL_RCCEx_PeriphCLKConfig+0x48>
 80057e4:	4b4c      	ldr	r3, [pc, #304]	@ (8005918 <HAL_RCCEx_PeriphCLKConfig+0x160>)
 80057e6:	69db      	ldr	r3, [r3, #28]
 80057e8:	4a4b      	ldr	r2, [pc, #300]	@ (8005918 <HAL_RCCEx_PeriphCLKConfig+0x160>)
 80057ea:	f043 5380 	orr.w	r3, r3, #268435456	@ 0x10000000
 80057ee:	61d3      	str	r3, [r2, #28]
 80057f0:	4b49      	ldr	r3, [pc, #292]	@ (8005918 <HAL_RCCEx_PeriphCLKConfig+0x160>)
 80057f2:	69db      	ldr	r3, [r3, #28]
 80057f4:	f003 5380 	and.w	r3, r3, #268435456	@ 0x10000000
 80057f8:	60bb      	str	r3, [r7, #8]
 80057fa:	68bb      	ldr	r3, [r7, #8]
 80057fc:	2301      	movs	r3, #1
 80057fe:	75fb      	strb	r3, [r7, #23]
 8005800:	4b46      	ldr	r3, [pc, #280]	@ (800591c <HAL_RCCEx_PeriphCLKConfig+0x164>)
 8005802:	681b      	ldr	r3, [r3, #0]
 8005804:	f403 7380 	and.w	r3, r3, #256	@ 0x100
 8005808:	2b00      	cmp	r3, #0
 800580a:	d118      	bne.n	800583e <HAL_RCCEx_PeriphCLKConfig+0x86>
 800580c:	4b43      	ldr	r3, [pc, #268]	@ (800591c <HAL_RCCEx_PeriphCLKConfig+0x164>)
 800580e:	681b      	ldr	r3, [r3, #0]
 8005810:	4a42      	ldr	r2, [pc, #264]	@ (800591c <HAL_RCCEx_PeriphCLKConfig+0x164>)
 8005812:	f443 7380 	orr.w	r3, r3, #256	@ 0x100
 8005816:	6013      	str	r3, [r2, #0]
 8005818:	f7fd fc0a 	bl	8003030 <HAL_GetTick>
 800581c:	6138      	str	r0, [r7, #16]
 800581e:	e008      	b.n	8005832 <HAL_RCCEx_PeriphCLKConfig+0x7a>
 8005820:	f7fd fc06 	bl	8003030 <HAL_GetTick>
 8005824:	4602      	mov	r2, r0
 8005826:	693b      	ldr	r3, [r7, #16]
 8005828:	1ad3      	subs	r3, r2, r3
 800582a:	2b64      	cmp	r3, #100	@ 0x64
 800582c:	d901      	bls.n	8005832 <HAL_RCCEx_PeriphCLKConfig+0x7a>
 800582e:	2303      	movs	r3, #3
 8005830:	e06d      	b.n	800590e <HAL_RCCEx_PeriphCLKConfig+0x156>
 8005832:	4b3a      	ldr	r3, [pc, #232]	@ (800591c <HAL_RCCEx_PeriphCLKConfig+0x164>)
 8005834:	681b      	ldr	r3, [r3, #0]
 8005836:	f403 7380 	and.w	r3, r3, #256	@ 0x100
 800583a:	2b00      	cmp	r3, #0
 800583c:	d0f0      	beq.n	8005820 <HAL_RCCEx_PeriphCLKConfig+0x68>
 800583e:	4b36      	ldr	r3, [pc, #216]	@ (8005918 <HAL_RCCEx_PeriphCLKConfig+0x160>)
 8005840:	6a1b      	ldr	r3, [r3, #32]
 8005842:	f403 7340 	and.w	r3, r3, #768	@ 0x300
 8005846:	60fb      	str	r3, [r7, #12]
 8005848:	68fb      	ldr	r3, [r7, #12]
 800584a:	2b00      	cmp	r3, #0
 800584c:	d02e      	beq.n	80058ac <HAL_RCCEx_PeriphCLKConfig+0xf4>
 800584e:	687b      	ldr	r3, [r7, #4]
 8005850:	685b      	ldr	r3, [r3, #4]
 8005852:	f403 7340 	and.w	r3, r3, #768	@ 0x300
 8005856:	68fa      	ldr	r2, [r7, #12]
 8005858:	429a      	cmp	r2, r3
 800585a:	d027      	beq.n	80058ac <HAL_RCCEx_PeriphCLKConfig+0xf4>
 800585c:	4b2e      	ldr	r3, [pc, #184]	@ (8005918 <HAL_RCCEx_PeriphCLKConfig+0x160>)
 800585e:	6a1b      	ldr	r3, [r3, #32]
 8005860:	f423 7340 	bic.w	r3, r3, #768	@ 0x300
 8005864:	60fb      	str	r3, [r7, #12]
 8005866:	4b2e      	ldr	r3, [pc, #184]	@ (8005920 <HAL_RCCEx_PeriphCLKConfig+0x168>)
 8005868:	2201      	movs	r2, #1
 800586a:	601a      	str	r2, [r3, #0]
 800586c:	4b2c      	ldr	r3, [pc, #176]	@ (8005920 <HAL_RCCEx_PeriphCLKConfig+0x168>)
 800586e:	2200      	movs	r2, #0
 8005870:	601a      	str	r2, [r3, #0]
 8005872:	4a29      	ldr	r2, [pc, #164]	@ (8005918 <HAL_RCCEx_PeriphCLKConfig+0x160>)
 8005874:	68fb      	ldr	r3, [r7, #12]
 8005876:	6213      	str	r3, [r2, #32]
 8005878:	68fb      	ldr	r3, [r7, #12]
 800587a:	f003 0301 	and.w	r3, r3, #1
 800587e:	2b00      	cmp	r3, #0
 8005880:	d014      	beq.n	80058ac <HAL_RCCEx_PeriphCLKConfig+0xf4>
 8005882:	f7fd fbd5 	bl	8003030 <HAL_GetTick>
 8005886:	6138      	str	r0, [r7, #16]
 8005888:	e00a      	b.n	80058a0 <HAL_RCCEx_PeriphCLKConfig+0xe8>
 800588a:	f7fd fbd1 	bl	8003030 <HAL_GetTick>
 800588e:	4602      	mov	r2, r0
 8005890:	693b      	ldr	r3, [r7, #16]
 8005892:	1ad3      	subs	r3, r2, r3
 8005894:	f241 3288 	movw	r2, #5000	@ 0x1388
 8005898:	4293      	cmp	r3, r2
 800589a:	d901      	bls.n	80058a0 <HAL_RCCEx_PeriphCLKConfig+0xe8>
 800589c:	2303      	movs	r3, #3
 800589e:	e036      	b.n	800590e <HAL_RCCEx_PeriphCLKConfig+0x156>
 80058a0:	4b1d      	ldr	r3, [pc, #116]	@ (8005918 <HAL_RCCEx_PeriphCLKConfig+0x160>)
 80058a2:	6a1b      	ldr	r3, [r3, #32]
 80058a4:	f003 0302 	and.w	r3, r3, #2
 80058a8:	2b00      	cmp	r3, #0
 80058aa:	d0ee      	beq.n	800588a <HAL_RCCEx_PeriphCLKConfig+0xd2>
 80058ac:	4b1a      	ldr	r3, [pc, #104]	@ (8005918 <HAL_RCCEx_PeriphCLKConfig+0x160>)
 80058ae:	6a1b      	ldr	r3, [r3, #32]
 80058b0:	f423 7240 	bic.w	r2, r3, #768	@ 0x300
 80058b4:	687b      	ldr	r3, [r7, #4]
 80058b6:	685b      	ldr	r3, [r3, #4]
 80058b8:	4917      	ldr	r1, [pc, #92]	@ (8005918 <HAL_RCCEx_PeriphCLKConfig+0x160>)
 80058ba:	4313      	orrs	r3, r2
 80058bc:	620b      	str	r3, [r1, #32]
 80058be:	7dfb      	ldrb	r3, [r7, #23]
 80058c0:	2b01      	cmp	r3, #1
 80058c2:	d105      	bne.n	80058d0 <HAL_RCCEx_PeriphCLKConfig+0x118>
 80058c4:	4b14      	ldr	r3, [pc, #80]	@ (8005918 <HAL_RCCEx_PeriphCLKConfig+0x160>)
 80058c6:	69db      	ldr	r3, [r3, #28]
 80058c8:	4a13      	ldr	r2, [pc, #76]	@ (8005918 <HAL_RCCEx_PeriphCLKConfig+0x160>)
 80058ca:	f023 5380 	bic.w	r3, r3, #268435456	@ 0x10000000
 80058ce:	61d3      	str	r3, [r2, #28]
 80058d0:	687b      	ldr	r3, [r7, #4]
 80058d2:	681b      	ldr	r3, [r3, #0]
 80058d4:	f003 0302 	and.w	r3, r3, #2
 80058d8:	2b00      	cmp	r3, #0
 80058da:	d008      	beq.n	80058ee <HAL_RCCEx_PeriphCLKConfig+0x136>
 80058dc:	4b0e      	ldr	r3, [pc, #56]	@ (8005918 <HAL_RCCEx_PeriphCLKConfig+0x160>)
 80058de:	685b      	ldr	r3, [r3, #4]
 80058e0:	f423 4240 	bic.w	r2, r3, #49152	@ 0xc000
 80058e4:	687b      	ldr	r3, [r7, #4]
 80058e6:	689b      	ldr	r3, [r3, #8]
 80058e8:	490b      	ldr	r1, [pc, #44]	@ (8005918 <HAL_RCCEx_PeriphCLKConfig+0x160>)
 80058ea:	4313      	orrs	r3, r2
 80058ec:	604b      	str	r3, [r1, #4]
 80058ee:	687b      	ldr	r3, [r7, #4]
 80058f0:	681b      	ldr	r3, [r3, #0]
 80058f2:	f003 0310 	and.w	r3, r3, #16
 80058f6:	2b00      	cmp	r3, #0
 80058f8:	d008      	beq.n	800590c <HAL_RCCEx_PeriphCLKConfig+0x154>
 80058fa:	4b07      	ldr	r3, [pc, #28]	@ (8005918 <HAL_RCCEx_PeriphCLKConfig+0x160>)
 80058fc:	685b      	ldr	r3, [r3, #4]
 80058fe:	f423 0280 	bic.w	r2, r3, #4194304	@ 0x400000
 8005902:	687b      	ldr	r3, [r7, #4]
 8005904:	68db      	ldr	r3, [r3, #12]
 8005906:	4904      	ldr	r1, [pc, #16]	@ (8005918 <HAL_RCCEx_PeriphCLKConfig+0x160>)
 8005908:	4313      	orrs	r3, r2
 800590a:	604b      	str	r3, [r1, #4]
 800590c:	2300      	movs	r3, #0
 800590e:	4618      	mov	r0, r3
 8005910:	3718      	adds	r7, #24
 8005912:	46bd      	mov	sp, r7
 8005914:	bd80      	pop	{r7, pc}
 8005916:	bf00      	nop
 8005918:	40021000 	.word	0x40021000
 800591c:	40007000 	.word	0x40007000
 8005920:	42420440 	.word	0x42420440

08005924 <HAL_SPI_Init>:
 8005924:	b580      	push	{r7, lr}
 8005926:	b082      	sub	sp, #8
 8005928:	af00      	add	r7, sp, #0
 800592a:	6078      	str	r0, [r7, #4]
 800592c:	687b      	ldr	r3, [r7, #4]
 800592e:	2b00      	cmp	r3, #0
 8005930:	d101      	bne.n	8005936 <HAL_SPI_Init+0x12>
 8005932:	2301      	movs	r3, #1
 8005934:	e076      	b.n	8005a24 <HAL_SPI_Init+0x100>
 8005936:	687b      	ldr	r3, [r7, #4]
 8005938:	6a5b      	ldr	r3, [r3, #36]	@ 0x24
 800593a:	2b00      	cmp	r3, #0
 800593c:	d108      	bne.n	8005950 <HAL_SPI_Init+0x2c>
 800593e:	687b      	ldr	r3, [r7, #4]
 8005940:	685b      	ldr	r3, [r3, #4]
 8005942:	f5b3 7f82 	cmp.w	r3, #260	@ 0x104
 8005946:	d009      	beq.n	800595c <HAL_SPI_Init+0x38>
 8005948:	687b      	ldr	r3, [r7, #4]
 800594a:	2200      	movs	r2, #0
 800594c:	61da      	str	r2, [r3, #28]
 800594e:	e005      	b.n	800595c <HAL_SPI_Init+0x38>
 8005950:	687b      	ldr	r3, [r7, #4]
 8005952:	2200      	movs	r2, #0
 8005954:	611a      	str	r2, [r3, #16]
 8005956:	687b      	ldr	r3, [r7, #4]
 8005958:	2200      	movs	r2, #0
 800595a:	615a      	str	r2, [r3, #20]
 800595c:	687b      	ldr	r3, [r7, #4]
 800595e:	2200      	movs	r2, #0
 8005960:	629a      	str	r2, [r3, #40]	@ 0x28
 8005962:	687b      	ldr	r3, [r7, #4]
 8005964:	f893 3051 	ldrb.w	r3, [r3, #81]	@ 0x51
 8005968:	b2db      	uxtb	r3, r3
 800596a:	2b00      	cmp	r3, #0
 800596c:	d106      	bne.n	800597c <HAL_SPI_Init+0x58>
 800596e:	687b      	ldr	r3, [r7, #4]
 8005970:	2200      	movs	r2, #0
 8005972:	f883 2050 	strb.w	r2, [r3, #80]	@ 0x50
 8005976:	6878      	ldr	r0, [r7, #4]
 8005978:	f7fd f9a0 	bl	8002cbc <HAL_SPI_MspInit>
 800597c:	687b      	ldr	r3, [r7, #4]
 800597e:	2202      	movs	r2, #2
 8005980:	f883 2051 	strb.w	r2, [r3, #81]	@ 0x51
 8005984:	687b      	ldr	r3, [r7, #4]
 8005986:	681b      	ldr	r3, [r3, #0]
 8005988:	681a      	ldr	r2, [r3, #0]
 800598a:	687b      	ldr	r3, [r7, #4]
 800598c:	681b      	ldr	r3, [r3, #0]
 800598e:	f022 0240 	bic.w	r2, r2, #64	@ 0x40
 8005992:	601a      	str	r2, [r3, #0]
 8005994:	687b      	ldr	r3, [r7, #4]
 8005996:	685b      	ldr	r3, [r3, #4]
 8005998:	f403 7282 	and.w	r2, r3, #260	@ 0x104
 800599c:	687b      	ldr	r3, [r7, #4]
 800599e:	689b      	ldr	r3, [r3, #8]
 80059a0:	f403 4304 	and.w	r3, r3, #33792	@ 0x8400
 80059a4:	431a      	orrs	r2, r3
 80059a6:	687b      	ldr	r3, [r7, #4]
 80059a8:	68db      	ldr	r3, [r3, #12]
 80059aa:	f403 6300 	and.w	r3, r3, #2048	@ 0x800
 80059ae:	431a      	orrs	r2, r3
 80059b0:	687b      	ldr	r3, [r7, #4]
 80059b2:	691b      	ldr	r3, [r3, #16]
 80059b4:	f003 0302 	and.w	r3, r3, #2
 80059b8:	431a      	orrs	r2, r3
 80059ba:	687b      	ldr	r3, [r7, #4]
 80059bc:	695b      	ldr	r3, [r3, #20]
 80059be:	f003 0301 	and.w	r3, r3, #1
 80059c2:	431a      	orrs	r2, r3
 80059c4:	687b      	ldr	r3, [r7, #4]
 80059c6:	699b      	ldr	r3, [r3, #24]
 80059c8:	f403 7300 	and.w	r3, r3, #512	@ 0x200
 80059cc:	431a      	orrs	r2, r3
 80059ce:	687b      	ldr	r3, [r7, #4]
 80059d0:	69db      	ldr	r3, [r3, #28]
 80059d2:	f003 0338 	and.w	r3, r3, #56	@ 0x38
 80059d6:	431a      	orrs	r2, r3
 80059d8:	687b      	ldr	r3, [r7, #4]
 80059da:	6a1b      	ldr	r3, [r3, #32]
 80059dc:	f003 0380 	and.w	r3, r3, #128	@ 0x80
 80059e0:	ea42 0103 	orr.w	r1, r2, r3
 80059e4:	687b      	ldr	r3, [r7, #4]
 80059e6:	6a9b      	ldr	r3, [r3, #40]	@ 0x28
 80059e8:	f403 5200 	and.w	r2, r3, #8192	@ 0x2000
 80059ec:	687b      	ldr	r3, [r7, #4]
 80059ee:	681b      	ldr	r3, [r3, #0]
 80059f0:	430a      	orrs	r2, r1
 80059f2:	601a      	str	r2, [r3, #0]
 80059f4:	687b      	ldr	r3, [r7, #4]
 80059f6:	699b      	ldr	r3, [r3, #24]
 80059f8:	0c1a      	lsrs	r2, r3, #16
 80059fa:	687b      	ldr	r3, [r7, #4]
 80059fc:	681b      	ldr	r3, [r3, #0]
 80059fe:	f002 0204 	and.w	r2, r2, #4
 8005a02:	605a      	str	r2, [r3, #4]
 8005a04:	687b      	ldr	r3, [r7, #4]
 8005a06:	681b      	ldr	r3, [r3, #0]
 8005a08:	69da      	ldr	r2, [r3, #28]
 8005a0a:	687b      	ldr	r3, [r7, #4]
 8005a0c:	681b      	ldr	r3, [r3, #0]
 8005a0e:	f422 6200 	bic.w	r2, r2, #2048	@ 0x800
 8005a12:	61da      	str	r2, [r3, #28]
 8005a14:	687b      	ldr	r3, [r7, #4]
 8005a16:	2200      	movs	r2, #0
 8005a18:	655a      	str	r2, [r3, #84]	@ 0x54
 8005a1a:	687b      	ldr	r3, [r7, #4]
 8005a1c:	2201      	movs	r2, #1
 8005a1e:	f883 2051 	strb.w	r2, [r3, #81]	@ 0x51
 8005a22:	2300      	movs	r3, #0
 8005a24:	4618      	mov	r0, r3
 8005a26:	3708      	adds	r7, #8
 8005a28:	46bd      	mov	sp, r7
 8005a2a:	bd80      	pop	{r7, pc}

08005a2c <HAL_SPI_Transmit>:
 8005a2c:	b580      	push	{r7, lr}
 8005a2e:	b088      	sub	sp, #32
 8005a30:	af00      	add	r7, sp, #0
 8005a32:	60f8      	str	r0, [r7, #12]
 8005a34:	60b9      	str	r1, [r7, #8]
 8005a36:	603b      	str	r3, [r7, #0]
 8005a38:	4613      	mov	r3, r2
 8005a3a:	80fb      	strh	r3, [r7, #6]
 8005a3c:	f7fd faf8 	bl	8003030 <HAL_GetTick>
 8005a40:	61f8      	str	r0, [r7, #28]
 8005a42:	88fb      	ldrh	r3, [r7, #6]
 8005a44:	837b      	strh	r3, [r7, #26]
 8005a46:	68fb      	ldr	r3, [r7, #12]
 8005a48:	f893 3051 	ldrb.w	r3, [r3, #81]	@ 0x51
 8005a4c:	b2db      	uxtb	r3, r3
 8005a4e:	2b01      	cmp	r3, #1
 8005a50:	d001      	beq.n	8005a56 <HAL_SPI_Transmit+0x2a>
 8005a52:	2302      	movs	r3, #2
 8005a54:	e12a      	b.n	8005cac <HAL_SPI_Transmit+0x280>
 8005a56:	68bb      	ldr	r3, [r7, #8]
 8005a58:	2b00      	cmp	r3, #0
 8005a5a:	d002      	beq.n	8005a62 <HAL_SPI_Transmit+0x36>
 8005a5c:	88fb      	ldrh	r3, [r7, #6]
 8005a5e:	2b00      	cmp	r3, #0
 8005a60:	d101      	bne.n	8005a66 <HAL_SPI_Transmit+0x3a>
 8005a62:	2301      	movs	r3, #1
 8005a64:	e122      	b.n	8005cac <HAL_SPI_Transmit+0x280>
 8005a66:	68fb      	ldr	r3, [r7, #12]
 8005a68:	f893 3050 	ldrb.w	r3, [r3, #80]	@ 0x50
 8005a6c:	2b01      	cmp	r3, #1
 8005a6e:	d101      	bne.n	8005a74 <HAL_SPI_Transmit+0x48>
 8005a70:	2302      	movs	r3, #2
 8005a72:	e11b      	b.n	8005cac <HAL_SPI_Transmit+0x280>
 8005a74:	68fb      	ldr	r3, [r7, #12]
 8005a76:	2201      	movs	r2, #1
 8005a78:	f883 2050 	strb.w	r2, [r3, #80]	@ 0x50
 8005a7c:	68fb      	ldr	r3, [r7, #12]
 8005a7e:	2203      	movs	r2, #3
 8005a80:	f883 2051 	strb.w	r2, [r3, #81]	@ 0x51
 8005a84:	68fb      	ldr	r3, [r7, #12]
 8005a86:	2200      	movs	r2, #0
 8005a88:	655a      	str	r2, [r3, #84]	@ 0x54
 8005a8a:	68fb      	ldr	r3, [r7, #12]
 8005a8c:	68ba      	ldr	r2, [r7, #8]
 8005a8e:	631a      	str	r2, [r3, #48]	@ 0x30
 8005a90:	68fb      	ldr	r3, [r7, #12]
 8005a92:	88fa      	ldrh	r2, [r7, #6]
 8005a94:	869a      	strh	r2, [r3, #52]	@ 0x34
 8005a96:	68fb      	ldr	r3, [r7, #12]
 8005a98:	88fa      	ldrh	r2, [r7, #6]
 8005a9a:	86da      	strh	r2, [r3, #54]	@ 0x36
 8005a9c:	68fb      	ldr	r3, [r7, #12]
 8005a9e:	2200      	movs	r2, #0
 8005aa0:	639a      	str	r2, [r3, #56]	@ 0x38
 8005aa2:	68fb      	ldr	r3, [r7, #12]
 8005aa4:	2200      	movs	r2, #0
 8005aa6:	879a      	strh	r2, [r3, #60]	@ 0x3c
 8005aa8:	68fb      	ldr	r3, [r7, #12]
 8005aaa:	2200      	movs	r2, #0
 8005aac:	87da      	strh	r2, [r3, #62]	@ 0x3e
 8005aae:	68fb      	ldr	r3, [r7, #12]
 8005ab0:	2200      	movs	r2, #0
 8005ab2:	645a      	str	r2, [r3, #68]	@ 0x44
 8005ab4:	68fb      	ldr	r3, [r7, #12]
 8005ab6:	2200      	movs	r2, #0
 8005ab8:	641a      	str	r2, [r3, #64]	@ 0x40
 8005aba:	68fb      	ldr	r3, [r7, #12]
 8005abc:	689b      	ldr	r3, [r3, #8]
 8005abe:	f5b3 4f00 	cmp.w	r3, #32768	@ 0x8000
 8005ac2:	d10f      	bne.n	8005ae4 <HAL_SPI_Transmit+0xb8>
 8005ac4:	68fb      	ldr	r3, [r7, #12]
 8005ac6:	681b      	ldr	r3, [r3, #0]
 8005ac8:	681a      	ldr	r2, [r3, #0]
 8005aca:	68fb      	ldr	r3, [r7, #12]
 8005acc:	681b      	ldr	r3, [r3, #0]
 8005ace:	f022 0240 	bic.w	r2, r2, #64	@ 0x40
 8005ad2:	601a      	str	r2, [r3, #0]
 8005ad4:	68fb      	ldr	r3, [r7, #12]
 8005ad6:	681b      	ldr	r3, [r3, #0]
 8005ad8:	681a      	ldr	r2, [r3, #0]
 8005ada:	68fb      	ldr	r3, [r7, #12]
 8005adc:	681b      	ldr	r3, [r3, #0]
 8005ade:	f442 4280 	orr.w	r2, r2, #16384	@ 0x4000
 8005ae2:	601a      	str	r2, [r3, #0]
 8005ae4:	68fb      	ldr	r3, [r7, #12]
 8005ae6:	681b      	ldr	r3, [r3, #0]
 8005ae8:	681b      	ldr	r3, [r3, #0]
 8005aea:	f003 0340 	and.w	r3, r3, #64	@ 0x40
 8005aee:	2b40      	cmp	r3, #64	@ 0x40
 8005af0:	d007      	beq.n	8005b02 <HAL_SPI_Transmit+0xd6>
 8005af2:	68fb      	ldr	r3, [r7, #12]
 8005af4:	681b      	ldr	r3, [r3, #0]
 8005af6:	681a      	ldr	r2, [r3, #0]
 8005af8:	68fb      	ldr	r3, [r7, #12]
 8005afa:	681b      	ldr	r3, [r3, #0]
 8005afc:	f042 0240 	orr.w	r2, r2, #64	@ 0x40
 8005b00:	601a      	str	r2, [r3, #0]
 8005b02:	68fb      	ldr	r3, [r7, #12]
 8005b04:	68db      	ldr	r3, [r3, #12]
 8005b06:	f5b3 6f00 	cmp.w	r3, #2048	@ 0x800
 8005b0a:	d152      	bne.n	8005bb2 <HAL_SPI_Transmit+0x186>
 8005b0c:	68fb      	ldr	r3, [r7, #12]
 8005b0e:	685b      	ldr	r3, [r3, #4]
 8005b10:	2b00      	cmp	r3, #0
 8005b12:	d002      	beq.n	8005b1a <HAL_SPI_Transmit+0xee>
 8005b14:	8b7b      	ldrh	r3, [r7, #26]
 8005b16:	2b01      	cmp	r3, #1
 8005b18:	d145      	bne.n	8005ba6 <HAL_SPI_Transmit+0x17a>
 8005b1a:	68fb      	ldr	r3, [r7, #12]
 8005b1c:	6b1b      	ldr	r3, [r3, #48]	@ 0x30
 8005b1e:	881a      	ldrh	r2, [r3, #0]
 8005b20:	68fb      	ldr	r3, [r7, #12]
 8005b22:	681b      	ldr	r3, [r3, #0]
 8005b24:	60da      	str	r2, [r3, #12]
 8005b26:	68fb      	ldr	r3, [r7, #12]
 8005b28:	6b1b      	ldr	r3, [r3, #48]	@ 0x30
 8005b2a:	1c9a      	adds	r2, r3, #2
 8005b2c:	68fb      	ldr	r3, [r7, #12]
 8005b2e:	631a      	str	r2, [r3, #48]	@ 0x30
 8005b30:	68fb      	ldr	r3, [r7, #12]
 8005b32:	8edb      	ldrh	r3, [r3, #54]	@ 0x36
 8005b34:	b29b      	uxth	r3, r3
 8005b36:	3b01      	subs	r3, #1
 8005b38:	b29a      	uxth	r2, r3
 8005b3a:	68fb      	ldr	r3, [r7, #12]
 8005b3c:	86da      	strh	r2, [r3, #54]	@ 0x36
 8005b3e:	e032      	b.n	8005ba6 <HAL_SPI_Transmit+0x17a>
 8005b40:	68fb      	ldr	r3, [r7, #12]
 8005b42:	681b      	ldr	r3, [r3, #0]
 8005b44:	689b      	ldr	r3, [r3, #8]
 8005b46:	f003 0302 	and.w	r3, r3, #2
 8005b4a:	2b02      	cmp	r3, #2
 8005b4c:	d112      	bne.n	8005b74 <HAL_SPI_Transmit+0x148>
 8005b4e:	68fb      	ldr	r3, [r7, #12]
 8005b50:	6b1b      	ldr	r3, [r3, #48]	@ 0x30
 8005b52:	881a      	ldrh	r2, [r3, #0]
 8005b54:	68fb      	ldr	r3, [r7, #12]
 8005b56:	681b      	ldr	r3, [r3, #0]
 8005b58:	60da      	str	r2, [r3, #12]
 8005b5a:	68fb      	ldr	r3, [r7, #12]
 8005b5c:	6b1b      	ldr	r3, [r3, #48]	@ 0x30
 8005b5e:	1c9a      	adds	r2, r3, #2
 8005b60:	68fb      	ldr	r3, [r7, #12]
 8005b62:	631a      	str	r2, [r3, #48]	@ 0x30
 8005b64:	68fb      	ldr	r3, [r7, #12]
 8005b66:	8edb      	ldrh	r3, [r3, #54]	@ 0x36
 8005b68:	b29b      	uxth	r3, r3
 8005b6a:	3b01      	subs	r3, #1
 8005b6c:	b29a      	uxth	r2, r3
 8005b6e:	68fb      	ldr	r3, [r7, #12]
 8005b70:	86da      	strh	r2, [r3, #54]	@ 0x36
 8005b72:	e018      	b.n	8005ba6 <HAL_SPI_Transmit+0x17a>
 8005b74:	f7fd fa5c 	bl	8003030 <HAL_GetTick>
 8005b78:	4602      	mov	r2, r0
 8005b7a:	69fb      	ldr	r3, [r7, #28]
 8005b7c:	1ad3      	subs	r3, r2, r3
 8005b7e:	683a      	ldr	r2, [r7, #0]
 8005b80:	429a      	cmp	r2, r3
 8005b82:	d803      	bhi.n	8005b8c <HAL_SPI_Transmit+0x160>
 8005b84:	683b      	ldr	r3, [r7, #0]
 8005b86:	f1b3 3fff 	cmp.w	r3, #4294967295
 8005b8a:	d102      	bne.n	8005b92 <HAL_SPI_Transmit+0x166>
 8005b8c:	683b      	ldr	r3, [r7, #0]
 8005b8e:	2b00      	cmp	r3, #0
 8005b90:	d109      	bne.n	8005ba6 <HAL_SPI_Transmit+0x17a>
 8005b92:	68fb      	ldr	r3, [r7, #12]
 8005b94:	2201      	movs	r2, #1
 8005b96:	f883 2051 	strb.w	r2, [r3, #81]	@ 0x51
 8005b9a:	68fb      	ldr	r3, [r7, #12]
 8005b9c:	2200      	movs	r2, #0
 8005b9e:	f883 2050 	strb.w	r2, [r3, #80]	@ 0x50
 8005ba2:	2303      	movs	r3, #3
 8005ba4:	e082      	b.n	8005cac <HAL_SPI_Transmit+0x280>
 8005ba6:	68fb      	ldr	r3, [r7, #12]
 8005ba8:	8edb      	ldrh	r3, [r3, #54]	@ 0x36
 8005baa:	b29b      	uxth	r3, r3
 8005bac:	2b00      	cmp	r3, #0
 8005bae:	d1c7      	bne.n	8005b40 <HAL_SPI_Transmit+0x114>
 8005bb0:	e053      	b.n	8005c5a <HAL_SPI_Transmit+0x22e>
 8005bb2:	68fb      	ldr	r3, [r7, #12]
 8005bb4:	685b      	ldr	r3, [r3, #4]
 8005bb6:	2b00      	cmp	r3, #0
 8005bb8:	d002      	beq.n	8005bc0 <HAL_SPI_Transmit+0x194>
 8005bba:	8b7b      	ldrh	r3, [r7, #26]
 8005bbc:	2b01      	cmp	r3, #1
 8005bbe:	d147      	bne.n	8005c50 <HAL_SPI_Transmit+0x224>
 8005bc0:	68fb      	ldr	r3, [r7, #12]
 8005bc2:	6b1a      	ldr	r2, [r3, #48]	@ 0x30
 8005bc4:	68fb      	ldr	r3, [r7, #12]
 8005bc6:	681b      	ldr	r3, [r3, #0]
 8005bc8:	330c      	adds	r3, #12
 8005bca:	7812      	ldrb	r2, [r2, #0]
 8005bcc:	701a      	strb	r2, [r3, #0]
 8005bce:	68fb      	ldr	r3, [r7, #12]
 8005bd0:	6b1b      	ldr	r3, [r3, #48]	@ 0x30
 8005bd2:	1c5a      	adds	r2, r3, #1
 8005bd4:	68fb      	ldr	r3, [r7, #12]
 8005bd6:	631a      	str	r2, [r3, #48]	@ 0x30
 8005bd8:	68fb      	ldr	r3, [r7, #12]
 8005bda:	8edb      	ldrh	r3, [r3, #54]	@ 0x36
 8005bdc:	b29b      	uxth	r3, r3
 8005bde:	3b01      	subs	r3, #1
 8005be0:	b29a      	uxth	r2, r3
 8005be2:	68fb      	ldr	r3, [r7, #12]
 8005be4:	86da      	strh	r2, [r3, #54]	@ 0x36
 8005be6:	e033      	b.n	8005c50 <HAL_SPI_Transmit+0x224>
 8005be8:	68fb      	ldr	r3, [r7, #12]
 8005bea:	681b      	ldr	r3, [r3, #0]
 8005bec:	689b      	ldr	r3, [r3, #8]
 8005bee:	f003 0302 	and.w	r3, r3, #2
 8005bf2:	2b02      	cmp	r3, #2
 8005bf4:	d113      	bne.n	8005c1e <HAL_SPI_Transmit+0x1f2>
 8005bf6:	68fb      	ldr	r3, [r7, #12]
 8005bf8:	6b1a      	ldr	r2, [r3, #48]	@ 0x30
 8005bfa:	68fb      	ldr	r3, [r7, #12]
 8005bfc:	681b      	ldr	r3, [r3, #0]
 8005bfe:	330c      	adds	r3, #12
 8005c00:	7812      	ldrb	r2, [r2, #0]
 8005c02:	701a      	strb	r2, [r3, #0]
 8005c04:	68fb      	ldr	r3, [r7, #12]
 8005c06:	6b1b      	ldr	r3, [r3, #48]	@ 0x30
 8005c08:	1c5a      	adds	r2, r3, #1
 8005c0a:	68fb      	ldr	r3, [r7, #12]
 8005c0c:	631a      	str	r2, [r3, #48]	@ 0x30
 8005c0e:	68fb      	ldr	r3, [r7, #12]
 8005c10:	8edb      	ldrh	r3, [r3, #54]	@ 0x36
 8005c12:	b29b      	uxth	r3, r3
 8005c14:	3b01      	subs	r3, #1
 8005c16:	b29a      	uxth	r2, r3
 8005c18:	68fb      	ldr	r3, [r7, #12]
 8005c1a:	86da      	strh	r2, [r3, #54]	@ 0x36
 8005c1c:	e018      	b.n	8005c50 <HAL_SPI_Transmit+0x224>
 8005c1e:	f7fd fa07 	bl	8003030 <HAL_GetTick>
 8005c22:	4602      	mov	r2, r0
 8005c24:	69fb      	ldr	r3, [r7, #28]
 8005c26:	1ad3      	subs	r3, r2, r3
 8005c28:	683a      	ldr	r2, [r7, #0]
 8005c2a:	429a      	cmp	r2, r3
 8005c2c:	d803      	bhi.n	8005c36 <HAL_SPI_Transmit+0x20a>
 8005c2e:	683b      	ldr	r3, [r7, #0]
 8005c30:	f1b3 3fff 	cmp.w	r3, #4294967295
 8005c34:	d102      	bne.n	8005c3c <HAL_SPI_Transmit+0x210>
 8005c36:	683b      	ldr	r3, [r7, #0]
 8005c38:	2b00      	cmp	r3, #0
 8005c3a:	d109      	bne.n	8005c50 <HAL_SPI_Transmit+0x224>
 8005c3c:	68fb      	ldr	r3, [r7, #12]
 8005c3e:	2201      	movs	r2, #1
 8005c40:	f883 2051 	strb.w	r2, [r3, #81]	@ 0x51
 8005c44:	68fb      	ldr	r3, [r7, #12]
 8005c46:	2200      	movs	r2, #0
 8005c48:	f883 2050 	strb.w	r2, [r3, #80]	@ 0x50
 8005c4c:	2303      	movs	r3, #3
 8005c4e:	e02d      	b.n	8005cac <HAL_SPI_Transmit+0x280>
 8005c50:	68fb      	ldr	r3, [r7, #12]
 8005c52:	8edb      	ldrh	r3, [r3, #54]	@ 0x36
 8005c54:	b29b      	uxth	r3, r3
 8005c56:	2b00      	cmp	r3, #0
 8005c58:	d1c6      	bne.n	8005be8 <HAL_SPI_Transmit+0x1bc>
 8005c5a:	69fa      	ldr	r2, [r7, #28]
 8005c5c:	6839      	ldr	r1, [r7, #0]
 8005c5e:	68f8      	ldr	r0, [r7, #12]
 8005c60:	f000 fa5a 	bl	8006118 <SPI_EndRxTxTransaction>
 8005c64:	4603      	mov	r3, r0
 8005c66:	2b00      	cmp	r3, #0
 8005c68:	d002      	beq.n	8005c70 <HAL_SPI_Transmit+0x244>
 8005c6a:	68fb      	ldr	r3, [r7, #12]
 8005c6c:	2220      	movs	r2, #32
 8005c6e:	655a      	str	r2, [r3, #84]	@ 0x54
 8005c70:	68fb      	ldr	r3, [r7, #12]
 8005c72:	689b      	ldr	r3, [r3, #8]
 8005c74:	2b00      	cmp	r3, #0
 8005c76:	d10a      	bne.n	8005c8e <HAL_SPI_Transmit+0x262>
 8005c78:	2300      	movs	r3, #0
 8005c7a:	617b      	str	r3, [r7, #20]
 8005c7c:	68fb      	ldr	r3, [r7, #12]
 8005c7e:	681b      	ldr	r3, [r3, #0]
 8005c80:	68db      	ldr	r3, [r3, #12]
 8005c82:	617b      	str	r3, [r7, #20]
 8005c84:	68fb      	ldr	r3, [r7, #12]
 8005c86:	681b      	ldr	r3, [r3, #0]
 8005c88:	689b      	ldr	r3, [r3, #8]
 8005c8a:	617b      	str	r3, [r7, #20]
 8005c8c:	697b      	ldr	r3, [r7, #20]
 8005c8e:	68fb      	ldr	r3, [r7, #12]
 8005c90:	2201      	movs	r2, #1
 8005c92:	f883 2051 	strb.w	r2, [r3, #81]	@ 0x51
 8005c96:	68fb      	ldr	r3, [r7, #12]
 8005c98:	2200      	movs	r2, #0
 8005c9a:	f883 2050 	strb.w	r2, [r3, #80]	@ 0x50
 8005c9e:	68fb      	ldr	r3, [r7, #12]
 8005ca0:	6d5b      	ldr	r3, [r3, #84]	@ 0x54
 8005ca2:	2b00      	cmp	r3, #0
 8005ca4:	d001      	beq.n	8005caa <HAL_SPI_Transmit+0x27e>
 8005ca6:	2301      	movs	r3, #1
 8005ca8:	e000      	b.n	8005cac <HAL_SPI_Transmit+0x280>
 8005caa:	2300      	movs	r3, #0
 8005cac:	4618      	mov	r0, r3
 8005cae:	3720      	adds	r7, #32
 8005cb0:	46bd      	mov	sp, r7
 8005cb2:	bd80      	pop	{r7, pc}

08005cb4 <HAL_SPI_TransmitReceive>:
 8005cb4:	b580      	push	{r7, lr}
 8005cb6:	b08a      	sub	sp, #40	@ 0x28
 8005cb8:	af00      	add	r7, sp, #0
 8005cba:	60f8      	str	r0, [r7, #12]
 8005cbc:	60b9      	str	r1, [r7, #8]
 8005cbe:	607a      	str	r2, [r7, #4]
 8005cc0:	807b      	strh	r3, [r7, #2]
 8005cc2:	2301      	movs	r3, #1
 8005cc4:	627b      	str	r3, [r7, #36]	@ 0x24
 8005cc6:	f7fd f9b3 	bl	8003030 <HAL_GetTick>
 8005cca:	6238      	str	r0, [r7, #32]
 8005ccc:	68fb      	ldr	r3, [r7, #12]
 8005cce:	f893 3051 	ldrb.w	r3, [r3, #81]	@ 0x51
 8005cd2:	77fb      	strb	r3, [r7, #31]
 8005cd4:	68fb      	ldr	r3, [r7, #12]
 8005cd6:	685b      	ldr	r3, [r3, #4]
 8005cd8:	61bb      	str	r3, [r7, #24]
 8005cda:	887b      	ldrh	r3, [r7, #2]
 8005cdc:	82fb      	strh	r3, [r7, #22]
 8005cde:	7ffb      	ldrb	r3, [r7, #31]
 8005ce0:	2b01      	cmp	r3, #1
 8005ce2:	d00c      	beq.n	8005cfe <HAL_SPI_TransmitReceive+0x4a>
 8005ce4:	69bb      	ldr	r3, [r7, #24]
 8005ce6:	f5b3 7f82 	cmp.w	r3, #260	@ 0x104
 8005cea:	d106      	bne.n	8005cfa <HAL_SPI_TransmitReceive+0x46>
 8005cec:	68fb      	ldr	r3, [r7, #12]
 8005cee:	689b      	ldr	r3, [r3, #8]
 8005cf0:	2b00      	cmp	r3, #0
 8005cf2:	d102      	bne.n	8005cfa <HAL_SPI_TransmitReceive+0x46>
 8005cf4:	7ffb      	ldrb	r3, [r7, #31]
 8005cf6:	2b04      	cmp	r3, #4
 8005cf8:	d001      	beq.n	8005cfe <HAL_SPI_TransmitReceive+0x4a>
 8005cfa:	2302      	movs	r3, #2
 8005cfc:	e17f      	b.n	8005ffe <HAL_SPI_TransmitReceive+0x34a>
 8005cfe:	68bb      	ldr	r3, [r7, #8]
 8005d00:	2b00      	cmp	r3, #0
 8005d02:	d005      	beq.n	8005d10 <HAL_SPI_TransmitReceive+0x5c>
 8005d04:	687b      	ldr	r3, [r7, #4]
 8005d06:	2b00      	cmp	r3, #0
 8005d08:	d002      	beq.n	8005d10 <HAL_SPI_TransmitReceive+0x5c>
 8005d0a:	887b      	ldrh	r3, [r7, #2]
 8005d0c:	2b00      	cmp	r3, #0
 8005d0e:	d101      	bne.n	8005d14 <HAL_SPI_TransmitReceive+0x60>
 8005d10:	2301      	movs	r3, #1
 8005d12:	e174      	b.n	8005ffe <HAL_SPI_TransmitReceive+0x34a>
 8005d14:	68fb      	ldr	r3, [r7, #12]
 8005d16:	f893 3050 	ldrb.w	r3, [r3, #80]	@ 0x50
 8005d1a:	2b01      	cmp	r3, #1
 8005d1c:	d101      	bne.n	8005d22 <HAL_SPI_TransmitReceive+0x6e>
 8005d1e:	2302      	movs	r3, #2
 8005d20:	e16d      	b.n	8005ffe <HAL_SPI_TransmitReceive+0x34a>
 8005d22:	68fb      	ldr	r3, [r7, #12]
 8005d24:	2201      	movs	r2, #1
 8005d26:	f883 2050 	strb.w	r2, [r3, #80]	@ 0x50
 8005d2a:	68fb      	ldr	r3, [r7, #12]
 8005d2c:	f893 3051 	ldrb.w	r3, [r3, #81]	@ 0x51
 8005d30:	b2db      	uxtb	r3, r3
 8005d32:	2b04      	cmp	r3, #4
 8005d34:	d003      	beq.n	8005d3e <HAL_SPI_TransmitReceive+0x8a>
 8005d36:	68fb      	ldr	r3, [r7, #12]
 8005d38:	2205      	movs	r2, #5
 8005d3a:	f883 2051 	strb.w	r2, [r3, #81]	@ 0x51
 8005d3e:	68fb      	ldr	r3, [r7, #12]
 8005d40:	2200      	movs	r2, #0
 8005d42:	655a      	str	r2, [r3, #84]	@ 0x54
 8005d44:	68fb      	ldr	r3, [r7, #12]
 8005d46:	687a      	ldr	r2, [r7, #4]
 8005d48:	639a      	str	r2, [r3, #56]	@ 0x38
 8005d4a:	68fb      	ldr	r3, [r7, #12]
 8005d4c:	887a      	ldrh	r2, [r7, #2]
 8005d4e:	87da      	strh	r2, [r3, #62]	@ 0x3e
 8005d50:	68fb      	ldr	r3, [r7, #12]
 8005d52:	887a      	ldrh	r2, [r7, #2]
 8005d54:	879a      	strh	r2, [r3, #60]	@ 0x3c
 8005d56:	68fb      	ldr	r3, [r7, #12]
 8005d58:	68ba      	ldr	r2, [r7, #8]
 8005d5a:	631a      	str	r2, [r3, #48]	@ 0x30
 8005d5c:	68fb      	ldr	r3, [r7, #12]
 8005d5e:	887a      	ldrh	r2, [r7, #2]
 8005d60:	86da      	strh	r2, [r3, #54]	@ 0x36
 8005d62:	68fb      	ldr	r3, [r7, #12]
 8005d64:	887a      	ldrh	r2, [r7, #2]
 8005d66:	869a      	strh	r2, [r3, #52]	@ 0x34
 8005d68:	68fb      	ldr	r3, [r7, #12]
 8005d6a:	2200      	movs	r2, #0
 8005d6c:	641a      	str	r2, [r3, #64]	@ 0x40
 8005d6e:	68fb      	ldr	r3, [r7, #12]
 8005d70:	2200      	movs	r2, #0
 8005d72:	645a      	str	r2, [r3, #68]	@ 0x44
 8005d74:	68fb      	ldr	r3, [r7, #12]
 8005d76:	681b      	ldr	r3, [r3, #0]
 8005d78:	681b      	ldr	r3, [r3, #0]
 8005d7a:	f003 0340 	and.w	r3, r3, #64	@ 0x40
 8005d7e:	2b40      	cmp	r3, #64	@ 0x40
 8005d80:	d007      	beq.n	8005d92 <HAL_SPI_TransmitReceive+0xde>
 8005d82:	68fb      	ldr	r3, [r7, #12]
 8005d84:	681b      	ldr	r3, [r3, #0]
 8005d86:	681a      	ldr	r2, [r3, #0]
 8005d88:	68fb      	ldr	r3, [r7, #12]
 8005d8a:	681b      	ldr	r3, [r3, #0]
 8005d8c:	f042 0240 	orr.w	r2, r2, #64	@ 0x40
 8005d90:	601a      	str	r2, [r3, #0]
 8005d92:	68fb      	ldr	r3, [r7, #12]
 8005d94:	68db      	ldr	r3, [r3, #12]
 8005d96:	f5b3 6f00 	cmp.w	r3, #2048	@ 0x800
 8005d9a:	d17e      	bne.n	8005e9a <HAL_SPI_TransmitReceive+0x1e6>
 8005d9c:	68fb      	ldr	r3, [r7, #12]
 8005d9e:	685b      	ldr	r3, [r3, #4]
 8005da0:	2b00      	cmp	r3, #0
 8005da2:	d002      	beq.n	8005daa <HAL_SPI_TransmitReceive+0xf6>
 8005da4:	8afb      	ldrh	r3, [r7, #22]
 8005da6:	2b01      	cmp	r3, #1
 8005da8:	d16c      	bne.n	8005e84 <HAL_SPI_TransmitReceive+0x1d0>
 8005daa:	68fb      	ldr	r3, [r7, #12]
 8005dac:	6b1b      	ldr	r3, [r3, #48]	@ 0x30
 8005dae:	881a      	ldrh	r2, [r3, #0]
 8005db0:	68fb      	ldr	r3, [r7, #12]
 8005db2:	681b      	ldr	r3, [r3, #0]
 8005db4:	60da      	str	r2, [r3, #12]
 8005db6:	68fb      	ldr	r3, [r7, #12]
 8005db8:	6b1b      	ldr	r3, [r3, #48]	@ 0x30
 8005dba:	1c9a      	adds	r2, r3, #2
 8005dbc:	68fb      	ldr	r3, [r7, #12]
 8005dbe:	631a      	str	r2, [r3, #48]	@ 0x30
 8005dc0:	68fb      	ldr	r3, [r7, #12]
 8005dc2:	8edb      	ldrh	r3, [r3, #54]	@ 0x36
 8005dc4:	b29b      	uxth	r3, r3
 8005dc6:	3b01      	subs	r3, #1
 8005dc8:	b29a      	uxth	r2, r3
 8005dca:	68fb      	ldr	r3, [r7, #12]
 8005dcc:	86da      	strh	r2, [r3, #54]	@ 0x36
 8005dce:	e059      	b.n	8005e84 <HAL_SPI_TransmitReceive+0x1d0>
 8005dd0:	68fb      	ldr	r3, [r7, #12]
 8005dd2:	681b      	ldr	r3, [r3, #0]
 8005dd4:	689b      	ldr	r3, [r3, #8]
 8005dd6:	f003 0302 	and.w	r3, r3, #2
 8005dda:	2b02      	cmp	r3, #2
 8005ddc:	d11b      	bne.n	8005e16 <HAL_SPI_TransmitReceive+0x162>
 8005dde:	68fb      	ldr	r3, [r7, #12]
 8005de0:	8edb      	ldrh	r3, [r3, #54]	@ 0x36
 8005de2:	b29b      	uxth	r3, r3
 8005de4:	2b00      	cmp	r3, #0
 8005de6:	d016      	beq.n	8005e16 <HAL_SPI_TransmitReceive+0x162>
 8005de8:	6a7b      	ldr	r3, [r7, #36]	@ 0x24
 8005dea:	2b01      	cmp	r3, #1
 8005dec:	d113      	bne.n	8005e16 <HAL_SPI_TransmitReceive+0x162>
 8005dee:	68fb      	ldr	r3, [r7, #12]
 8005df0:	6b1b      	ldr	r3, [r3, #48]	@ 0x30
 8005df2:	881a      	ldrh	r2, [r3, #0]
 8005df4:	68fb      	ldr	r3, [r7, #12]
 8005df6:	681b      	ldr	r3, [r3, #0]
 8005df8:	60da      	str	r2, [r3, #12]
 8005dfa:	68fb      	ldr	r3, [r7, #12]
 8005dfc:	6b1b      	ldr	r3, [r3, #48]	@ 0x30
 8005dfe:	1c9a      	adds	r2, r3, #2
 8005e00:	68fb      	ldr	r3, [r7, #12]
 8005e02:	631a      	str	r2, [r3, #48]	@ 0x30
 8005e04:	68fb      	ldr	r3, [r7, #12]
 8005e06:	8edb      	ldrh	r3, [r3, #54]	@ 0x36
 8005e08:	b29b      	uxth	r3, r3
 8005e0a:	3b01      	subs	r3, #1
 8005e0c:	b29a      	uxth	r2, r3
 8005e0e:	68fb      	ldr	r3, [r7, #12]
 8005e10:	86da      	strh	r2, [r3, #54]	@ 0x36
 8005e12:	2300      	movs	r3, #0
 8005e14:	627b      	str	r3, [r7, #36]	@ 0x24
 8005e16:	68fb      	ldr	r3, [r7, #12]
 8005e18:	681b      	ldr	r3, [r3, #0]
 8005e1a:	689b      	ldr	r3, [r3, #8]
 8005e1c:	f003 0301 	and.w	r3, r3, #1
 8005e20:	2b01      	cmp	r3, #1
 8005e22:	d119      	bne.n	8005e58 <HAL_SPI_TransmitReceive+0x1a4>
 8005e24:	68fb      	ldr	r3, [r7, #12]
 8005e26:	8fdb      	ldrh	r3, [r3, #62]	@ 0x3e
 8005e28:	b29b      	uxth	r3, r3
 8005e2a:	2b00      	cmp	r3, #0
 8005e2c:	d014      	beq.n	8005e58 <HAL_SPI_TransmitReceive+0x1a4>
 8005e2e:	68fb      	ldr	r3, [r7, #12]
 8005e30:	681b      	ldr	r3, [r3, #0]
 8005e32:	68da      	ldr	r2, [r3, #12]
 8005e34:	68fb      	ldr	r3, [r7, #12]
 8005e36:	6b9b      	ldr	r3, [r3, #56]	@ 0x38
 8005e38:	b292      	uxth	r2, r2
 8005e3a:	801a      	strh	r2, [r3, #0]
 8005e3c:	68fb      	ldr	r3, [r7, #12]
 8005e3e:	6b9b      	ldr	r3, [r3, #56]	@ 0x38
 8005e40:	1c9a      	adds	r2, r3, #2
 8005e42:	68fb      	ldr	r3, [r7, #12]
 8005e44:	639a      	str	r2, [r3, #56]	@ 0x38
 8005e46:	68fb      	ldr	r3, [r7, #12]
 8005e48:	8fdb      	ldrh	r3, [r3, #62]	@ 0x3e
 8005e4a:	b29b      	uxth	r3, r3
 8005e4c:	3b01      	subs	r3, #1
 8005e4e:	b29a      	uxth	r2, r3
 8005e50:	68fb      	ldr	r3, [r7, #12]
 8005e52:	87da      	strh	r2, [r3, #62]	@ 0x3e
 8005e54:	2301      	movs	r3, #1
 8005e56:	627b      	str	r3, [r7, #36]	@ 0x24
 8005e58:	f7fd f8ea 	bl	8003030 <HAL_GetTick>
 8005e5c:	4602      	mov	r2, r0
 8005e5e:	6a3b      	ldr	r3, [r7, #32]
 8005e60:	1ad3      	subs	r3, r2, r3
 8005e62:	6b3a      	ldr	r2, [r7, #48]	@ 0x30
 8005e64:	429a      	cmp	r2, r3
 8005e66:	d80d      	bhi.n	8005e84 <HAL_SPI_TransmitReceive+0x1d0>
 8005e68:	6b3b      	ldr	r3, [r7, #48]	@ 0x30
 8005e6a:	f1b3 3fff 	cmp.w	r3, #4294967295
 8005e6e:	d009      	beq.n	8005e84 <HAL_SPI_TransmitReceive+0x1d0>
 8005e70:	68fb      	ldr	r3, [r7, #12]
 8005e72:	2201      	movs	r2, #1
 8005e74:	f883 2051 	strb.w	r2, [r3, #81]	@ 0x51
 8005e78:	68fb      	ldr	r3, [r7, #12]
 8005e7a:	2200      	movs	r2, #0
 8005e7c:	f883 2050 	strb.w	r2, [r3, #80]	@ 0x50
 8005e80:	2303      	movs	r3, #3
 8005e82:	e0bc      	b.n	8005ffe <HAL_SPI_TransmitReceive+0x34a>
 8005e84:	68fb      	ldr	r3, [r7, #12]
 8005e86:	8edb      	ldrh	r3, [r3, #54]	@ 0x36
 8005e88:	b29b      	uxth	r3, r3
 8005e8a:	2b00      	cmp	r3, #0
 8005e8c:	d1a0      	bne.n	8005dd0 <HAL_SPI_TransmitReceive+0x11c>
 8005e8e:	68fb      	ldr	r3, [r7, #12]
 8005e90:	8fdb      	ldrh	r3, [r3, #62]	@ 0x3e
 8005e92:	b29b      	uxth	r3, r3
 8005e94:	2b00      	cmp	r3, #0
 8005e96:	d19b      	bne.n	8005dd0 <HAL_SPI_TransmitReceive+0x11c>
 8005e98:	e082      	b.n	8005fa0 <HAL_SPI_TransmitReceive+0x2ec>
 8005e9a:	68fb      	ldr	r3, [r7, #12]
 8005e9c:	685b      	ldr	r3, [r3, #4]
 8005e9e:	2b00      	cmp	r3, #0
 8005ea0:	d002      	beq.n	8005ea8 <HAL_SPI_TransmitReceive+0x1f4>
 8005ea2:	8afb      	ldrh	r3, [r7, #22]
 8005ea4:	2b01      	cmp	r3, #1
 8005ea6:	d171      	bne.n	8005f8c <HAL_SPI_TransmitReceive+0x2d8>
 8005ea8:	68fb      	ldr	r3, [r7, #12]
 8005eaa:	6b1a      	ldr	r2, [r3, #48]	@ 0x30
 8005eac:	68fb      	ldr	r3, [r7, #12]
 8005eae:	681b      	ldr	r3, [r3, #0]
 8005eb0:	330c      	adds	r3, #12
 8005eb2:	7812      	ldrb	r2, [r2, #0]
 8005eb4:	701a      	strb	r2, [r3, #0]
 8005eb6:	68fb      	ldr	r3, [r7, #12]
 8005eb8:	6b1b      	ldr	r3, [r3, #48]	@ 0x30
 8005eba:	1c5a      	adds	r2, r3, #1
 8005ebc:	68fb      	ldr	r3, [r7, #12]
 8005ebe:	631a      	str	r2, [r3, #48]	@ 0x30
 8005ec0:	68fb      	ldr	r3, [r7, #12]
 8005ec2:	8edb      	ldrh	r3, [r3, #54]	@ 0x36
 8005ec4:	b29b      	uxth	r3, r3
 8005ec6:	3b01      	subs	r3, #1
 8005ec8:	b29a      	uxth	r2, r3
 8005eca:	68fb      	ldr	r3, [r7, #12]
 8005ecc:	86da      	strh	r2, [r3, #54]	@ 0x36
 8005ece:	e05d      	b.n	8005f8c <HAL_SPI_TransmitReceive+0x2d8>
 8005ed0:	68fb      	ldr	r3, [r7, #12]
 8005ed2:	681b      	ldr	r3, [r3, #0]
 8005ed4:	689b      	ldr	r3, [r3, #8]
 8005ed6:	f003 0302 	and.w	r3, r3, #2
 8005eda:	2b02      	cmp	r3, #2
 8005edc:	d11c      	bne.n	8005f18 <HAL_SPI_TransmitReceive+0x264>
 8005ede:	68fb      	ldr	r3, [r7, #12]
 8005ee0:	8edb      	ldrh	r3, [r3, #54]	@ 0x36
 8005ee2:	b29b      	uxth	r3, r3
 8005ee4:	2b00      	cmp	r3, #0
 8005ee6:	d017      	beq.n	8005f18 <HAL_SPI_TransmitReceive+0x264>
 8005ee8:	6a7b      	ldr	r3, [r7, #36]	@ 0x24
 8005eea:	2b01      	cmp	r3, #1
 8005eec:	d114      	bne.n	8005f18 <HAL_SPI_TransmitReceive+0x264>
 8005eee:	68fb      	ldr	r3, [r7, #12]
 8005ef0:	6b1a      	ldr	r2, [r3, #48]	@ 0x30
 8005ef2:	68fb      	ldr	r3, [r7, #12]
 8005ef4:	681b      	ldr	r3, [r3, #0]
 8005ef6:	330c      	adds	r3, #12
 8005ef8:	7812      	ldrb	r2, [r2, #0]
 8005efa:	701a      	strb	r2, [r3, #0]
 8005efc:	68fb      	ldr	r3, [r7, #12]
 8005efe:	6b1b      	ldr	r3, [r3, #48]	@ 0x30
 8005f00:	1c5a      	adds	r2, r3, #1
 8005f02:	68fb      	ldr	r3, [r7, #12]
 8005f04:	631a      	str	r2, [r3, #48]	@ 0x30
 8005f06:	68fb      	ldr	r3, [r7, #12]
 8005f08:	8edb      	ldrh	r3, [r3, #54]	@ 0x36
 8005f0a:	b29b      	uxth	r3, r3
 8005f0c:	3b01      	subs	r3, #1
 8005f0e:	b29a      	uxth	r2, r3
 8005f10:	68fb      	ldr	r3, [r7, #12]
 8005f12:	86da      	strh	r2, [r3, #54]	@ 0x36
 8005f14:	2300      	movs	r3, #0
 8005f16:	627b      	str	r3, [r7, #36]	@ 0x24
 8005f18:	68fb      	ldr	r3, [r7, #12]
 8005f1a:	681b      	ldr	r3, [r3, #0]
 8005f1c:	689b      	ldr	r3, [r3, #8]
 8005f1e:	f003 0301 	and.w	r3, r3, #1
 8005f22:	2b01      	cmp	r3, #1
 8005f24:	d119      	bne.n	8005f5a <HAL_SPI_TransmitReceive+0x2a6>
 8005f26:	68fb      	ldr	r3, [r7, #12]
 8005f28:	8fdb      	ldrh	r3, [r3, #62]	@ 0x3e
 8005f2a:	b29b      	uxth	r3, r3
 8005f2c:	2b00      	cmp	r3, #0
 8005f2e:	d014      	beq.n	8005f5a <HAL_SPI_TransmitReceive+0x2a6>
 8005f30:	68fb      	ldr	r3, [r7, #12]
 8005f32:	681b      	ldr	r3, [r3, #0]
 8005f34:	68da      	ldr	r2, [r3, #12]
 8005f36:	68fb      	ldr	r3, [r7, #12]
 8005f38:	6b9b      	ldr	r3, [r3, #56]	@ 0x38
 8005f3a:	b2d2      	uxtb	r2, r2
 8005f3c:	701a      	strb	r2, [r3, #0]
 8005f3e:	68fb      	ldr	r3, [r7, #12]
 8005f40:	6b9b      	ldr	r3, [r3, #56]	@ 0x38
 8005f42:	1c5a      	adds	r2, r3, #1
 8005f44:	68fb      	ldr	r3, [r7, #12]
 8005f46:	639a      	str	r2, [r3, #56]	@ 0x38
 8005f48:	68fb      	ldr	r3, [r7, #12]
 8005f4a:	8fdb      	ldrh	r3, [r3, #62]	@ 0x3e
 8005f4c:	b29b      	uxth	r3, r3
 8005f4e:	3b01      	subs	r3, #1
 8005f50:	b29a      	uxth	r2, r3
 8005f52:	68fb      	ldr	r3, [r7, #12]
 8005f54:	87da      	strh	r2, [r3, #62]	@ 0x3e
 8005f56:	2301      	movs	r3, #1
 8005f58:	627b      	str	r3, [r7, #36]	@ 0x24
 8005f5a:	f7fd f869 	bl	8003030 <HAL_GetTick>
 8005f5e:	4602      	mov	r2, r0
 8005f60:	6a3b      	ldr	r3, [r7, #32]
 8005f62:	1ad3      	subs	r3, r2, r3
 8005f64:	6b3a      	ldr	r2, [r7, #48]	@ 0x30
 8005f66:	429a      	cmp	r2, r3
 8005f68:	d803      	bhi.n	8005f72 <HAL_SPI_TransmitReceive+0x2be>
 8005f6a:	6b3b      	ldr	r3, [r7, #48]	@ 0x30
 8005f6c:	f1b3 3fff 	cmp.w	r3, #4294967295
 8005f70:	d102      	bne.n	8005f78 <HAL_SPI_TransmitReceive+0x2c4>
 8005f72:	6b3b      	ldr	r3, [r7, #48]	@ 0x30
 8005f74:	2b00      	cmp	r3, #0
 8005f76:	d109      	bne.n	8005f8c <HAL_SPI_TransmitReceive+0x2d8>
 8005f78:	68fb      	ldr	r3, [r7, #12]
 8005f7a:	2201      	movs	r2, #1
 8005f7c:	f883 2051 	strb.w	r2, [r3, #81]	@ 0x51
 8005f80:	68fb      	ldr	r3, [r7, #12]
 8005f82:	2200      	movs	r2, #0
 8005f84:	f883 2050 	strb.w	r2, [r3, #80]	@ 0x50
 8005f88:	2303      	movs	r3, #3
 8005f8a:	e038      	b.n	8005ffe <HAL_SPI_TransmitReceive+0x34a>
 8005f8c:	68fb      	ldr	r3, [r7, #12]
 8005f8e:	8edb      	ldrh	r3, [r3, #54]	@ 0x36
 8005f90:	b29b      	uxth	r3, r3
 8005f92:	2b00      	cmp	r3, #0
 8005f94:	d19c      	bne.n	8005ed0 <HAL_SPI_TransmitReceive+0x21c>
 8005f96:	68fb      	ldr	r3, [r7, #12]
 8005f98:	8fdb      	ldrh	r3, [r3, #62]	@ 0x3e
 8005f9a:	b29b      	uxth	r3, r3
 8005f9c:	2b00      	cmp	r3, #0
 8005f9e:	d197      	bne.n	8005ed0 <HAL_SPI_TransmitReceive+0x21c>
 8005fa0:	6a3a      	ldr	r2, [r7, #32]
 8005fa2:	6b39      	ldr	r1, [r7, #48]	@ 0x30
 8005fa4:	68f8      	ldr	r0, [r7, #12]
 8005fa6:	f000 f8b7 	bl	8006118 <SPI_EndRxTxTransaction>
 8005faa:	4603      	mov	r3, r0
 8005fac:	2b00      	cmp	r3, #0
 8005fae:	d008      	beq.n	8005fc2 <HAL_SPI_TransmitReceive+0x30e>
 8005fb0:	68fb      	ldr	r3, [r7, #12]
 8005fb2:	2220      	movs	r2, #32
 8005fb4:	655a      	str	r2, [r3, #84]	@ 0x54
 8005fb6:	68fb      	ldr	r3, [r7, #12]
 8005fb8:	2200      	movs	r2, #0
 8005fba:	f883 2050 	strb.w	r2, [r3, #80]	@ 0x50
 8005fbe:	2301      	movs	r3, #1
 8005fc0:	e01d      	b.n	8005ffe <HAL_SPI_TransmitReceive+0x34a>
 8005fc2:	68fb      	ldr	r3, [r7, #12]
 8005fc4:	689b      	ldr	r3, [r3, #8]
 8005fc6:	2b00      	cmp	r3, #0
 8005fc8:	d10a      	bne.n	8005fe0 <HAL_SPI_TransmitReceive+0x32c>
 8005fca:	2300      	movs	r3, #0
 8005fcc:	613b      	str	r3, [r7, #16]
 8005fce:	68fb      	ldr	r3, [r7, #12]
 8005fd0:	681b      	ldr	r3, [r3, #0]
 8005fd2:	68db      	ldr	r3, [r3, #12]
 8005fd4:	613b      	str	r3, [r7, #16]
 8005fd6:	68fb      	ldr	r3, [r7, #12]
 8005fd8:	681b      	ldr	r3, [r3, #0]
 8005fda:	689b      	ldr	r3, [r3, #8]
 8005fdc:	613b      	str	r3, [r7, #16]
 8005fde:	693b      	ldr	r3, [r7, #16]
 8005fe0:	68fb      	ldr	r3, [r7, #12]
 8005fe2:	2201      	movs	r2, #1
 8005fe4:	f883 2051 	strb.w	r2, [r3, #81]	@ 0x51
 8005fe8:	68fb      	ldr	r3, [r7, #12]
 8005fea:	2200      	movs	r2, #0
 8005fec:	f883 2050 	strb.w	r2, [r3, #80]	@ 0x50
 8005ff0:	68fb      	ldr	r3, [r7, #12]
 8005ff2:	6d5b      	ldr	r3, [r3, #84]	@ 0x54
 8005ff4:	2b00      	cmp	r3, #0
 8005ff6:	d001      	beq.n	8005ffc <HAL_SPI_TransmitReceive+0x348>
 8005ff8:	2301      	movs	r3, #1
 8005ffa:	e000      	b.n	8005ffe <HAL_SPI_TransmitReceive+0x34a>
 8005ffc:	2300      	movs	r3, #0
 8005ffe:	4618      	mov	r0, r3
 8006000:	3728      	adds	r7, #40	@ 0x28
 8006002:	46bd      	mov	sp, r7
 8006004:	bd80      	pop	{r7, pc}
	...

08006008 <SPI_WaitFlagStateUntilTimeout>:
 8006008:	b580      	push	{r7, lr}
 800600a:	b088      	sub	sp, #32
 800600c:	af00      	add	r7, sp, #0
 800600e:	60f8      	str	r0, [r7, #12]
 8006010:	60b9      	str	r1, [r7, #8]
 8006012:	603b      	str	r3, [r7, #0]
 8006014:	4613      	mov	r3, r2
 8006016:	71fb      	strb	r3, [r7, #7]
 8006018:	f7fd f80a 	bl	8003030 <HAL_GetTick>
 800601c:	4602      	mov	r2, r0
 800601e:	6abb      	ldr	r3, [r7, #40]	@ 0x28
 8006020:	1a9b      	subs	r3, r3, r2
 8006022:	683a      	ldr	r2, [r7, #0]
 8006024:	4413      	add	r3, r2
 8006026:	61fb      	str	r3, [r7, #28]
 8006028:	f7fd f802 	bl	8003030 <HAL_GetTick>
 800602c:	61b8      	str	r0, [r7, #24]
 800602e:	4b39      	ldr	r3, [pc, #228]	@ (8006114 <SPI_WaitFlagStateUntilTimeout+0x10c>)
 8006030:	681b      	ldr	r3, [r3, #0]
 8006032:	015b      	lsls	r3, r3, #5
 8006034:	0d1b      	lsrs	r3, r3, #20
 8006036:	69fa      	ldr	r2, [r7, #28]
 8006038:	fb02 f303 	mul.w	r3, r2, r3
 800603c:	617b      	str	r3, [r7, #20]
 800603e:	e054      	b.n	80060ea <SPI_WaitFlagStateUntilTimeout+0xe2>
 8006040:	683b      	ldr	r3, [r7, #0]
 8006042:	f1b3 3fff 	cmp.w	r3, #4294967295
 8006046:	d050      	beq.n	80060ea <SPI_WaitFlagStateUntilTimeout+0xe2>
 8006048:	f7fc fff2 	bl	8003030 <HAL_GetTick>
 800604c:	4602      	mov	r2, r0
 800604e:	69bb      	ldr	r3, [r7, #24]
 8006050:	1ad3      	subs	r3, r2, r3
 8006052:	69fa      	ldr	r2, [r7, #28]
 8006054:	429a      	cmp	r2, r3
 8006056:	d902      	bls.n	800605e <SPI_WaitFlagStateUntilTimeout+0x56>
 8006058:	69fb      	ldr	r3, [r7, #28]
 800605a:	2b00      	cmp	r3, #0
 800605c:	d13d      	bne.n	80060da <SPI_WaitFlagStateUntilTimeout+0xd2>
 800605e:	68fb      	ldr	r3, [r7, #12]
 8006060:	681b      	ldr	r3, [r3, #0]
 8006062:	685a      	ldr	r2, [r3, #4]
 8006064:	68fb      	ldr	r3, [r7, #12]
 8006066:	681b      	ldr	r3, [r3, #0]
 8006068:	f022 02e0 	bic.w	r2, r2, #224	@ 0xe0
 800606c:	605a      	str	r2, [r3, #4]
 800606e:	68fb      	ldr	r3, [r7, #12]
 8006070:	685b      	ldr	r3, [r3, #4]
 8006072:	f5b3 7f82 	cmp.w	r3, #260	@ 0x104
 8006076:	d111      	bne.n	800609c <SPI_WaitFlagStateUntilTimeout+0x94>
 8006078:	68fb      	ldr	r3, [r7, #12]
 800607a:	689b      	ldr	r3, [r3, #8]
 800607c:	f5b3 4f00 	cmp.w	r3, #32768	@ 0x8000
 8006080:	d004      	beq.n	800608c <SPI_WaitFlagStateUntilTimeout+0x84>
 8006082:	68fb      	ldr	r3, [r7, #12]
 8006084:	689b      	ldr	r3, [r3, #8]
 8006086:	f5b3 6f80 	cmp.w	r3, #1024	@ 0x400
 800608a:	d107      	bne.n	800609c <SPI_WaitFlagStateUntilTimeout+0x94>
 800608c:	68fb      	ldr	r3, [r7, #12]
 800608e:	681b      	ldr	r3, [r3, #0]
 8006090:	681a      	ldr	r2, [r3, #0]
 8006092:	68fb      	ldr	r3, [r7, #12]
 8006094:	681b      	ldr	r3, [r3, #0]
 8006096:	f022 0240 	bic.w	r2, r2, #64	@ 0x40
 800609a:	601a      	str	r2, [r3, #0]
 800609c:	68fb      	ldr	r3, [r7, #12]
 800609e:	6a9b      	ldr	r3, [r3, #40]	@ 0x28
 80060a0:	f5b3 5f00 	cmp.w	r3, #8192	@ 0x2000
 80060a4:	d10f      	bne.n	80060c6 <SPI_WaitFlagStateUntilTimeout+0xbe>
 80060a6:	68fb      	ldr	r3, [r7, #12]
 80060a8:	681b      	ldr	r3, [r3, #0]
 80060aa:	681a      	ldr	r2, [r3, #0]
 80060ac:	68fb      	ldr	r3, [r7, #12]
 80060ae:	681b      	ldr	r3, [r3, #0]
 80060b0:	f422 5200 	bic.w	r2, r2, #8192	@ 0x2000
 80060b4:	601a      	str	r2, [r3, #0]
 80060b6:	68fb      	ldr	r3, [r7, #12]
 80060b8:	681b      	ldr	r3, [r3, #0]
 80060ba:	681a      	ldr	r2, [r3, #0]
 80060bc:	68fb      	ldr	r3, [r7, #12]
 80060be:	681b      	ldr	r3, [r3, #0]
 80060c0:	f442 5200 	orr.w	r2, r2, #8192	@ 0x2000
 80060c4:	601a      	str	r2, [r3, #0]
 80060c6:	68fb      	ldr	r3, [r7, #12]
 80060c8:	2201      	movs	r2, #1
 80060ca:	f883 2051 	strb.w	r2, [r3, #81]	@ 0x51
 80060ce:	68fb      	ldr	r3, [r7, #12]
 80060d0:	2200      	movs	r2, #0
 80060d2:	f883 2050 	strb.w	r2, [r3, #80]	@ 0x50
 80060d6:	2303      	movs	r3, #3
 80060d8:	e017      	b.n	800610a <SPI_WaitFlagStateUntilTimeout+0x102>
 80060da:	697b      	ldr	r3, [r7, #20]
 80060dc:	2b00      	cmp	r3, #0
 80060de:	d101      	bne.n	80060e4 <SPI_WaitFlagStateUntilTimeout+0xdc>
 80060e0:	2300      	movs	r3, #0
 80060e2:	61fb      	str	r3, [r7, #28]
 80060e4:	697b      	ldr	r3, [r7, #20]
 80060e6:	3b01      	subs	r3, #1
 80060e8:	617b      	str	r3, [r7, #20]
 80060ea:	68fb      	ldr	r3, [r7, #12]
 80060ec:	681b      	ldr	r3, [r3, #0]
 80060ee:	689a      	ldr	r2, [r3, #8]
 80060f0:	68bb      	ldr	r3, [r7, #8]
 80060f2:	4013      	ands	r3, r2
 80060f4:	68ba      	ldr	r2, [r7, #8]
 80060f6:	429a      	cmp	r2, r3
 80060f8:	bf0c      	ite	eq
 80060fa:	2301      	moveq	r3, #1
 80060fc:	2300      	movne	r3, #0
 80060fe:	b2db      	uxtb	r3, r3
 8006100:	461a      	mov	r2, r3
 8006102:	79fb      	ldrb	r3, [r7, #7]
 8006104:	429a      	cmp	r2, r3
 8006106:	d19b      	bne.n	8006040 <SPI_WaitFlagStateUntilTimeout+0x38>
 8006108:	2300      	movs	r3, #0
 800610a:	4618      	mov	r0, r3
 800610c:	3720      	adds	r7, #32
 800610e:	46bd      	mov	sp, r7
 8006110:	bd80      	pop	{r7, pc}
 8006112:	bf00      	nop
 8006114:	20000008 	.word	0x20000008

08006118 <SPI_EndRxTxTransaction>:
 8006118:	b580      	push	{r7, lr}
 800611a:	b086      	sub	sp, #24
 800611c:	af02      	add	r7, sp, #8
 800611e:	60f8      	str	r0, [r7, #12]
 8006120:	60b9      	str	r1, [r7, #8]
 8006122:	607a      	str	r2, [r7, #4]
 8006124:	687b      	ldr	r3, [r7, #4]
 8006126:	9300      	str	r3, [sp, #0]
 8006128:	68bb      	ldr	r3, [r7, #8]
 800612a:	2201      	movs	r2, #1
 800612c:	2102      	movs	r1, #2
 800612e:	68f8      	ldr	r0, [r7, #12]
 8006130:	f7ff ff6a 	bl	8006008 <SPI_WaitFlagStateUntilTimeout>
 8006134:	4603      	mov	r3, r0
 8006136:	2b00      	cmp	r3, #0
 8006138:	d007      	beq.n	800614a <SPI_EndRxTxTransaction+0x32>
 800613a:	68fb      	ldr	r3, [r7, #12]
 800613c:	6d5b      	ldr	r3, [r3, #84]	@ 0x54
 800613e:	f043 0220 	orr.w	r2, r3, #32
 8006142:	68fb      	ldr	r3, [r7, #12]
 8006144:	655a      	str	r2, [r3, #84]	@ 0x54
 8006146:	2303      	movs	r3, #3
 8006148:	e013      	b.n	8006172 <SPI_EndRxTxTransaction+0x5a>
 800614a:	687b      	ldr	r3, [r7, #4]
 800614c:	9300      	str	r3, [sp, #0]
 800614e:	68bb      	ldr	r3, [r7, #8]
 8006150:	2200      	movs	r2, #0
 8006152:	2180      	movs	r1, #128	@ 0x80
 8006154:	68f8      	ldr	r0, [r7, #12]
 8006156:	f7ff ff57 	bl	8006008 <SPI_WaitFlagStateUntilTimeout>
 800615a:	4603      	mov	r3, r0
 800615c:	2b00      	cmp	r3, #0
 800615e:	d007      	beq.n	8006170 <SPI_EndRxTxTransaction+0x58>
 8006160:	68fb      	ldr	r3, [r7, #12]
 8006162:	6d5b      	ldr	r3, [r3, #84]	@ 0x54
 8006164:	f043 0220 	orr.w	r2, r3, #32
 8006168:	68fb      	ldr	r3, [r7, #12]
 800616a:	655a      	str	r2, [r3, #84]	@ 0x54
 800616c:	2303      	movs	r3, #3
 800616e:	e000      	b.n	8006172 <SPI_EndRxTxTransaction+0x5a>
 8006170:	2300      	movs	r3, #0
 8006172:	4618      	mov	r0, r3
 8006174:	3710      	adds	r7, #16
 8006176:	46bd      	mov	sp, r7
 8006178:	bd80      	pop	{r7, pc}

0800617a <HAL_TIM_Base_Init>:
 800617a:	b580      	push	{r7, lr}
 800617c:	b082      	sub	sp, #8
 800617e:	af00      	add	r7, sp, #0
 8006180:	6078      	str	r0, [r7, #4]
 8006182:	687b      	ldr	r3, [r7, #4]
 8006184:	2b00      	cmp	r3, #0
 8006186:	d101      	bne.n	800618c <HAL_TIM_Base_Init+0x12>
 8006188:	2301      	movs	r3, #1
 800618a:	e041      	b.n	8006210 <HAL_TIM_Base_Init+0x96>
 800618c:	687b      	ldr	r3, [r7, #4]
 800618e:	f893 303d 	ldrb.w	r3, [r3, #61]	@ 0x3d
 8006192:	b2db      	uxtb	r3, r3
 8006194:	2b00      	cmp	r3, #0
 8006196:	d106      	bne.n	80061a6 <HAL_TIM_Base_Init+0x2c>
 8006198:	687b      	ldr	r3, [r7, #4]
 800619a:	2200      	movs	r2, #0
 800619c:	f883 203c 	strb.w	r2, [r3, #60]	@ 0x3c
 80061a0:	6878      	ldr	r0, [r7, #4]
 80061a2:	f7fc fdd5 	bl	8002d50 <HAL_TIM_Base_MspInit>
 80061a6:	687b      	ldr	r3, [r7, #4]
 80061a8:	2202      	movs	r2, #2
 80061aa:	f883 203d 	strb.w	r2, [r3, #61]	@ 0x3d
 80061ae:	687b      	ldr	r3, [r7, #4]
 80061b0:	681a      	ldr	r2, [r3, #0]
 80061b2:	687b      	ldr	r3, [r7, #4]
 80061b4:	3304      	adds	r3, #4
 80061b6:	4619      	mov	r1, r3
 80061b8:	4610      	mov	r0, r2
 80061ba:	f000 f93f 	bl	800643c <TIM_Base_SetConfig>
 80061be:	687b      	ldr	r3, [r7, #4]
 80061c0:	2201      	movs	r2, #1
 80061c2:	f883 2046 	strb.w	r2, [r3, #70]	@ 0x46
 80061c6:	687b      	ldr	r3, [r7, #4]
 80061c8:	2201      	movs	r2, #1
 80061ca:	f883 203e 	strb.w	r2, [r3, #62]	@ 0x3e
 80061ce:	687b      	ldr	r3, [r7, #4]
 80061d0:	2201      	movs	r2, #1
 80061d2:	f883 203f 	strb.w	r2, [r3, #63]	@ 0x3f
 80061d6:	687b      	ldr	r3, [r7, #4]
 80061d8:	2201      	movs	r2, #1
 80061da:	f883 2040 	strb.w	r2, [r3, #64]	@ 0x40
 80061de:	687b      	ldr	r3, [r7, #4]
 80061e0:	2201      	movs	r2, #1
 80061e2:	f883 2041 	strb.w	r2, [r3, #65]	@ 0x41
 80061e6:	687b      	ldr	r3, [r7, #4]
 80061e8:	2201      	movs	r2, #1
 80061ea:	f883 2042 	strb.w	r2, [r3, #66]	@ 0x42
 80061ee:	687b      	ldr	r3, [r7, #4]
 80061f0:	2201      	movs	r2, #1
 80061f2:	f883 2043 	strb.w	r2, [r3, #67]	@ 0x43
 80061f6:	687b      	ldr	r3, [r7, #4]
 80061f8:	2201      	movs	r2, #1
 80061fa:	f883 2044 	strb.w	r2, [r3, #68]	@ 0x44
 80061fe:	687b      	ldr	r3, [r7, #4]
 8006200:	2201      	movs	r2, #1
 8006202:	f883 2045 	strb.w	r2, [r3, #69]	@ 0x45
 8006206:	687b      	ldr	r3, [r7, #4]
 8006208:	2201      	movs	r2, #1
 800620a:	f883 203d 	strb.w	r2, [r3, #61]	@ 0x3d
 800620e:	2300      	movs	r3, #0
 8006210:	4618      	mov	r0, r3
 8006212:	3708      	adds	r7, #8
 8006214:	46bd      	mov	sp, r7
 8006216:	bd80      	pop	{r7, pc}

08006218 <HAL_TIM_Base_Start>:
 8006218:	b480      	push	{r7}
 800621a:	b085      	sub	sp, #20
 800621c:	af00      	add	r7, sp, #0
 800621e:	6078      	str	r0, [r7, #4]
 8006220:	687b      	ldr	r3, [r7, #4]
 8006222:	f893 303d 	ldrb.w	r3, [r3, #61]	@ 0x3d
 8006226:	b2db      	uxtb	r3, r3
 8006228:	2b01      	cmp	r3, #1
 800622a:	d001      	beq.n	8006230 <HAL_TIM_Base_Start+0x18>
 800622c:	2301      	movs	r3, #1
 800622e:	e032      	b.n	8006296 <HAL_TIM_Base_Start+0x7e>
 8006230:	687b      	ldr	r3, [r7, #4]
 8006232:	2202      	movs	r2, #2
 8006234:	f883 203d 	strb.w	r2, [r3, #61]	@ 0x3d
 8006238:	687b      	ldr	r3, [r7, #4]
 800623a:	681b      	ldr	r3, [r3, #0]
 800623c:	4a18      	ldr	r2, [pc, #96]	@ (80062a0 <HAL_TIM_Base_Start+0x88>)
 800623e:	4293      	cmp	r3, r2
 8006240:	d00e      	beq.n	8006260 <HAL_TIM_Base_Start+0x48>
 8006242:	687b      	ldr	r3, [r7, #4]
 8006244:	681b      	ldr	r3, [r3, #0]
 8006246:	f1b3 4f80 	cmp.w	r3, #1073741824	@ 0x40000000
 800624a:	d009      	beq.n	8006260 <HAL_TIM_Base_Start+0x48>
 800624c:	687b      	ldr	r3, [r7, #4]
 800624e:	681b      	ldr	r3, [r3, #0]
 8006250:	4a14      	ldr	r2, [pc, #80]	@ (80062a4 <HAL_TIM_Base_Start+0x8c>)
 8006252:	4293      	cmp	r3, r2
 8006254:	d004      	beq.n	8006260 <HAL_TIM_Base_Start+0x48>
 8006256:	687b      	ldr	r3, [r7, #4]
 8006258:	681b      	ldr	r3, [r3, #0]
 800625a:	4a13      	ldr	r2, [pc, #76]	@ (80062a8 <HAL_TIM_Base_Start+0x90>)
 800625c:	4293      	cmp	r3, r2
 800625e:	d111      	bne.n	8006284 <HAL_TIM_Base_Start+0x6c>
 8006260:	687b      	ldr	r3, [r7, #4]
 8006262:	681b      	ldr	r3, [r3, #0]
 8006264:	689b      	ldr	r3, [r3, #8]
 8006266:	f003 0307 	and.w	r3, r3, #7
 800626a:	60fb      	str	r3, [r7, #12]
 800626c:	68fb      	ldr	r3, [r7, #12]
 800626e:	2b06      	cmp	r3, #6
 8006270:	d010      	beq.n	8006294 <HAL_TIM_Base_Start+0x7c>
 8006272:	687b      	ldr	r3, [r7, #4]
 8006274:	681b      	ldr	r3, [r3, #0]
 8006276:	681a      	ldr	r2, [r3, #0]
 8006278:	687b      	ldr	r3, [r7, #4]
 800627a:	681b      	ldr	r3, [r3, #0]
 800627c:	f042 0201 	orr.w	r2, r2, #1
 8006280:	601a      	str	r2, [r3, #0]
 8006282:	e007      	b.n	8006294 <HAL_TIM_Base_Start+0x7c>
 8006284:	687b      	ldr	r3, [r7, #4]
 8006286:	681b      	ldr	r3, [r3, #0]
 8006288:	681a      	ldr	r2, [r3, #0]
 800628a:	687b      	ldr	r3, [r7, #4]
 800628c:	681b      	ldr	r3, [r3, #0]
 800628e:	f042 0201 	orr.w	r2, r2, #1
 8006292:	601a      	str	r2, [r3, #0]
 8006294:	2300      	movs	r3, #0
 8006296:	4618      	mov	r0, r3
 8006298:	3714      	adds	r7, #20
 800629a:	46bd      	mov	sp, r7
 800629c:	bc80      	pop	{r7}
 800629e:	4770      	bx	lr
 80062a0:	40012c00 	.word	0x40012c00
 80062a4:	40000400 	.word	0x40000400
 80062a8:	40000800 	.word	0x40000800

080062ac <HAL_TIM_ConfigClockSource>:
 80062ac:	b580      	push	{r7, lr}
 80062ae:	b084      	sub	sp, #16
 80062b0:	af00      	add	r7, sp, #0
 80062b2:	6078      	str	r0, [r7, #4]
 80062b4:	6039      	str	r1, [r7, #0]
 80062b6:	2300      	movs	r3, #0
 80062b8:	73fb      	strb	r3, [r7, #15]
 80062ba:	687b      	ldr	r3, [r7, #4]
 80062bc:	f893 303c 	ldrb.w	r3, [r3, #60]	@ 0x3c
 80062c0:	2b01      	cmp	r3, #1
 80062c2:	d101      	bne.n	80062c8 <HAL_TIM_ConfigClockSource+0x1c>
 80062c4:	2302      	movs	r3, #2
 80062c6:	e0b4      	b.n	8006432 <HAL_TIM_ConfigClockSource+0x186>
 80062c8:	687b      	ldr	r3, [r7, #4]
 80062ca:	2201      	movs	r2, #1
 80062cc:	f883 203c 	strb.w	r2, [r3, #60]	@ 0x3c
 80062d0:	687b      	ldr	r3, [r7, #4]
 80062d2:	2202      	movs	r2, #2
 80062d4:	f883 203d 	strb.w	r2, [r3, #61]	@ 0x3d
 80062d8:	687b      	ldr	r3, [r7, #4]
 80062da:	681b      	ldr	r3, [r3, #0]
 80062dc:	689b      	ldr	r3, [r3, #8]
 80062de:	60bb      	str	r3, [r7, #8]
 80062e0:	68bb      	ldr	r3, [r7, #8]
 80062e2:	f023 0377 	bic.w	r3, r3, #119	@ 0x77
 80062e6:	60bb      	str	r3, [r7, #8]
 80062e8:	68bb      	ldr	r3, [r7, #8]
 80062ea:	f423 437f 	bic.w	r3, r3, #65280	@ 0xff00
 80062ee:	60bb      	str	r3, [r7, #8]
 80062f0:	687b      	ldr	r3, [r7, #4]
 80062f2:	681b      	ldr	r3, [r3, #0]
 80062f4:	68ba      	ldr	r2, [r7, #8]
 80062f6:	609a      	str	r2, [r3, #8]
 80062f8:	683b      	ldr	r3, [r7, #0]
 80062fa:	681b      	ldr	r3, [r3, #0]
 80062fc:	f5b3 5f00 	cmp.w	r3, #8192	@ 0x2000
 8006300:	d03e      	beq.n	8006380 <HAL_TIM_ConfigClockSource+0xd4>
 8006302:	f5b3 5f00 	cmp.w	r3, #8192	@ 0x2000
 8006306:	f200 8087 	bhi.w	8006418 <HAL_TIM_ConfigClockSource+0x16c>
 800630a:	f5b3 5f80 	cmp.w	r3, #4096	@ 0x1000
 800630e:	f000 8086 	beq.w	800641e <HAL_TIM_ConfigClockSource+0x172>
 8006312:	f5b3 5f80 	cmp.w	r3, #4096	@ 0x1000
 8006316:	d87f      	bhi.n	8006418 <HAL_TIM_ConfigClockSource+0x16c>
 8006318:	2b70      	cmp	r3, #112	@ 0x70
 800631a:	d01a      	beq.n	8006352 <HAL_TIM_ConfigClockSource+0xa6>
 800631c:	2b70      	cmp	r3, #112	@ 0x70
 800631e:	d87b      	bhi.n	8006418 <HAL_TIM_ConfigClockSource+0x16c>
 8006320:	2b60      	cmp	r3, #96	@ 0x60
 8006322:	d050      	beq.n	80063c6 <HAL_TIM_ConfigClockSource+0x11a>
 8006324:	2b60      	cmp	r3, #96	@ 0x60
 8006326:	d877      	bhi.n	8006418 <HAL_TIM_ConfigClockSource+0x16c>
 8006328:	2b50      	cmp	r3, #80	@ 0x50
 800632a:	d03c      	beq.n	80063a6 <HAL_TIM_ConfigClockSource+0xfa>
 800632c:	2b50      	cmp	r3, #80	@ 0x50
 800632e:	d873      	bhi.n	8006418 <HAL_TIM_ConfigClockSource+0x16c>
 8006330:	2b40      	cmp	r3, #64	@ 0x40
 8006332:	d058      	beq.n	80063e6 <HAL_TIM_ConfigClockSource+0x13a>
 8006334:	2b40      	cmp	r3, #64	@ 0x40
 8006336:	d86f      	bhi.n	8006418 <HAL_TIM_ConfigClockSource+0x16c>
 8006338:	2b30      	cmp	r3, #48	@ 0x30
 800633a:	d064      	beq.n	8006406 <HAL_TIM_ConfigClockSource+0x15a>
 800633c:	2b30      	cmp	r3, #48	@ 0x30
 800633e:	d86b      	bhi.n	8006418 <HAL_TIM_ConfigClockSource+0x16c>
 8006340:	2b20      	cmp	r3, #32
 8006342:	d060      	beq.n	8006406 <HAL_TIM_ConfigClockSource+0x15a>
 8006344:	2b20      	cmp	r3, #32
 8006346:	d867      	bhi.n	8006418 <HAL_TIM_ConfigClockSource+0x16c>
 8006348:	2b00      	cmp	r3, #0
 800634a:	d05c      	beq.n	8006406 <HAL_TIM_ConfigClockSource+0x15a>
 800634c:	2b10      	cmp	r3, #16
 800634e:	d05a      	beq.n	8006406 <HAL_TIM_ConfigClockSource+0x15a>
 8006350:	e062      	b.n	8006418 <HAL_TIM_ConfigClockSource+0x16c>
 8006352:	687b      	ldr	r3, [r7, #4]
 8006354:	6818      	ldr	r0, [r3, #0]
 8006356:	683b      	ldr	r3, [r7, #0]
 8006358:	6899      	ldr	r1, [r3, #8]
 800635a:	683b      	ldr	r3, [r7, #0]
 800635c:	685a      	ldr	r2, [r3, #4]
 800635e:	683b      	ldr	r3, [r7, #0]
 8006360:	68db      	ldr	r3, [r3, #12]
 8006362:	f000 f950 	bl	8006606 <TIM_ETR_SetConfig>
 8006366:	687b      	ldr	r3, [r7, #4]
 8006368:	681b      	ldr	r3, [r3, #0]
 800636a:	689b      	ldr	r3, [r3, #8]
 800636c:	60bb      	str	r3, [r7, #8]
 800636e:	68bb      	ldr	r3, [r7, #8]
 8006370:	f043 0377 	orr.w	r3, r3, #119	@ 0x77
 8006374:	60bb      	str	r3, [r7, #8]
 8006376:	687b      	ldr	r3, [r7, #4]
 8006378:	681b      	ldr	r3, [r3, #0]
 800637a:	68ba      	ldr	r2, [r7, #8]
 800637c:	609a      	str	r2, [r3, #8]
 800637e:	e04f      	b.n	8006420 <HAL_TIM_ConfigClockSource+0x174>
 8006380:	687b      	ldr	r3, [r7, #4]
 8006382:	6818      	ldr	r0, [r3, #0]
 8006384:	683b      	ldr	r3, [r7, #0]
 8006386:	6899      	ldr	r1, [r3, #8]
 8006388:	683b      	ldr	r3, [r7, #0]
 800638a:	685a      	ldr	r2, [r3, #4]
 800638c:	683b      	ldr	r3, [r7, #0]
 800638e:	68db      	ldr	r3, [r3, #12]
 8006390:	f000 f939 	bl	8006606 <TIM_ETR_SetConfig>
 8006394:	687b      	ldr	r3, [r7, #4]
 8006396:	681b      	ldr	r3, [r3, #0]
 8006398:	689a      	ldr	r2, [r3, #8]
 800639a:	687b      	ldr	r3, [r7, #4]
 800639c:	681b      	ldr	r3, [r3, #0]
 800639e:	f442 4280 	orr.w	r2, r2, #16384	@ 0x4000
 80063a2:	609a      	str	r2, [r3, #8]
 80063a4:	e03c      	b.n	8006420 <HAL_TIM_ConfigClockSource+0x174>
 80063a6:	687b      	ldr	r3, [r7, #4]
 80063a8:	6818      	ldr	r0, [r3, #0]
 80063aa:	683b      	ldr	r3, [r7, #0]
 80063ac:	6859      	ldr	r1, [r3, #4]
 80063ae:	683b      	ldr	r3, [r7, #0]
 80063b0:	68db      	ldr	r3, [r3, #12]
 80063b2:	461a      	mov	r2, r3
 80063b4:	f000 f8b0 	bl	8006518 <TIM_TI1_ConfigInputStage>
 80063b8:	687b      	ldr	r3, [r7, #4]
 80063ba:	681b      	ldr	r3, [r3, #0]
 80063bc:	2150      	movs	r1, #80	@ 0x50
 80063be:	4618      	mov	r0, r3
 80063c0:	f000 f907 	bl	80065d2 <TIM_ITRx_SetConfig>
 80063c4:	e02c      	b.n	8006420 <HAL_TIM_ConfigClockSource+0x174>
 80063c6:	687b      	ldr	r3, [r7, #4]
 80063c8:	6818      	ldr	r0, [r3, #0]
 80063ca:	683b      	ldr	r3, [r7, #0]
 80063cc:	6859      	ldr	r1, [r3, #4]
 80063ce:	683b      	ldr	r3, [r7, #0]
 80063d0:	68db      	ldr	r3, [r3, #12]
 80063d2:	461a      	mov	r2, r3
 80063d4:	f000 f8ce 	bl	8006574 <TIM_TI2_ConfigInputStage>
 80063d8:	687b      	ldr	r3, [r7, #4]
 80063da:	681b      	ldr	r3, [r3, #0]
 80063dc:	2160      	movs	r1, #96	@ 0x60
 80063de:	4618      	mov	r0, r3
 80063e0:	f000 f8f7 	bl	80065d2 <TIM_ITRx_SetConfig>
 80063e4:	e01c      	b.n	8006420 <HAL_TIM_ConfigClockSource+0x174>
 80063e6:	687b      	ldr	r3, [r7, #4]
 80063e8:	6818      	ldr	r0, [r3, #0]
 80063ea:	683b      	ldr	r3, [r7, #0]
 80063ec:	6859      	ldr	r1, [r3, #4]
 80063ee:	683b      	ldr	r3, [r7, #0]
 80063f0:	68db      	ldr	r3, [r3, #12]
 80063f2:	461a      	mov	r2, r3
 80063f4:	f000 f890 	bl	8006518 <TIM_TI1_ConfigInputStage>
 80063f8:	687b      	ldr	r3, [r7, #4]
 80063fa:	681b      	ldr	r3, [r3, #0]
 80063fc:	2140      	movs	r1, #64	@ 0x40
 80063fe:	4618      	mov	r0, r3
 8006400:	f000 f8e7 	bl	80065d2 <TIM_ITRx_SetConfig>
 8006404:	e00c      	b.n	8006420 <HAL_TIM_ConfigClockSource+0x174>
 8006406:	687b      	ldr	r3, [r7, #4]
 8006408:	681a      	ldr	r2, [r3, #0]
 800640a:	683b      	ldr	r3, [r7, #0]
 800640c:	681b      	ldr	r3, [r3, #0]
 800640e:	4619      	mov	r1, r3
 8006410:	4610      	mov	r0, r2
 8006412:	f000 f8de 	bl	80065d2 <TIM_ITRx_SetConfig>
 8006416:	e003      	b.n	8006420 <HAL_TIM_ConfigClockSource+0x174>
 8006418:	2301      	movs	r3, #1
 800641a:	73fb      	strb	r3, [r7, #15]
 800641c:	e000      	b.n	8006420 <HAL_TIM_ConfigClockSource+0x174>
 800641e:	bf00      	nop
 8006420:	687b      	ldr	r3, [r7, #4]
 8006422:	2201      	movs	r2, #1
 8006424:	f883 203d 	strb.w	r2, [r3, #61]	@ 0x3d
 8006428:	687b      	ldr	r3, [r7, #4]
 800642a:	2200      	movs	r2, #0
 800642c:	f883 203c 	strb.w	r2, [r3, #60]	@ 0x3c
 8006430:	7bfb      	ldrb	r3, [r7, #15]
 8006432:	4618      	mov	r0, r3
 8006434:	3710      	adds	r7, #16
 8006436:	46bd      	mov	sp, r7
 8006438:	bd80      	pop	{r7, pc}
	...

0800643c <TIM_Base_SetConfig>:
 800643c:	b480      	push	{r7}
 800643e:	b085      	sub	sp, #20
 8006440:	af00      	add	r7, sp, #0
 8006442:	6078      	str	r0, [r7, #4]
 8006444:	6039      	str	r1, [r7, #0]
 8006446:	687b      	ldr	r3, [r7, #4]
 8006448:	681b      	ldr	r3, [r3, #0]
 800644a:	60fb      	str	r3, [r7, #12]
 800644c:	687b      	ldr	r3, [r7, #4]
 800644e:	4a2f      	ldr	r2, [pc, #188]	@ (800650c <TIM_Base_SetConfig+0xd0>)
 8006450:	4293      	cmp	r3, r2
 8006452:	d00b      	beq.n	800646c <TIM_Base_SetConfig+0x30>
 8006454:	687b      	ldr	r3, [r7, #4]
 8006456:	f1b3 4f80 	cmp.w	r3, #1073741824	@ 0x40000000
 800645a:	d007      	beq.n	800646c <TIM_Base_SetConfig+0x30>
 800645c:	687b      	ldr	r3, [r7, #4]
 800645e:	4a2c      	ldr	r2, [pc, #176]	@ (8006510 <TIM_Base_SetConfig+0xd4>)
 8006460:	4293      	cmp	r3, r2
 8006462:	d003      	beq.n	800646c <TIM_Base_SetConfig+0x30>
 8006464:	687b      	ldr	r3, [r7, #4]
 8006466:	4a2b      	ldr	r2, [pc, #172]	@ (8006514 <TIM_Base_SetConfig+0xd8>)
 8006468:	4293      	cmp	r3, r2
 800646a:	d108      	bne.n	800647e <TIM_Base_SetConfig+0x42>
 800646c:	68fb      	ldr	r3, [r7, #12]
 800646e:	f023 0370 	bic.w	r3, r3, #112	@ 0x70
 8006472:	60fb      	str	r3, [r7, #12]
 8006474:	683b      	ldr	r3, [r7, #0]
 8006476:	685b      	ldr	r3, [r3, #4]
 8006478:	68fa      	ldr	r2, [r7, #12]
 800647a:	4313      	orrs	r3, r2
 800647c:	60fb      	str	r3, [r7, #12]
 800647e:	687b      	ldr	r3, [r7, #4]
 8006480:	4a22      	ldr	r2, [pc, #136]	@ (800650c <TIM_Base_SetConfig+0xd0>)
 8006482:	4293      	cmp	r3, r2
 8006484:	d00b      	beq.n	800649e <TIM_Base_SetConfig+0x62>
 8006486:	687b      	ldr	r3, [r7, #4]
 8006488:	f1b3 4f80 	cmp.w	r3, #1073741824	@ 0x40000000
 800648c:	d007      	beq.n	800649e <TIM_Base_SetConfig+0x62>
 800648e:	687b      	ldr	r3, [r7, #4]
 8006490:	4a1f      	ldr	r2, [pc, #124]	@ (8006510 <TIM_Base_SetConfig+0xd4>)
 8006492:	4293      	cmp	r3, r2
 8006494:	d003      	beq.n	800649e <TIM_Base_SetConfig+0x62>
 8006496:	687b      	ldr	r3, [r7, #4]
 8006498:	4a1e      	ldr	r2, [pc, #120]	@ (8006514 <TIM_Base_SetConfig+0xd8>)
 800649a:	4293      	cmp	r3, r2
 800649c:	d108      	bne.n	80064b0 <TIM_Base_SetConfig+0x74>
 800649e:	68fb      	ldr	r3, [r7, #12]
 80064a0:	f423 7340 	bic.w	r3, r3, #768	@ 0x300
 80064a4:	60fb      	str	r3, [r7, #12]
 80064a6:	683b      	ldr	r3, [r7, #0]
 80064a8:	68db      	ldr	r3, [r3, #12]
 80064aa:	68fa      	ldr	r2, [r7, #12]
 80064ac:	4313      	orrs	r3, r2
 80064ae:	60fb      	str	r3, [r7, #12]
 80064b0:	68fb      	ldr	r3, [r7, #12]
 80064b2:	f023 0280 	bic.w	r2, r3, #128	@ 0x80
 80064b6:	683b      	ldr	r3, [r7, #0]
 80064b8:	695b      	ldr	r3, [r3, #20]
 80064ba:	4313      	orrs	r3, r2
 80064bc:	60fb      	str	r3, [r7, #12]
 80064be:	687b      	ldr	r3, [r7, #4]
 80064c0:	68fa      	ldr	r2, [r7, #12]
 80064c2:	601a      	str	r2, [r3, #0]
 80064c4:	683b      	ldr	r3, [r7, #0]
 80064c6:	689a      	ldr	r2, [r3, #8]
 80064c8:	687b      	ldr	r3, [r7, #4]
 80064ca:	62da      	str	r2, [r3, #44]	@ 0x2c
 80064cc:	683b      	ldr	r3, [r7, #0]
 80064ce:	681a      	ldr	r2, [r3, #0]
 80064d0:	687b      	ldr	r3, [r7, #4]
 80064d2:	629a      	str	r2, [r3, #40]	@ 0x28
 80064d4:	687b      	ldr	r3, [r7, #4]
 80064d6:	4a0d      	ldr	r2, [pc, #52]	@ (800650c <TIM_Base_SetConfig+0xd0>)
 80064d8:	4293      	cmp	r3, r2
 80064da:	d103      	bne.n	80064e4 <TIM_Base_SetConfig+0xa8>
 80064dc:	683b      	ldr	r3, [r7, #0]
 80064de:	691a      	ldr	r2, [r3, #16]
 80064e0:	687b      	ldr	r3, [r7, #4]
 80064e2:	631a      	str	r2, [r3, #48]	@ 0x30
 80064e4:	687b      	ldr	r3, [r7, #4]
 80064e6:	2201      	movs	r2, #1
 80064e8:	615a      	str	r2, [r3, #20]
 80064ea:	687b      	ldr	r3, [r7, #4]
 80064ec:	691b      	ldr	r3, [r3, #16]
 80064ee:	f003 0301 	and.w	r3, r3, #1
 80064f2:	2b00      	cmp	r3, #0
 80064f4:	d005      	beq.n	8006502 <TIM_Base_SetConfig+0xc6>
 80064f6:	687b      	ldr	r3, [r7, #4]
 80064f8:	691b      	ldr	r3, [r3, #16]
 80064fa:	f023 0201 	bic.w	r2, r3, #1
 80064fe:	687b      	ldr	r3, [r7, #4]
 8006500:	611a      	str	r2, [r3, #16]
 8006502:	bf00      	nop
 8006504:	3714      	adds	r7, #20
 8006506:	46bd      	mov	sp, r7
 8006508:	bc80      	pop	{r7}
 800650a:	4770      	bx	lr
 800650c:	40012c00 	.word	0x40012c00
 8006510:	40000400 	.word	0x40000400
 8006514:	40000800 	.word	0x40000800

08006518 <TIM_TI1_ConfigInputStage>:
 8006518:	b480      	push	{r7}
 800651a:	b087      	sub	sp, #28
 800651c:	af00      	add	r7, sp, #0
 800651e:	60f8      	str	r0, [r7, #12]
 8006520:	60b9      	str	r1, [r7, #8]
 8006522:	607a      	str	r2, [r7, #4]
 8006524:	68fb      	ldr	r3, [r7, #12]
 8006526:	6a1b      	ldr	r3, [r3, #32]
 8006528:	617b      	str	r3, [r7, #20]
 800652a:	68fb      	ldr	r3, [r7, #12]
 800652c:	6a1b      	ldr	r3, [r3, #32]
 800652e:	f023 0201 	bic.w	r2, r3, #1
 8006532:	68fb      	ldr	r3, [r7, #12]
 8006534:	621a      	str	r2, [r3, #32]
 8006536:	68fb      	ldr	r3, [r7, #12]
 8006538:	699b      	ldr	r3, [r3, #24]
 800653a:	613b      	str	r3, [r7, #16]
 800653c:	693b      	ldr	r3, [r7, #16]
 800653e:	f023 03f0 	bic.w	r3, r3, #240	@ 0xf0
 8006542:	613b      	str	r3, [r7, #16]
 8006544:	687b      	ldr	r3, [r7, #4]
 8006546:	011b      	lsls	r3, r3, #4
 8006548:	693a      	ldr	r2, [r7, #16]
 800654a:	4313      	orrs	r3, r2
 800654c:	613b      	str	r3, [r7, #16]
 800654e:	697b      	ldr	r3, [r7, #20]
 8006550:	f023 030a 	bic.w	r3, r3, #10
 8006554:	617b      	str	r3, [r7, #20]
 8006556:	697a      	ldr	r2, [r7, #20]
 8006558:	68bb      	ldr	r3, [r7, #8]
 800655a:	4313      	orrs	r3, r2
 800655c:	617b      	str	r3, [r7, #20]
 800655e:	68fb      	ldr	r3, [r7, #12]
 8006560:	693a      	ldr	r2, [r7, #16]
 8006562:	619a      	str	r2, [r3, #24]
 8006564:	68fb      	ldr	r3, [r7, #12]
 8006566:	697a      	ldr	r2, [r7, #20]
 8006568:	621a      	str	r2, [r3, #32]
 800656a:	bf00      	nop
 800656c:	371c      	adds	r7, #28
 800656e:	46bd      	mov	sp, r7
 8006570:	bc80      	pop	{r7}
 8006572:	4770      	bx	lr

08006574 <TIM_TI2_ConfigInputStage>:
 8006574:	b480      	push	{r7}
 8006576:	b087      	sub	sp, #28
 8006578:	af00      	add	r7, sp, #0
 800657a:	60f8      	str	r0, [r7, #12]
 800657c:	60b9      	str	r1, [r7, #8]
 800657e:	607a      	str	r2, [r7, #4]
 8006580:	68fb      	ldr	r3, [r7, #12]
 8006582:	6a1b      	ldr	r3, [r3, #32]
 8006584:	617b      	str	r3, [r7, #20]
 8006586:	68fb      	ldr	r3, [r7, #12]
 8006588:	6a1b      	ldr	r3, [r3, #32]
 800658a:	f023 0210 	bic.w	r2, r3, #16
 800658e:	68fb      	ldr	r3, [r7, #12]
 8006590:	621a      	str	r2, [r3, #32]
 8006592:	68fb      	ldr	r3, [r7, #12]
 8006594:	699b      	ldr	r3, [r3, #24]
 8006596:	613b      	str	r3, [r7, #16]
 8006598:	693b      	ldr	r3, [r7, #16]
 800659a:	f423 4370 	bic.w	r3, r3, #61440	@ 0xf000
 800659e:	613b      	str	r3, [r7, #16]
 80065a0:	687b      	ldr	r3, [r7, #4]
 80065a2:	031b      	lsls	r3, r3, #12
 80065a4:	693a      	ldr	r2, [r7, #16]
 80065a6:	4313      	orrs	r3, r2
 80065a8:	613b      	str	r3, [r7, #16]
 80065aa:	697b      	ldr	r3, [r7, #20]
 80065ac:	f023 03a0 	bic.w	r3, r3, #160	@ 0xa0
 80065b0:	617b      	str	r3, [r7, #20]
 80065b2:	68bb      	ldr	r3, [r7, #8]
 80065b4:	011b      	lsls	r3, r3, #4
 80065b6:	697a      	ldr	r2, [r7, #20]
 80065b8:	4313      	orrs	r3, r2
 80065ba:	617b      	str	r3, [r7, #20]
 80065bc:	68fb      	ldr	r3, [r7, #12]
 80065be:	693a      	ldr	r2, [r7, #16]
 80065c0:	619a      	str	r2, [r3, #24]
 80065c2:	68fb      	ldr	r3, [r7, #12]
 80065c4:	697a      	ldr	r2, [r7, #20]
 80065c6:	621a      	str	r2, [r3, #32]
 80065c8:	bf00      	nop
 80065ca:	371c      	adds	r7, #28
 80065cc:	46bd      	mov	sp, r7
 80065ce:	bc80      	pop	{r7}
 80065d0:	4770      	bx	lr

080065d2 <TIM_ITRx_SetConfig>:
 80065d2:	b480      	push	{r7}
 80065d4:	b085      	sub	sp, #20
 80065d6:	af00      	add	r7, sp, #0
 80065d8:	6078      	str	r0, [r7, #4]
 80065da:	6039      	str	r1, [r7, #0]
 80065dc:	687b      	ldr	r3, [r7, #4]
 80065de:	689b      	ldr	r3, [r3, #8]
 80065e0:	60fb      	str	r3, [r7, #12]
 80065e2:	68fb      	ldr	r3, [r7, #12]
 80065e4:	f023 0370 	bic.w	r3, r3, #112	@ 0x70
 80065e8:	60fb      	str	r3, [r7, #12]
 80065ea:	683a      	ldr	r2, [r7, #0]
 80065ec:	68fb      	ldr	r3, [r7, #12]
 80065ee:	4313      	orrs	r3, r2
 80065f0:	f043 0307 	orr.w	r3, r3, #7
 80065f4:	60fb      	str	r3, [r7, #12]
 80065f6:	687b      	ldr	r3, [r7, #4]
 80065f8:	68fa      	ldr	r2, [r7, #12]
 80065fa:	609a      	str	r2, [r3, #8]
 80065fc:	bf00      	nop
 80065fe:	3714      	adds	r7, #20
 8006600:	46bd      	mov	sp, r7
 8006602:	bc80      	pop	{r7}
 8006604:	4770      	bx	lr

08006606 <TIM_ETR_SetConfig>:
 8006606:	b480      	push	{r7}
 8006608:	b087      	sub	sp, #28
 800660a:	af00      	add	r7, sp, #0
 800660c:	60f8      	str	r0, [r7, #12]
 800660e:	60b9      	str	r1, [r7, #8]
 8006610:	607a      	str	r2, [r7, #4]
 8006612:	603b      	str	r3, [r7, #0]
 8006614:	68fb      	ldr	r3, [r7, #12]
 8006616:	689b      	ldr	r3, [r3, #8]
 8006618:	617b      	str	r3, [r7, #20]
 800661a:	697b      	ldr	r3, [r7, #20]
 800661c:	f423 437f 	bic.w	r3, r3, #65280	@ 0xff00
 8006620:	617b      	str	r3, [r7, #20]
 8006622:	683b      	ldr	r3, [r7, #0]
 8006624:	021a      	lsls	r2, r3, #8
 8006626:	687b      	ldr	r3, [r7, #4]
 8006628:	431a      	orrs	r2, r3
 800662a:	68bb      	ldr	r3, [r7, #8]
 800662c:	4313      	orrs	r3, r2
 800662e:	697a      	ldr	r2, [r7, #20]
 8006630:	4313      	orrs	r3, r2
 8006632:	617b      	str	r3, [r7, #20]
 8006634:	68fb      	ldr	r3, [r7, #12]
 8006636:	697a      	ldr	r2, [r7, #20]
 8006638:	609a      	str	r2, [r3, #8]
 800663a:	bf00      	nop
 800663c:	371c      	adds	r7, #28
 800663e:	46bd      	mov	sp, r7
 8006640:	bc80      	pop	{r7}
 8006642:	4770      	bx	lr

08006644 <HAL_TIMEx_MasterConfigSynchronization>:
 8006644:	b480      	push	{r7}
 8006646:	b085      	sub	sp, #20
 8006648:	af00      	add	r7, sp, #0
 800664a:	6078      	str	r0, [r7, #4]
 800664c:	6039      	str	r1, [r7, #0]
 800664e:	687b      	ldr	r3, [r7, #4]
 8006650:	f893 303c 	ldrb.w	r3, [r3, #60]	@ 0x3c
 8006654:	2b01      	cmp	r3, #1
 8006656:	d101      	bne.n	800665c <HAL_TIMEx_MasterConfigSynchronization+0x18>
 8006658:	2302      	movs	r3, #2
 800665a:	e046      	b.n	80066ea <HAL_TIMEx_MasterConfigSynchronization+0xa6>
 800665c:	687b      	ldr	r3, [r7, #4]
 800665e:	2201      	movs	r2, #1
 8006660:	f883 203c 	strb.w	r2, [r3, #60]	@ 0x3c
 8006664:	687b      	ldr	r3, [r7, #4]
 8006666:	2202      	movs	r2, #2
 8006668:	f883 203d 	strb.w	r2, [r3, #61]	@ 0x3d
 800666c:	687b      	ldr	r3, [r7, #4]
 800666e:	681b      	ldr	r3, [r3, #0]
 8006670:	685b      	ldr	r3, [r3, #4]
 8006672:	60fb      	str	r3, [r7, #12]
 8006674:	687b      	ldr	r3, [r7, #4]
 8006676:	681b      	ldr	r3, [r3, #0]
 8006678:	689b      	ldr	r3, [r3, #8]
 800667a:	60bb      	str	r3, [r7, #8]
 800667c:	68fb      	ldr	r3, [r7, #12]
 800667e:	f023 0370 	bic.w	r3, r3, #112	@ 0x70
 8006682:	60fb      	str	r3, [r7, #12]
 8006684:	683b      	ldr	r3, [r7, #0]
 8006686:	681b      	ldr	r3, [r3, #0]
 8006688:	68fa      	ldr	r2, [r7, #12]
 800668a:	4313      	orrs	r3, r2
 800668c:	60fb      	str	r3, [r7, #12]
 800668e:	687b      	ldr	r3, [r7, #4]
 8006690:	681b      	ldr	r3, [r3, #0]
 8006692:	68fa      	ldr	r2, [r7, #12]
 8006694:	605a      	str	r2, [r3, #4]
 8006696:	687b      	ldr	r3, [r7, #4]
 8006698:	681b      	ldr	r3, [r3, #0]
 800669a:	4a16      	ldr	r2, [pc, #88]	@ (80066f4 <HAL_TIMEx_MasterConfigSynchronization+0xb0>)
 800669c:	4293      	cmp	r3, r2
 800669e:	d00e      	beq.n	80066be <HAL_TIMEx_MasterConfigSynchronization+0x7a>
 80066a0:	687b      	ldr	r3, [r7, #4]
 80066a2:	681b      	ldr	r3, [r3, #0]
 80066a4:	f1b3 4f80 	cmp.w	r3, #1073741824	@ 0x40000000
 80066a8:	d009      	beq.n	80066be <HAL_TIMEx_MasterConfigSynchronization+0x7a>
 80066aa:	687b      	ldr	r3, [r7, #4]
 80066ac:	681b      	ldr	r3, [r3, #0]
 80066ae:	4a12      	ldr	r2, [pc, #72]	@ (80066f8 <HAL_TIMEx_MasterConfigSynchronization+0xb4>)
 80066b0:	4293      	cmp	r3, r2
 80066b2:	d004      	beq.n	80066be <HAL_TIMEx_MasterConfigSynchronization+0x7a>
 80066b4:	687b      	ldr	r3, [r7, #4]
 80066b6:	681b      	ldr	r3, [r3, #0]
 80066b8:	4a10      	ldr	r2, [pc, #64]	@ (80066fc <HAL_TIMEx_MasterConfigSynchronization+0xb8>)
 80066ba:	4293      	cmp	r3, r2
 80066bc:	d10c      	bne.n	80066d8 <HAL_TIMEx_MasterConfigSynchronization+0x94>
 80066be:	68bb      	ldr	r3, [r7, #8]
 80066c0:	f023 0380 	bic.w	r3, r3, #128	@ 0x80
 80066c4:	60bb      	str	r3, [r7, #8]
 80066c6:	683b      	ldr	r3, [r7, #0]
 80066c8:	685b      	ldr	r3, [r3, #4]
 80066ca:	68ba      	ldr	r2, [r7, #8]
 80066cc:	4313      	orrs	r3, r2
 80066ce:	60bb      	str	r3, [r7, #8]
 80066d0:	687b      	ldr	r3, [r7, #4]
 80066d2:	681b      	ldr	r3, [r3, #0]
 80066d4:	68ba      	ldr	r2, [r7, #8]
 80066d6:	609a      	str	r2, [r3, #8]
 80066d8:	687b      	ldr	r3, [r7, #4]
 80066da:	2201      	movs	r2, #1
 80066dc:	f883 203d 	strb.w	r2, [r3, #61]	@ 0x3d
 80066e0:	687b      	ldr	r3, [r7, #4]
 80066e2:	2200      	movs	r2, #0
 80066e4:	f883 203c 	strb.w	r2, [r3, #60]	@ 0x3c
 80066e8:	2300      	movs	r3, #0
 80066ea:	4618      	mov	r0, r3
 80066ec:	3714      	adds	r7, #20
 80066ee:	46bd      	mov	sp, r7
 80066f0:	bc80      	pop	{r7}
 80066f2:	4770      	bx	lr
 80066f4:	40012c00 	.word	0x40012c00
 80066f8:	40000400 	.word	0x40000400
 80066fc:	40000800 	.word	0x40000800

08006700 <HAL_UART_Init>:
 8006700:	b580      	push	{r7, lr}
 8006702:	b082      	sub	sp, #8
 8006704:	af00      	add	r7, sp, #0
 8006706:	6078      	str	r0, [r7, #4]
 8006708:	687b      	ldr	r3, [r7, #4]
 800670a:	2b00      	cmp	r3, #0
 800670c:	d101      	bne.n	8006712 <HAL_UART_Init+0x12>
 800670e:	2301      	movs	r3, #1
 8006710:	e042      	b.n	8006798 <HAL_UART_Init+0x98>
 8006712:	687b      	ldr	r3, [r7, #4]
 8006714:	f893 3041 	ldrb.w	r3, [r3, #65]	@ 0x41
 8006718:	b2db      	uxtb	r3, r3
 800671a:	2b00      	cmp	r3, #0
 800671c:	d106      	bne.n	800672c <HAL_UART_Init+0x2c>
 800671e:	687b      	ldr	r3, [r7, #4]
 8006720:	2200      	movs	r2, #0
 8006722:	f883 2040 	strb.w	r2, [r3, #64]	@ 0x40
 8006726:	6878      	ldr	r0, [r7, #4]
 8006728:	f7fc fb30 	bl	8002d8c <HAL_UART_MspInit>
 800672c:	687b      	ldr	r3, [r7, #4]
 800672e:	2224      	movs	r2, #36	@ 0x24
 8006730:	f883 2041 	strb.w	r2, [r3, #65]	@ 0x41
 8006734:	687b      	ldr	r3, [r7, #4]
 8006736:	681b      	ldr	r3, [r3, #0]
 8006738:	68da      	ldr	r2, [r3, #12]
 800673a:	687b      	ldr	r3, [r7, #4]
 800673c:	681b      	ldr	r3, [r3, #0]
 800673e:	f422 5200 	bic.w	r2, r2, #8192	@ 0x2000
 8006742:	60da      	str	r2, [r3, #12]
 8006744:	6878      	ldr	r0, [r7, #4]
 8006746:	f000 fdb7 	bl	80072b8 <UART_SetConfig>
 800674a:	687b      	ldr	r3, [r7, #4]
 800674c:	681b      	ldr	r3, [r3, #0]
 800674e:	691a      	ldr	r2, [r3, #16]
 8006750:	687b      	ldr	r3, [r7, #4]
 8006752:	681b      	ldr	r3, [r3, #0]
 8006754:	f422 4290 	bic.w	r2, r2, #18432	@ 0x4800
 8006758:	611a      	str	r2, [r3, #16]
 800675a:	687b      	ldr	r3, [r7, #4]
 800675c:	681b      	ldr	r3, [r3, #0]
 800675e:	695a      	ldr	r2, [r3, #20]
 8006760:	687b      	ldr	r3, [r7, #4]
 8006762:	681b      	ldr	r3, [r3, #0]
 8006764:	f022 022a 	bic.w	r2, r2, #42	@ 0x2a
 8006768:	615a      	str	r2, [r3, #20]
 800676a:	687b      	ldr	r3, [r7, #4]
 800676c:	681b      	ldr	r3, [r3, #0]
 800676e:	68da      	ldr	r2, [r3, #12]
 8006770:	687b      	ldr	r3, [r7, #4]
 8006772:	681b      	ldr	r3, [r3, #0]
 8006774:	f442 5200 	orr.w	r2, r2, #8192	@ 0x2000
 8006778:	60da      	str	r2, [r3, #12]
 800677a:	687b      	ldr	r3, [r7, #4]
 800677c:	2200      	movs	r2, #0
 800677e:	645a      	str	r2, [r3, #68]	@ 0x44
 8006780:	687b      	ldr	r3, [r7, #4]
 8006782:	2220      	movs	r2, #32
 8006784:	f883 2041 	strb.w	r2, [r3, #65]	@ 0x41
 8006788:	687b      	ldr	r3, [r7, #4]
 800678a:	2220      	movs	r2, #32
 800678c:	f883 2042 	strb.w	r2, [r3, #66]	@ 0x42
 8006790:	687b      	ldr	r3, [r7, #4]
 8006792:	2200      	movs	r2, #0
 8006794:	635a      	str	r2, [r3, #52]	@ 0x34
 8006796:	2300      	movs	r3, #0
 8006798:	4618      	mov	r0, r3
 800679a:	3708      	adds	r7, #8
 800679c:	46bd      	mov	sp, r7
 800679e:	bd80      	pop	{r7, pc}

080067a0 <HAL_UART_Transmit>:
 80067a0:	b580      	push	{r7, lr}
 80067a2:	b08a      	sub	sp, #40	@ 0x28
 80067a4:	af02      	add	r7, sp, #8
 80067a6:	60f8      	str	r0, [r7, #12]
 80067a8:	60b9      	str	r1, [r7, #8]
 80067aa:	603b      	str	r3, [r7, #0]
 80067ac:	4613      	mov	r3, r2
 80067ae:	80fb      	strh	r3, [r7, #6]
 80067b0:	2300      	movs	r3, #0
 80067b2:	617b      	str	r3, [r7, #20]
 80067b4:	68fb      	ldr	r3, [r7, #12]
 80067b6:	f893 3041 	ldrb.w	r3, [r3, #65]	@ 0x41
 80067ba:	b2db      	uxtb	r3, r3
 80067bc:	2b20      	cmp	r3, #32
 80067be:	d175      	bne.n	80068ac <HAL_UART_Transmit+0x10c>
 80067c0:	68bb      	ldr	r3, [r7, #8]
 80067c2:	2b00      	cmp	r3, #0
 80067c4:	d002      	beq.n	80067cc <HAL_UART_Transmit+0x2c>
 80067c6:	88fb      	ldrh	r3, [r7, #6]
 80067c8:	2b00      	cmp	r3, #0
 80067ca:	d101      	bne.n	80067d0 <HAL_UART_Transmit+0x30>
 80067cc:	2301      	movs	r3, #1
 80067ce:	e06e      	b.n	80068ae <HAL_UART_Transmit+0x10e>
 80067d0:	68fb      	ldr	r3, [r7, #12]
 80067d2:	2200      	movs	r2, #0
 80067d4:	645a      	str	r2, [r3, #68]	@ 0x44
 80067d6:	68fb      	ldr	r3, [r7, #12]
 80067d8:	2221      	movs	r2, #33	@ 0x21
 80067da:	f883 2041 	strb.w	r2, [r3, #65]	@ 0x41
 80067de:	f7fc fc27 	bl	8003030 <HAL_GetTick>
 80067e2:	6178      	str	r0, [r7, #20]
 80067e4:	68fb      	ldr	r3, [r7, #12]
 80067e6:	88fa      	ldrh	r2, [r7, #6]
 80067e8:	849a      	strh	r2, [r3, #36]	@ 0x24
 80067ea:	68fb      	ldr	r3, [r7, #12]
 80067ec:	88fa      	ldrh	r2, [r7, #6]
 80067ee:	84da      	strh	r2, [r3, #38]	@ 0x26
 80067f0:	68fb      	ldr	r3, [r7, #12]
 80067f2:	689b      	ldr	r3, [r3, #8]
 80067f4:	f5b3 5f80 	cmp.w	r3, #4096	@ 0x1000
 80067f8:	d108      	bne.n	800680c <HAL_UART_Transmit+0x6c>
 80067fa:	68fb      	ldr	r3, [r7, #12]
 80067fc:	691b      	ldr	r3, [r3, #16]
 80067fe:	2b00      	cmp	r3, #0
 8006800:	d104      	bne.n	800680c <HAL_UART_Transmit+0x6c>
 8006802:	2300      	movs	r3, #0
 8006804:	61fb      	str	r3, [r7, #28]
 8006806:	68bb      	ldr	r3, [r7, #8]
 8006808:	61bb      	str	r3, [r7, #24]
 800680a:	e003      	b.n	8006814 <HAL_UART_Transmit+0x74>
 800680c:	68bb      	ldr	r3, [r7, #8]
 800680e:	61fb      	str	r3, [r7, #28]
 8006810:	2300      	movs	r3, #0
 8006812:	61bb      	str	r3, [r7, #24]
 8006814:	e02e      	b.n	8006874 <HAL_UART_Transmit+0xd4>
 8006816:	683b      	ldr	r3, [r7, #0]
 8006818:	9300      	str	r3, [sp, #0]
 800681a:	697b      	ldr	r3, [r7, #20]
 800681c:	2200      	movs	r2, #0
 800681e:	2180      	movs	r1, #128	@ 0x80
 8006820:	68f8      	ldr	r0, [r7, #12]
 8006822:	f000 fb1c 	bl	8006e5e <UART_WaitOnFlagUntilTimeout>
 8006826:	4603      	mov	r3, r0
 8006828:	2b00      	cmp	r3, #0
 800682a:	d005      	beq.n	8006838 <HAL_UART_Transmit+0x98>
 800682c:	68fb      	ldr	r3, [r7, #12]
 800682e:	2220      	movs	r2, #32
 8006830:	f883 2041 	strb.w	r2, [r3, #65]	@ 0x41
 8006834:	2303      	movs	r3, #3
 8006836:	e03a      	b.n	80068ae <HAL_UART_Transmit+0x10e>
 8006838:	69fb      	ldr	r3, [r7, #28]
 800683a:	2b00      	cmp	r3, #0
 800683c:	d10b      	bne.n	8006856 <HAL_UART_Transmit+0xb6>
 800683e:	69bb      	ldr	r3, [r7, #24]
 8006840:	881b      	ldrh	r3, [r3, #0]
 8006842:	461a      	mov	r2, r3
 8006844:	68fb      	ldr	r3, [r7, #12]
 8006846:	681b      	ldr	r3, [r3, #0]
 8006848:	f3c2 0208 	ubfx	r2, r2, #0, #9
 800684c:	605a      	str	r2, [r3, #4]
 800684e:	69bb      	ldr	r3, [r7, #24]
 8006850:	3302      	adds	r3, #2
 8006852:	61bb      	str	r3, [r7, #24]
 8006854:	e007      	b.n	8006866 <HAL_UART_Transmit+0xc6>
 8006856:	69fb      	ldr	r3, [r7, #28]
 8006858:	781a      	ldrb	r2, [r3, #0]
 800685a:	68fb      	ldr	r3, [r7, #12]
 800685c:	681b      	ldr	r3, [r3, #0]
 800685e:	605a      	str	r2, [r3, #4]
 8006860:	69fb      	ldr	r3, [r7, #28]
 8006862:	3301      	adds	r3, #1
 8006864:	61fb      	str	r3, [r7, #28]
 8006866:	68fb      	ldr	r3, [r7, #12]
 8006868:	8cdb      	ldrh	r3, [r3, #38]	@ 0x26
 800686a:	b29b      	uxth	r3, r3
 800686c:	3b01      	subs	r3, #1
 800686e:	b29a      	uxth	r2, r3
 8006870:	68fb      	ldr	r3, [r7, #12]
 8006872:	84da      	strh	r2, [r3, #38]	@ 0x26
 8006874:	68fb      	ldr	r3, [r7, #12]
 8006876:	8cdb      	ldrh	r3, [r3, #38]	@ 0x26
 8006878:	b29b      	uxth	r3, r3
 800687a:	2b00      	cmp	r3, #0
 800687c:	d1cb      	bne.n	8006816 <HAL_UART_Transmit+0x76>
 800687e:	683b      	ldr	r3, [r7, #0]
 8006880:	9300      	str	r3, [sp, #0]
 8006882:	697b      	ldr	r3, [r7, #20]
 8006884:	2200      	movs	r2, #0
 8006886:	2140      	movs	r1, #64	@ 0x40
 8006888:	68f8      	ldr	r0, [r7, #12]
 800688a:	f000 fae8 	bl	8006e5e <UART_WaitOnFlagUntilTimeout>
 800688e:	4603      	mov	r3, r0
 8006890:	2b00      	cmp	r3, #0
 8006892:	d005      	beq.n	80068a0 <HAL_UART_Transmit+0x100>
 8006894:	68fb      	ldr	r3, [r7, #12]
 8006896:	2220      	movs	r2, #32
 8006898:	f883 2041 	strb.w	r2, [r3, #65]	@ 0x41
 800689c:	2303      	movs	r3, #3
 800689e:	e006      	b.n	80068ae <HAL_UART_Transmit+0x10e>
 80068a0:	68fb      	ldr	r3, [r7, #12]
 80068a2:	2220      	movs	r2, #32
 80068a4:	f883 2041 	strb.w	r2, [r3, #65]	@ 0x41
 80068a8:	2300      	movs	r3, #0
 80068aa:	e000      	b.n	80068ae <HAL_UART_Transmit+0x10e>
 80068ac:	2302      	movs	r3, #2
 80068ae:	4618      	mov	r0, r3
 80068b0:	3720      	adds	r7, #32
 80068b2:	46bd      	mov	sp, r7
 80068b4:	bd80      	pop	{r7, pc}

080068b6 <HAL_UART_Receive_IT>:
 80068b6:	b580      	push	{r7, lr}
 80068b8:	b084      	sub	sp, #16
 80068ba:	af00      	add	r7, sp, #0
 80068bc:	60f8      	str	r0, [r7, #12]
 80068be:	60b9      	str	r1, [r7, #8]
 80068c0:	4613      	mov	r3, r2
 80068c2:	80fb      	strh	r3, [r7, #6]
 80068c4:	68fb      	ldr	r3, [r7, #12]
 80068c6:	f893 3042 	ldrb.w	r3, [r3, #66]	@ 0x42
 80068ca:	b2db      	uxtb	r3, r3
 80068cc:	2b20      	cmp	r3, #32
 80068ce:	d112      	bne.n	80068f6 <HAL_UART_Receive_IT+0x40>
 80068d0:	68bb      	ldr	r3, [r7, #8]
 80068d2:	2b00      	cmp	r3, #0
 80068d4:	d002      	beq.n	80068dc <HAL_UART_Receive_IT+0x26>
 80068d6:	88fb      	ldrh	r3, [r7, #6]
 80068d8:	2b00      	cmp	r3, #0
 80068da:	d101      	bne.n	80068e0 <HAL_UART_Receive_IT+0x2a>
 80068dc:	2301      	movs	r3, #1
 80068de:	e00b      	b.n	80068f8 <HAL_UART_Receive_IT+0x42>
 80068e0:	68fb      	ldr	r3, [r7, #12]
 80068e2:	2200      	movs	r2, #0
 80068e4:	631a      	str	r2, [r3, #48]	@ 0x30
 80068e6:	88fb      	ldrh	r3, [r7, #6]
 80068e8:	461a      	mov	r2, r3
 80068ea:	68b9      	ldr	r1, [r7, #8]
 80068ec:	68f8      	ldr	r0, [r7, #12]
 80068ee:	f000 fb0f 	bl	8006f10 <UART_Start_Receive_IT>
 80068f2:	4603      	mov	r3, r0
 80068f4:	e000      	b.n	80068f8 <HAL_UART_Receive_IT+0x42>
 80068f6:	2302      	movs	r3, #2
 80068f8:	4618      	mov	r0, r3
 80068fa:	3710      	adds	r7, #16
 80068fc:	46bd      	mov	sp, r7
 80068fe:	bd80      	pop	{r7, pc}

08006900 <HAL_UART_IRQHandler>:
 8006900:	b580      	push	{r7, lr}
 8006902:	b0ba      	sub	sp, #232	@ 0xe8
 8006904:	af00      	add	r7, sp, #0
 8006906:	6078      	str	r0, [r7, #4]
 8006908:	687b      	ldr	r3, [r7, #4]
 800690a:	681b      	ldr	r3, [r3, #0]
 800690c:	681b      	ldr	r3, [r3, #0]
 800690e:	f8c7 30e4 	str.w	r3, [r7, #228]	@ 0xe4
 8006912:	687b      	ldr	r3, [r7, #4]
 8006914:	681b      	ldr	r3, [r3, #0]
 8006916:	68db      	ldr	r3, [r3, #12]
 8006918:	f8c7 30e0 	str.w	r3, [r7, #224]	@ 0xe0
 800691c:	687b      	ldr	r3, [r7, #4]
 800691e:	681b      	ldr	r3, [r3, #0]
 8006920:	695b      	ldr	r3, [r3, #20]
 8006922:	f8c7 30dc 	str.w	r3, [r7, #220]	@ 0xdc
 8006926:	2300      	movs	r3, #0
 8006928:	f8c7 30d8 	str.w	r3, [r7, #216]	@ 0xd8
 800692c:	2300      	movs	r3, #0
 800692e:	f8c7 30d4 	str.w	r3, [r7, #212]	@ 0xd4
 8006932:	f8d7 30e4 	ldr.w	r3, [r7, #228]	@ 0xe4
 8006936:	f003 030f 	and.w	r3, r3, #15
 800693a:	f8c7 30d8 	str.w	r3, [r7, #216]	@ 0xd8
 800693e:	f8d7 30d8 	ldr.w	r3, [r7, #216]	@ 0xd8
 8006942:	2b00      	cmp	r3, #0
 8006944:	d10f      	bne.n	8006966 <HAL_UART_IRQHandler+0x66>
 8006946:	f8d7 30e4 	ldr.w	r3, [r7, #228]	@ 0xe4
 800694a:	f003 0320 	and.w	r3, r3, #32
 800694e:	2b00      	cmp	r3, #0
 8006950:	d009      	beq.n	8006966 <HAL_UART_IRQHandler+0x66>
 8006952:	f8d7 30e0 	ldr.w	r3, [r7, #224]	@ 0xe0
 8006956:	f003 0320 	and.w	r3, r3, #32
 800695a:	2b00      	cmp	r3, #0
 800695c:	d003      	beq.n	8006966 <HAL_UART_IRQHandler+0x66>
 800695e:	6878      	ldr	r0, [r7, #4]
 8006960:	f000 fbec 	bl	800713c <UART_Receive_IT>
 8006964:	e25b      	b.n	8006e1e <HAL_UART_IRQHandler+0x51e>
 8006966:	f8d7 30d8 	ldr.w	r3, [r7, #216]	@ 0xd8
 800696a:	2b00      	cmp	r3, #0
 800696c:	f000 80de 	beq.w	8006b2c <HAL_UART_IRQHandler+0x22c>
 8006970:	f8d7 30dc 	ldr.w	r3, [r7, #220]	@ 0xdc
 8006974:	f003 0301 	and.w	r3, r3, #1
 8006978:	2b00      	cmp	r3, #0
 800697a:	d106      	bne.n	800698a <HAL_UART_IRQHandler+0x8a>
 800697c:	f8d7 30e0 	ldr.w	r3, [r7, #224]	@ 0xe0
 8006980:	f403 7390 	and.w	r3, r3, #288	@ 0x120
 8006984:	2b00      	cmp	r3, #0
 8006986:	f000 80d1 	beq.w	8006b2c <HAL_UART_IRQHandler+0x22c>
 800698a:	f8d7 30e4 	ldr.w	r3, [r7, #228]	@ 0xe4
 800698e:	f003 0301 	and.w	r3, r3, #1
 8006992:	2b00      	cmp	r3, #0
 8006994:	d00b      	beq.n	80069ae <HAL_UART_IRQHandler+0xae>
 8006996:	f8d7 30e0 	ldr.w	r3, [r7, #224]	@ 0xe0
 800699a:	f403 7380 	and.w	r3, r3, #256	@ 0x100
 800699e:	2b00      	cmp	r3, #0
 80069a0:	d005      	beq.n	80069ae <HAL_UART_IRQHandler+0xae>
 80069a2:	687b      	ldr	r3, [r7, #4]
 80069a4:	6c5b      	ldr	r3, [r3, #68]	@ 0x44
 80069a6:	f043 0201 	orr.w	r2, r3, #1
 80069aa:	687b      	ldr	r3, [r7, #4]
 80069ac:	645a      	str	r2, [r3, #68]	@ 0x44
 80069ae:	f8d7 30e4 	ldr.w	r3, [r7, #228]	@ 0xe4
 80069b2:	f003 0304 	and.w	r3, r3, #4
 80069b6:	2b00      	cmp	r3, #0
 80069b8:	d00b      	beq.n	80069d2 <HAL_UART_IRQHandler+0xd2>
 80069ba:	f8d7 30dc 	ldr.w	r3, [r7, #220]	@ 0xdc
 80069be:	f003 0301 	and.w	r3, r3, #1
 80069c2:	2b00      	cmp	r3, #0
 80069c4:	d005      	beq.n	80069d2 <HAL_UART_IRQHandler+0xd2>
 80069c6:	687b      	ldr	r3, [r7, #4]
 80069c8:	6c5b      	ldr	r3, [r3, #68]	@ 0x44
 80069ca:	f043 0202 	orr.w	r2, r3, #2
 80069ce:	687b      	ldr	r3, [r7, #4]
 80069d0:	645a      	str	r2, [r3, #68]	@ 0x44
 80069d2:	f8d7 30e4 	ldr.w	r3, [r7, #228]	@ 0xe4
 80069d6:	f003 0302 	and.w	r3, r3, #2
 80069da:	2b00      	cmp	r3, #0
 80069dc:	d00b      	beq.n	80069f6 <HAL_UART_IRQHandler+0xf6>
 80069de:	f8d7 30dc 	ldr.w	r3, [r7, #220]	@ 0xdc
 80069e2:	f003 0301 	and.w	r3, r3, #1
 80069e6:	2b00      	cmp	r3, #0
 80069e8:	d005      	beq.n	80069f6 <HAL_UART_IRQHandler+0xf6>
 80069ea:	687b      	ldr	r3, [r7, #4]
 80069ec:	6c5b      	ldr	r3, [r3, #68]	@ 0x44
 80069ee:	f043 0204 	orr.w	r2, r3, #4
 80069f2:	687b      	ldr	r3, [r7, #4]
 80069f4:	645a      	str	r2, [r3, #68]	@ 0x44
 80069f6:	f8d7 30e4 	ldr.w	r3, [r7, #228]	@ 0xe4
 80069fa:	f003 0308 	and.w	r3, r3, #8
 80069fe:	2b00      	cmp	r3, #0
 8006a00:	d011      	beq.n	8006a26 <HAL_UART_IRQHandler+0x126>
 8006a02:	f8d7 30e0 	ldr.w	r3, [r7, #224]	@ 0xe0
 8006a06:	f003 0320 	and.w	r3, r3, #32
 8006a0a:	2b00      	cmp	r3, #0
 8006a0c:	d105      	bne.n	8006a1a <HAL_UART_IRQHandler+0x11a>
 8006a0e:	f8d7 30dc 	ldr.w	r3, [r7, #220]	@ 0xdc
 8006a12:	f003 0301 	and.w	r3, r3, #1
 8006a16:	2b00      	cmp	r3, #0
 8006a18:	d005      	beq.n	8006a26 <HAL_UART_IRQHandler+0x126>
 8006a1a:	687b      	ldr	r3, [r7, #4]
 8006a1c:	6c5b      	ldr	r3, [r3, #68]	@ 0x44
 8006a1e:	f043 0208 	orr.w	r2, r3, #8
 8006a22:	687b      	ldr	r3, [r7, #4]
 8006a24:	645a      	str	r2, [r3, #68]	@ 0x44
 8006a26:	687b      	ldr	r3, [r7, #4]
 8006a28:	6c5b      	ldr	r3, [r3, #68]	@ 0x44
 8006a2a:	2b00      	cmp	r3, #0
 8006a2c:	f000 81f2 	beq.w	8006e14 <HAL_UART_IRQHandler+0x514>
 8006a30:	f8d7 30e4 	ldr.w	r3, [r7, #228]	@ 0xe4
 8006a34:	f003 0320 	and.w	r3, r3, #32
 8006a38:	2b00      	cmp	r3, #0
 8006a3a:	d008      	beq.n	8006a4e <HAL_UART_IRQHandler+0x14e>
 8006a3c:	f8d7 30e0 	ldr.w	r3, [r7, #224]	@ 0xe0
 8006a40:	f003 0320 	and.w	r3, r3, #32
 8006a44:	2b00      	cmp	r3, #0
 8006a46:	d002      	beq.n	8006a4e <HAL_UART_IRQHandler+0x14e>
 8006a48:	6878      	ldr	r0, [r7, #4]
 8006a4a:	f000 fb77 	bl	800713c <UART_Receive_IT>
 8006a4e:	687b      	ldr	r3, [r7, #4]
 8006a50:	681b      	ldr	r3, [r3, #0]
 8006a52:	695b      	ldr	r3, [r3, #20]
 8006a54:	f003 0340 	and.w	r3, r3, #64	@ 0x40
 8006a58:	2b00      	cmp	r3, #0
 8006a5a:	bf14      	ite	ne
 8006a5c:	2301      	movne	r3, #1
 8006a5e:	2300      	moveq	r3, #0
 8006a60:	b2db      	uxtb	r3, r3
 8006a62:	f8c7 30d4 	str.w	r3, [r7, #212]	@ 0xd4
 8006a66:	687b      	ldr	r3, [r7, #4]
 8006a68:	6c5b      	ldr	r3, [r3, #68]	@ 0x44
 8006a6a:	f003 0308 	and.w	r3, r3, #8
 8006a6e:	2b00      	cmp	r3, #0
 8006a70:	d103      	bne.n	8006a7a <HAL_UART_IRQHandler+0x17a>
 8006a72:	f8d7 30d4 	ldr.w	r3, [r7, #212]	@ 0xd4
 8006a76:	2b00      	cmp	r3, #0
 8006a78:	d04f      	beq.n	8006b1a <HAL_UART_IRQHandler+0x21a>
 8006a7a:	6878      	ldr	r0, [r7, #4]
 8006a7c:	f000 fa81 	bl	8006f82 <UART_EndRxTransfer>
 8006a80:	687b      	ldr	r3, [r7, #4]
 8006a82:	681b      	ldr	r3, [r3, #0]
 8006a84:	695b      	ldr	r3, [r3, #20]
 8006a86:	f003 0340 	and.w	r3, r3, #64	@ 0x40
 8006a8a:	2b00      	cmp	r3, #0
 8006a8c:	d041      	beq.n	8006b12 <HAL_UART_IRQHandler+0x212>
 8006a8e:	687b      	ldr	r3, [r7, #4]
 8006a90:	681b      	ldr	r3, [r3, #0]
 8006a92:	3314      	adds	r3, #20
 8006a94:	f8c7 309c 	str.w	r3, [r7, #156]	@ 0x9c
 8006a98:	f8d7 309c 	ldr.w	r3, [r7, #156]	@ 0x9c
 8006a9c:	e853 3f00 	ldrex	r3, [r3]
 8006aa0:	f8c7 3098 	str.w	r3, [r7, #152]	@ 0x98
 8006aa4:	f8d7 3098 	ldr.w	r3, [r7, #152]	@ 0x98
 8006aa8:	f023 0340 	bic.w	r3, r3, #64	@ 0x40
 8006aac:	f8c7 30d0 	str.w	r3, [r7, #208]	@ 0xd0
 8006ab0:	687b      	ldr	r3, [r7, #4]
 8006ab2:	681b      	ldr	r3, [r3, #0]
 8006ab4:	3314      	adds	r3, #20
 8006ab6:	f8d7 20d0 	ldr.w	r2, [r7, #208]	@ 0xd0
 8006aba:	f8c7 20a8 	str.w	r2, [r7, #168]	@ 0xa8
 8006abe:	f8c7 30a4 	str.w	r3, [r7, #164]	@ 0xa4
 8006ac2:	f8d7 10a4 	ldr.w	r1, [r7, #164]	@ 0xa4
 8006ac6:	f8d7 20a8 	ldr.w	r2, [r7, #168]	@ 0xa8
 8006aca:	e841 2300 	strex	r3, r2, [r1]
 8006ace:	f8c7 30a0 	str.w	r3, [r7, #160]	@ 0xa0
 8006ad2:	f8d7 30a0 	ldr.w	r3, [r7, #160]	@ 0xa0
 8006ad6:	2b00      	cmp	r3, #0
 8006ad8:	d1d9      	bne.n	8006a8e <HAL_UART_IRQHandler+0x18e>
 8006ada:	687b      	ldr	r3, [r7, #4]
 8006adc:	6bdb      	ldr	r3, [r3, #60]	@ 0x3c
 8006ade:	2b00      	cmp	r3, #0
 8006ae0:	d013      	beq.n	8006b0a <HAL_UART_IRQHandler+0x20a>
 8006ae2:	687b      	ldr	r3, [r7, #4]
 8006ae4:	6bdb      	ldr	r3, [r3, #60]	@ 0x3c
 8006ae6:	4a7e      	ldr	r2, [pc, #504]	@ (8006ce0 <HAL_UART_IRQHandler+0x3e0>)
 8006ae8:	635a      	str	r2, [r3, #52]	@ 0x34
 8006aea:	687b      	ldr	r3, [r7, #4]
 8006aec:	6bdb      	ldr	r3, [r3, #60]	@ 0x3c
 8006aee:	4618      	mov	r0, r3
 8006af0:	f7fc fe26 	bl	8003740 <HAL_DMA_Abort_IT>
 8006af4:	4603      	mov	r3, r0
 8006af6:	2b00      	cmp	r3, #0
 8006af8:	d016      	beq.n	8006b28 <HAL_UART_IRQHandler+0x228>
 8006afa:	687b      	ldr	r3, [r7, #4]
 8006afc:	6bdb      	ldr	r3, [r3, #60]	@ 0x3c
 8006afe:	6b5b      	ldr	r3, [r3, #52]	@ 0x34
 8006b00:	687a      	ldr	r2, [r7, #4]
 8006b02:	6bd2      	ldr	r2, [r2, #60]	@ 0x3c
 8006b04:	4610      	mov	r0, r2
 8006b06:	4798      	blx	r3
 8006b08:	e00e      	b.n	8006b28 <HAL_UART_IRQHandler+0x228>
 8006b0a:	6878      	ldr	r0, [r7, #4]
 8006b0c:	f000 f993 	bl	8006e36 <HAL_UART_ErrorCallback>
 8006b10:	e00a      	b.n	8006b28 <HAL_UART_IRQHandler+0x228>
 8006b12:	6878      	ldr	r0, [r7, #4]
 8006b14:	f000 f98f 	bl	8006e36 <HAL_UART_ErrorCallback>
 8006b18:	e006      	b.n	8006b28 <HAL_UART_IRQHandler+0x228>
 8006b1a:	6878      	ldr	r0, [r7, #4]
 8006b1c:	f000 f98b 	bl	8006e36 <HAL_UART_ErrorCallback>
 8006b20:	687b      	ldr	r3, [r7, #4]
 8006b22:	2200      	movs	r2, #0
 8006b24:	645a      	str	r2, [r3, #68]	@ 0x44
 8006b26:	e175      	b.n	8006e14 <HAL_UART_IRQHandler+0x514>
 8006b28:	bf00      	nop
 8006b2a:	e173      	b.n	8006e14 <HAL_UART_IRQHandler+0x514>
 8006b2c:	687b      	ldr	r3, [r7, #4]
 8006b2e:	6b1b      	ldr	r3, [r3, #48]	@ 0x30
 8006b30:	2b01      	cmp	r3, #1
 8006b32:	f040 814f 	bne.w	8006dd4 <HAL_UART_IRQHandler+0x4d4>
 8006b36:	f8d7 30e4 	ldr.w	r3, [r7, #228]	@ 0xe4
 8006b3a:	f003 0310 	and.w	r3, r3, #16
 8006b3e:	2b00      	cmp	r3, #0
 8006b40:	f000 8148 	beq.w	8006dd4 <HAL_UART_IRQHandler+0x4d4>
 8006b44:	f8d7 30e0 	ldr.w	r3, [r7, #224]	@ 0xe0
 8006b48:	f003 0310 	and.w	r3, r3, #16
 8006b4c:	2b00      	cmp	r3, #0
 8006b4e:	f000 8141 	beq.w	8006dd4 <HAL_UART_IRQHandler+0x4d4>
 8006b52:	2300      	movs	r3, #0
 8006b54:	60bb      	str	r3, [r7, #8]
 8006b56:	687b      	ldr	r3, [r7, #4]
 8006b58:	681b      	ldr	r3, [r3, #0]
 8006b5a:	681b      	ldr	r3, [r3, #0]
 8006b5c:	60bb      	str	r3, [r7, #8]
 8006b5e:	687b      	ldr	r3, [r7, #4]
 8006b60:	681b      	ldr	r3, [r3, #0]
 8006b62:	685b      	ldr	r3, [r3, #4]
 8006b64:	60bb      	str	r3, [r7, #8]
 8006b66:	68bb      	ldr	r3, [r7, #8]
 8006b68:	687b      	ldr	r3, [r7, #4]
 8006b6a:	681b      	ldr	r3, [r3, #0]
 8006b6c:	695b      	ldr	r3, [r3, #20]
 8006b6e:	f003 0340 	and.w	r3, r3, #64	@ 0x40
 8006b72:	2b00      	cmp	r3, #0
 8006b74:	f000 80b6 	beq.w	8006ce4 <HAL_UART_IRQHandler+0x3e4>
 8006b78:	687b      	ldr	r3, [r7, #4]
 8006b7a:	6bdb      	ldr	r3, [r3, #60]	@ 0x3c
 8006b7c:	681b      	ldr	r3, [r3, #0]
 8006b7e:	685b      	ldr	r3, [r3, #4]
 8006b80:	f8a7 30be 	strh.w	r3, [r7, #190]	@ 0xbe
 8006b84:	f8b7 30be 	ldrh.w	r3, [r7, #190]	@ 0xbe
 8006b88:	2b00      	cmp	r3, #0
 8006b8a:	f000 8145 	beq.w	8006e18 <HAL_UART_IRQHandler+0x518>
 8006b8e:	687b      	ldr	r3, [r7, #4]
 8006b90:	8d9b      	ldrh	r3, [r3, #44]	@ 0x2c
 8006b92:	f8b7 20be 	ldrh.w	r2, [r7, #190]	@ 0xbe
 8006b96:	429a      	cmp	r2, r3
 8006b98:	f080 813e 	bcs.w	8006e18 <HAL_UART_IRQHandler+0x518>
 8006b9c:	687b      	ldr	r3, [r7, #4]
 8006b9e:	f8b7 20be 	ldrh.w	r2, [r7, #190]	@ 0xbe
 8006ba2:	85da      	strh	r2, [r3, #46]	@ 0x2e
 8006ba4:	687b      	ldr	r3, [r7, #4]
 8006ba6:	6bdb      	ldr	r3, [r3, #60]	@ 0x3c
 8006ba8:	699b      	ldr	r3, [r3, #24]
 8006baa:	2b20      	cmp	r3, #32
 8006bac:	f000 8088 	beq.w	8006cc0 <HAL_UART_IRQHandler+0x3c0>
 8006bb0:	687b      	ldr	r3, [r7, #4]
 8006bb2:	681b      	ldr	r3, [r3, #0]
 8006bb4:	330c      	adds	r3, #12
 8006bb6:	f8c7 3088 	str.w	r3, [r7, #136]	@ 0x88
 8006bba:	f8d7 3088 	ldr.w	r3, [r7, #136]	@ 0x88
 8006bbe:	e853 3f00 	ldrex	r3, [r3]
 8006bc2:	f8c7 3084 	str.w	r3, [r7, #132]	@ 0x84
 8006bc6:	f8d7 3084 	ldr.w	r3, [r7, #132]	@ 0x84
 8006bca:	f423 7380 	bic.w	r3, r3, #256	@ 0x100
 8006bce:	f8c7 30b8 	str.w	r3, [r7, #184]	@ 0xb8
 8006bd2:	687b      	ldr	r3, [r7, #4]
 8006bd4:	681b      	ldr	r3, [r3, #0]
 8006bd6:	330c      	adds	r3, #12
 8006bd8:	f8d7 20b8 	ldr.w	r2, [r7, #184]	@ 0xb8
 8006bdc:	f8c7 2094 	str.w	r2, [r7, #148]	@ 0x94
 8006be0:	f8c7 3090 	str.w	r3, [r7, #144]	@ 0x90
 8006be4:	f8d7 1090 	ldr.w	r1, [r7, #144]	@ 0x90
 8006be8:	f8d7 2094 	ldr.w	r2, [r7, #148]	@ 0x94
 8006bec:	e841 2300 	strex	r3, r2, [r1]
 8006bf0:	f8c7 308c 	str.w	r3, [r7, #140]	@ 0x8c
 8006bf4:	f8d7 308c 	ldr.w	r3, [r7, #140]	@ 0x8c
 8006bf8:	2b00      	cmp	r3, #0
 8006bfa:	d1d9      	bne.n	8006bb0 <HAL_UART_IRQHandler+0x2b0>
 8006bfc:	687b      	ldr	r3, [r7, #4]
 8006bfe:	681b      	ldr	r3, [r3, #0]
 8006c00:	3314      	adds	r3, #20
 8006c02:	677b      	str	r3, [r7, #116]	@ 0x74
 8006c04:	6f7b      	ldr	r3, [r7, #116]	@ 0x74
 8006c06:	e853 3f00 	ldrex	r3, [r3]
 8006c0a:	673b      	str	r3, [r7, #112]	@ 0x70
 8006c0c:	6f3b      	ldr	r3, [r7, #112]	@ 0x70
 8006c0e:	f023 0301 	bic.w	r3, r3, #1
 8006c12:	f8c7 30b4 	str.w	r3, [r7, #180]	@ 0xb4
 8006c16:	687b      	ldr	r3, [r7, #4]
 8006c18:	681b      	ldr	r3, [r3, #0]
 8006c1a:	3314      	adds	r3, #20
 8006c1c:	f8d7 20b4 	ldr.w	r2, [r7, #180]	@ 0xb4
 8006c20:	f8c7 2080 	str.w	r2, [r7, #128]	@ 0x80
 8006c24:	67fb      	str	r3, [r7, #124]	@ 0x7c
 8006c26:	6ff9      	ldr	r1, [r7, #124]	@ 0x7c
 8006c28:	f8d7 2080 	ldr.w	r2, [r7, #128]	@ 0x80
 8006c2c:	e841 2300 	strex	r3, r2, [r1]
 8006c30:	67bb      	str	r3, [r7, #120]	@ 0x78
 8006c32:	6fbb      	ldr	r3, [r7, #120]	@ 0x78
 8006c34:	2b00      	cmp	r3, #0
 8006c36:	d1e1      	bne.n	8006bfc <HAL_UART_IRQHandler+0x2fc>
 8006c38:	687b      	ldr	r3, [r7, #4]
 8006c3a:	681b      	ldr	r3, [r3, #0]
 8006c3c:	3314      	adds	r3, #20
 8006c3e:	663b      	str	r3, [r7, #96]	@ 0x60
 8006c40:	6e3b      	ldr	r3, [r7, #96]	@ 0x60
 8006c42:	e853 3f00 	ldrex	r3, [r3]
 8006c46:	65fb      	str	r3, [r7, #92]	@ 0x5c
 8006c48:	6dfb      	ldr	r3, [r7, #92]	@ 0x5c
 8006c4a:	f023 0340 	bic.w	r3, r3, #64	@ 0x40
 8006c4e:	f8c7 30b0 	str.w	r3, [r7, #176]	@ 0xb0
 8006c52:	687b      	ldr	r3, [r7, #4]
 8006c54:	681b      	ldr	r3, [r3, #0]
 8006c56:	3314      	adds	r3, #20
 8006c58:	f8d7 20b0 	ldr.w	r2, [r7, #176]	@ 0xb0
 8006c5c:	66fa      	str	r2, [r7, #108]	@ 0x6c
 8006c5e:	66bb      	str	r3, [r7, #104]	@ 0x68
 8006c60:	6eb9      	ldr	r1, [r7, #104]	@ 0x68
 8006c62:	6efa      	ldr	r2, [r7, #108]	@ 0x6c
 8006c64:	e841 2300 	strex	r3, r2, [r1]
 8006c68:	667b      	str	r3, [r7, #100]	@ 0x64
 8006c6a:	6e7b      	ldr	r3, [r7, #100]	@ 0x64
 8006c6c:	2b00      	cmp	r3, #0
 8006c6e:	d1e3      	bne.n	8006c38 <HAL_UART_IRQHandler+0x338>
 8006c70:	687b      	ldr	r3, [r7, #4]
 8006c72:	2220      	movs	r2, #32
 8006c74:	f883 2042 	strb.w	r2, [r3, #66]	@ 0x42
 8006c78:	687b      	ldr	r3, [r7, #4]
 8006c7a:	2200      	movs	r2, #0
 8006c7c:	631a      	str	r2, [r3, #48]	@ 0x30
 8006c7e:	687b      	ldr	r3, [r7, #4]
 8006c80:	681b      	ldr	r3, [r3, #0]
 8006c82:	330c      	adds	r3, #12
 8006c84:	64fb      	str	r3, [r7, #76]	@ 0x4c
 8006c86:	6cfb      	ldr	r3, [r7, #76]	@ 0x4c
 8006c88:	e853 3f00 	ldrex	r3, [r3]
 8006c8c:	64bb      	str	r3, [r7, #72]	@ 0x48
 8006c8e:	6cbb      	ldr	r3, [r7, #72]	@ 0x48
 8006c90:	f023 0310 	bic.w	r3, r3, #16
 8006c94:	f8c7 30ac 	str.w	r3, [r7, #172]	@ 0xac
 8006c98:	687b      	ldr	r3, [r7, #4]
 8006c9a:	681b      	ldr	r3, [r3, #0]
 8006c9c:	330c      	adds	r3, #12
 8006c9e:	f8d7 20ac 	ldr.w	r2, [r7, #172]	@ 0xac
 8006ca2:	65ba      	str	r2, [r7, #88]	@ 0x58
 8006ca4:	657b      	str	r3, [r7, #84]	@ 0x54
 8006ca6:	6d79      	ldr	r1, [r7, #84]	@ 0x54
 8006ca8:	6dba      	ldr	r2, [r7, #88]	@ 0x58
 8006caa:	e841 2300 	strex	r3, r2, [r1]
 8006cae:	653b      	str	r3, [r7, #80]	@ 0x50
 8006cb0:	6d3b      	ldr	r3, [r7, #80]	@ 0x50
 8006cb2:	2b00      	cmp	r3, #0
 8006cb4:	d1e3      	bne.n	8006c7e <HAL_UART_IRQHandler+0x37e>
 8006cb6:	687b      	ldr	r3, [r7, #4]
 8006cb8:	6bdb      	ldr	r3, [r3, #60]	@ 0x3c
 8006cba:	4618      	mov	r0, r3
 8006cbc:	f7fc fd05 	bl	80036ca <HAL_DMA_Abort>
 8006cc0:	687b      	ldr	r3, [r7, #4]
 8006cc2:	2202      	movs	r2, #2
 8006cc4:	635a      	str	r2, [r3, #52]	@ 0x34
 8006cc6:	687b      	ldr	r3, [r7, #4]
 8006cc8:	8d9a      	ldrh	r2, [r3, #44]	@ 0x2c
 8006cca:	687b      	ldr	r3, [r7, #4]
 8006ccc:	8ddb      	ldrh	r3, [r3, #46]	@ 0x2e
 8006cce:	b29b      	uxth	r3, r3
 8006cd0:	1ad3      	subs	r3, r2, r3
 8006cd2:	b29b      	uxth	r3, r3
 8006cd4:	4619      	mov	r1, r3
 8006cd6:	6878      	ldr	r0, [r7, #4]
 8006cd8:	f000 f8b6 	bl	8006e48 <HAL_UARTEx_RxEventCallback>
 8006cdc:	e09c      	b.n	8006e18 <HAL_UART_IRQHandler+0x518>
 8006cde:	bf00      	nop
 8006ce0:	08007047 	.word	0x08007047
 8006ce4:	687b      	ldr	r3, [r7, #4]
 8006ce6:	8d9a      	ldrh	r2, [r3, #44]	@ 0x2c
 8006ce8:	687b      	ldr	r3, [r7, #4]
 8006cea:	8ddb      	ldrh	r3, [r3, #46]	@ 0x2e
 8006cec:	b29b      	uxth	r3, r3
 8006cee:	1ad3      	subs	r3, r2, r3
 8006cf0:	f8a7 30ce 	strh.w	r3, [r7, #206]	@ 0xce
 8006cf4:	687b      	ldr	r3, [r7, #4]
 8006cf6:	8ddb      	ldrh	r3, [r3, #46]	@ 0x2e
 8006cf8:	b29b      	uxth	r3, r3
 8006cfa:	2b00      	cmp	r3, #0
 8006cfc:	f000 808e 	beq.w	8006e1c <HAL_UART_IRQHandler+0x51c>
 8006d00:	f8b7 30ce 	ldrh.w	r3, [r7, #206]	@ 0xce
 8006d04:	2b00      	cmp	r3, #0
 8006d06:	f000 8089 	beq.w	8006e1c <HAL_UART_IRQHandler+0x51c>
 8006d0a:	687b      	ldr	r3, [r7, #4]
 8006d0c:	681b      	ldr	r3, [r3, #0]
 8006d0e:	330c      	adds	r3, #12
 8006d10:	63bb      	str	r3, [r7, #56]	@ 0x38
 8006d12:	6bbb      	ldr	r3, [r7, #56]	@ 0x38
 8006d14:	e853 3f00 	ldrex	r3, [r3]
 8006d18:	637b      	str	r3, [r7, #52]	@ 0x34
 8006d1a:	6b7b      	ldr	r3, [r7, #52]	@ 0x34
 8006d1c:	f423 7390 	bic.w	r3, r3, #288	@ 0x120
 8006d20:	f8c7 30c8 	str.w	r3, [r7, #200]	@ 0xc8
 8006d24:	687b      	ldr	r3, [r7, #4]
 8006d26:	681b      	ldr	r3, [r3, #0]
 8006d28:	330c      	adds	r3, #12
 8006d2a:	f8d7 20c8 	ldr.w	r2, [r7, #200]	@ 0xc8
 8006d2e:	647a      	str	r2, [r7, #68]	@ 0x44
 8006d30:	643b      	str	r3, [r7, #64]	@ 0x40
 8006d32:	6c39      	ldr	r1, [r7, #64]	@ 0x40
 8006d34:	6c7a      	ldr	r2, [r7, #68]	@ 0x44
 8006d36:	e841 2300 	strex	r3, r2, [r1]
 8006d3a:	63fb      	str	r3, [r7, #60]	@ 0x3c
 8006d3c:	6bfb      	ldr	r3, [r7, #60]	@ 0x3c
 8006d3e:	2b00      	cmp	r3, #0
 8006d40:	d1e3      	bne.n	8006d0a <HAL_UART_IRQHandler+0x40a>
 8006d42:	687b      	ldr	r3, [r7, #4]
 8006d44:	681b      	ldr	r3, [r3, #0]
 8006d46:	3314      	adds	r3, #20
 8006d48:	627b      	str	r3, [r7, #36]	@ 0x24
 8006d4a:	6a7b      	ldr	r3, [r7, #36]	@ 0x24
 8006d4c:	e853 3f00 	ldrex	r3, [r3]
 8006d50:	623b      	str	r3, [r7, #32]
 8006d52:	6a3b      	ldr	r3, [r7, #32]
 8006d54:	f023 0301 	bic.w	r3, r3, #1
 8006d58:	f8c7 30c4 	str.w	r3, [r7, #196]	@ 0xc4
 8006d5c:	687b      	ldr	r3, [r7, #4]
 8006d5e:	681b      	ldr	r3, [r3, #0]
 8006d60:	3314      	adds	r3, #20
 8006d62:	f8d7 20c4 	ldr.w	r2, [r7, #196]	@ 0xc4
 8006d66:	633a      	str	r2, [r7, #48]	@ 0x30
 8006d68:	62fb      	str	r3, [r7, #44]	@ 0x2c
 8006d6a:	6af9      	ldr	r1, [r7, #44]	@ 0x2c
 8006d6c:	6b3a      	ldr	r2, [r7, #48]	@ 0x30
 8006d6e:	e841 2300 	strex	r3, r2, [r1]
 8006d72:	62bb      	str	r3, [r7, #40]	@ 0x28
 8006d74:	6abb      	ldr	r3, [r7, #40]	@ 0x28
 8006d76:	2b00      	cmp	r3, #0
 8006d78:	d1e3      	bne.n	8006d42 <HAL_UART_IRQHandler+0x442>
 8006d7a:	687b      	ldr	r3, [r7, #4]
 8006d7c:	2220      	movs	r2, #32
 8006d7e:	f883 2042 	strb.w	r2, [r3, #66]	@ 0x42
 8006d82:	687b      	ldr	r3, [r7, #4]
 8006d84:	2200      	movs	r2, #0
 8006d86:	631a      	str	r2, [r3, #48]	@ 0x30
 8006d88:	687b      	ldr	r3, [r7, #4]
 8006d8a:	681b      	ldr	r3, [r3, #0]
 8006d8c:	330c      	adds	r3, #12
 8006d8e:	613b      	str	r3, [r7, #16]
 8006d90:	693b      	ldr	r3, [r7, #16]
 8006d92:	e853 3f00 	ldrex	r3, [r3]
 8006d96:	60fb      	str	r3, [r7, #12]
 8006d98:	68fb      	ldr	r3, [r7, #12]
 8006d9a:	f023 0310 	bic.w	r3, r3, #16
 8006d9e:	f8c7 30c0 	str.w	r3, [r7, #192]	@ 0xc0
 8006da2:	687b      	ldr	r3, [r7, #4]
 8006da4:	681b      	ldr	r3, [r3, #0]
 8006da6:	330c      	adds	r3, #12
 8006da8:	f8d7 20c0 	ldr.w	r2, [r7, #192]	@ 0xc0
 8006dac:	61fa      	str	r2, [r7, #28]
 8006dae:	61bb      	str	r3, [r7, #24]
 8006db0:	69b9      	ldr	r1, [r7, #24]
 8006db2:	69fa      	ldr	r2, [r7, #28]
 8006db4:	e841 2300 	strex	r3, r2, [r1]
 8006db8:	617b      	str	r3, [r7, #20]
 8006dba:	697b      	ldr	r3, [r7, #20]
 8006dbc:	2b00      	cmp	r3, #0
 8006dbe:	d1e3      	bne.n	8006d88 <HAL_UART_IRQHandler+0x488>
 8006dc0:	687b      	ldr	r3, [r7, #4]
 8006dc2:	2202      	movs	r2, #2
 8006dc4:	635a      	str	r2, [r3, #52]	@ 0x34
 8006dc6:	f8b7 30ce 	ldrh.w	r3, [r7, #206]	@ 0xce
 8006dca:	4619      	mov	r1, r3
 8006dcc:	6878      	ldr	r0, [r7, #4]
 8006dce:	f000 f83b 	bl	8006e48 <HAL_UARTEx_RxEventCallback>
 8006dd2:	e023      	b.n	8006e1c <HAL_UART_IRQHandler+0x51c>
 8006dd4:	f8d7 30e4 	ldr.w	r3, [r7, #228]	@ 0xe4
 8006dd8:	f003 0380 	and.w	r3, r3, #128	@ 0x80
 8006ddc:	2b00      	cmp	r3, #0
 8006dde:	d009      	beq.n	8006df4 <HAL_UART_IRQHandler+0x4f4>
 8006de0:	f8d7 30e0 	ldr.w	r3, [r7, #224]	@ 0xe0
 8006de4:	f003 0380 	and.w	r3, r3, #128	@ 0x80
 8006de8:	2b00      	cmp	r3, #0
 8006dea:	d003      	beq.n	8006df4 <HAL_UART_IRQHandler+0x4f4>
 8006dec:	6878      	ldr	r0, [r7, #4]
 8006dee:	f000 f93e 	bl	800706e <UART_Transmit_IT>
 8006df2:	e014      	b.n	8006e1e <HAL_UART_IRQHandler+0x51e>
 8006df4:	f8d7 30e4 	ldr.w	r3, [r7, #228]	@ 0xe4
 8006df8:	f003 0340 	and.w	r3, r3, #64	@ 0x40
 8006dfc:	2b00      	cmp	r3, #0
 8006dfe:	d00e      	beq.n	8006e1e <HAL_UART_IRQHandler+0x51e>
 8006e00:	f8d7 30e0 	ldr.w	r3, [r7, #224]	@ 0xe0
 8006e04:	f003 0340 	and.w	r3, r3, #64	@ 0x40
 8006e08:	2b00      	cmp	r3, #0
 8006e0a:	d008      	beq.n	8006e1e <HAL_UART_IRQHandler+0x51e>
 8006e0c:	6878      	ldr	r0, [r7, #4]
 8006e0e:	f000 f97d 	bl	800710c <UART_EndTransmit_IT>
 8006e12:	e004      	b.n	8006e1e <HAL_UART_IRQHandler+0x51e>
 8006e14:	bf00      	nop
 8006e16:	e002      	b.n	8006e1e <HAL_UART_IRQHandler+0x51e>
 8006e18:	bf00      	nop
 8006e1a:	e000      	b.n	8006e1e <HAL_UART_IRQHandler+0x51e>
 8006e1c:	bf00      	nop
 8006e1e:	37e8      	adds	r7, #232	@ 0xe8
 8006e20:	46bd      	mov	sp, r7
 8006e22:	bd80      	pop	{r7, pc}

08006e24 <HAL_UART_TxCpltCallback>:
 8006e24:	b480      	push	{r7}
 8006e26:	b083      	sub	sp, #12
 8006e28:	af00      	add	r7, sp, #0
 8006e2a:	6078      	str	r0, [r7, #4]
 8006e2c:	bf00      	nop
 8006e2e:	370c      	adds	r7, #12
 8006e30:	46bd      	mov	sp, r7
 8006e32:	bc80      	pop	{r7}
 8006e34:	4770      	bx	lr

08006e36 <HAL_UART_ErrorCallback>:
 8006e36:	b480      	push	{r7}
 8006e38:	b083      	sub	sp, #12
 8006e3a:	af00      	add	r7, sp, #0
 8006e3c:	6078      	str	r0, [r7, #4]
 8006e3e:	bf00      	nop
 8006e40:	370c      	adds	r7, #12
 8006e42:	46bd      	mov	sp, r7
 8006e44:	bc80      	pop	{r7}
 8006e46:	4770      	bx	lr

08006e48 <HAL_UARTEx_RxEventCallback>:
 8006e48:	b480      	push	{r7}
 8006e4a:	b083      	sub	sp, #12
 8006e4c:	af00      	add	r7, sp, #0
 8006e4e:	6078      	str	r0, [r7, #4]
 8006e50:	460b      	mov	r3, r1
 8006e52:	807b      	strh	r3, [r7, #2]
 8006e54:	bf00      	nop
 8006e56:	370c      	adds	r7, #12
 8006e58:	46bd      	mov	sp, r7
 8006e5a:	bc80      	pop	{r7}
 8006e5c:	4770      	bx	lr

08006e5e <UART_WaitOnFlagUntilTimeout>:
 8006e5e:	b580      	push	{r7, lr}
 8006e60:	b086      	sub	sp, #24
 8006e62:	af00      	add	r7, sp, #0
 8006e64:	60f8      	str	r0, [r7, #12]
 8006e66:	60b9      	str	r1, [r7, #8]
 8006e68:	603b      	str	r3, [r7, #0]
 8006e6a:	4613      	mov	r3, r2
 8006e6c:	71fb      	strb	r3, [r7, #7]
 8006e6e:	e03b      	b.n	8006ee8 <UART_WaitOnFlagUntilTimeout+0x8a>
 8006e70:	6a3b      	ldr	r3, [r7, #32]
 8006e72:	f1b3 3fff 	cmp.w	r3, #4294967295
 8006e76:	d037      	beq.n	8006ee8 <UART_WaitOnFlagUntilTimeout+0x8a>
 8006e78:	f7fc f8da 	bl	8003030 <HAL_GetTick>
 8006e7c:	4602      	mov	r2, r0
 8006e7e:	683b      	ldr	r3, [r7, #0]
 8006e80:	1ad3      	subs	r3, r2, r3
 8006e82:	6a3a      	ldr	r2, [r7, #32]
 8006e84:	429a      	cmp	r2, r3
 8006e86:	d302      	bcc.n	8006e8e <UART_WaitOnFlagUntilTimeout+0x30>
 8006e88:	6a3b      	ldr	r3, [r7, #32]
 8006e8a:	2b00      	cmp	r3, #0
 8006e8c:	d101      	bne.n	8006e92 <UART_WaitOnFlagUntilTimeout+0x34>
 8006e8e:	2303      	movs	r3, #3
 8006e90:	e03a      	b.n	8006f08 <UART_WaitOnFlagUntilTimeout+0xaa>
 8006e92:	68fb      	ldr	r3, [r7, #12]
 8006e94:	681b      	ldr	r3, [r3, #0]
 8006e96:	68db      	ldr	r3, [r3, #12]
 8006e98:	f003 0304 	and.w	r3, r3, #4
 8006e9c:	2b00      	cmp	r3, #0
 8006e9e:	d023      	beq.n	8006ee8 <UART_WaitOnFlagUntilTimeout+0x8a>
 8006ea0:	68bb      	ldr	r3, [r7, #8]
 8006ea2:	2b80      	cmp	r3, #128	@ 0x80
 8006ea4:	d020      	beq.n	8006ee8 <UART_WaitOnFlagUntilTimeout+0x8a>
 8006ea6:	68bb      	ldr	r3, [r7, #8]
 8006ea8:	2b40      	cmp	r3, #64	@ 0x40
 8006eaa:	d01d      	beq.n	8006ee8 <UART_WaitOnFlagUntilTimeout+0x8a>
 8006eac:	68fb      	ldr	r3, [r7, #12]
 8006eae:	681b      	ldr	r3, [r3, #0]
 8006eb0:	681b      	ldr	r3, [r3, #0]
 8006eb2:	f003 0308 	and.w	r3, r3, #8
 8006eb6:	2b08      	cmp	r3, #8
 8006eb8:	d116      	bne.n	8006ee8 <UART_WaitOnFlagUntilTimeout+0x8a>
 8006eba:	2300      	movs	r3, #0
 8006ebc:	617b      	str	r3, [r7, #20]
 8006ebe:	68fb      	ldr	r3, [r7, #12]
 8006ec0:	681b      	ldr	r3, [r3, #0]
 8006ec2:	681b      	ldr	r3, [r3, #0]
 8006ec4:	617b      	str	r3, [r7, #20]
 8006ec6:	68fb      	ldr	r3, [r7, #12]
 8006ec8:	681b      	ldr	r3, [r3, #0]
 8006eca:	685b      	ldr	r3, [r3, #4]
 8006ecc:	617b      	str	r3, [r7, #20]
 8006ece:	697b      	ldr	r3, [r7, #20]
 8006ed0:	68f8      	ldr	r0, [r7, #12]
 8006ed2:	f000 f856 	bl	8006f82 <UART_EndRxTransfer>
 8006ed6:	68fb      	ldr	r3, [r7, #12]
 8006ed8:	2208      	movs	r2, #8
 8006eda:	645a      	str	r2, [r3, #68]	@ 0x44
 8006edc:	68fb      	ldr	r3, [r7, #12]
 8006ede:	2200      	movs	r2, #0
 8006ee0:	f883 2040 	strb.w	r2, [r3, #64]	@ 0x40
 8006ee4:	2301      	movs	r3, #1
 8006ee6:	e00f      	b.n	8006f08 <UART_WaitOnFlagUntilTimeout+0xaa>
 8006ee8:	68fb      	ldr	r3, [r7, #12]
 8006eea:	681b      	ldr	r3, [r3, #0]
 8006eec:	681a      	ldr	r2, [r3, #0]
 8006eee:	68bb      	ldr	r3, [r7, #8]
 8006ef0:	4013      	ands	r3, r2
 8006ef2:	68ba      	ldr	r2, [r7, #8]
 8006ef4:	429a      	cmp	r2, r3
 8006ef6:	bf0c      	ite	eq
 8006ef8:	2301      	moveq	r3, #1
 8006efa:	2300      	movne	r3, #0
 8006efc:	b2db      	uxtb	r3, r3
 8006efe:	461a      	mov	r2, r3
 8006f00:	79fb      	ldrb	r3, [r7, #7]
 8006f02:	429a      	cmp	r2, r3
 8006f04:	d0b4      	beq.n	8006e70 <UART_WaitOnFlagUntilTimeout+0x12>
 8006f06:	2300      	movs	r3, #0
 8006f08:	4618      	mov	r0, r3
 8006f0a:	3718      	adds	r7, #24
 8006f0c:	46bd      	mov	sp, r7
 8006f0e:	bd80      	pop	{r7, pc}

08006f10 <UART_Start_Receive_IT>:
 8006f10:	b480      	push	{r7}
 8006f12:	b085      	sub	sp, #20
 8006f14:	af00      	add	r7, sp, #0
 8006f16:	60f8      	str	r0, [r7, #12]
 8006f18:	60b9      	str	r1, [r7, #8]
 8006f1a:	4613      	mov	r3, r2
 8006f1c:	80fb      	strh	r3, [r7, #6]
 8006f1e:	68fb      	ldr	r3, [r7, #12]
 8006f20:	68ba      	ldr	r2, [r7, #8]
 8006f22:	629a      	str	r2, [r3, #40]	@ 0x28
 8006f24:	68fb      	ldr	r3, [r7, #12]
 8006f26:	88fa      	ldrh	r2, [r7, #6]
 8006f28:	859a      	strh	r2, [r3, #44]	@ 0x2c
 8006f2a:	68fb      	ldr	r3, [r7, #12]
 8006f2c:	88fa      	ldrh	r2, [r7, #6]
 8006f2e:	85da      	strh	r2, [r3, #46]	@ 0x2e
 8006f30:	68fb      	ldr	r3, [r7, #12]
 8006f32:	2200      	movs	r2, #0
 8006f34:	645a      	str	r2, [r3, #68]	@ 0x44
 8006f36:	68fb      	ldr	r3, [r7, #12]
 8006f38:	2222      	movs	r2, #34	@ 0x22
 8006f3a:	f883 2042 	strb.w	r2, [r3, #66]	@ 0x42
 8006f3e:	68fb      	ldr	r3, [r7, #12]
 8006f40:	691b      	ldr	r3, [r3, #16]
 8006f42:	2b00      	cmp	r3, #0
 8006f44:	d007      	beq.n	8006f56 <UART_Start_Receive_IT+0x46>
 8006f46:	68fb      	ldr	r3, [r7, #12]
 8006f48:	681b      	ldr	r3, [r3, #0]
 8006f4a:	68da      	ldr	r2, [r3, #12]
 8006f4c:	68fb      	ldr	r3, [r7, #12]
 8006f4e:	681b      	ldr	r3, [r3, #0]
 8006f50:	f442 7280 	orr.w	r2, r2, #256	@ 0x100
 8006f54:	60da      	str	r2, [r3, #12]
 8006f56:	68fb      	ldr	r3, [r7, #12]
 8006f58:	681b      	ldr	r3, [r3, #0]
 8006f5a:	695a      	ldr	r2, [r3, #20]
 8006f5c:	68fb      	ldr	r3, [r7, #12]
 8006f5e:	681b      	ldr	r3, [r3, #0]
 8006f60:	f042 0201 	orr.w	r2, r2, #1
 8006f64:	615a      	str	r2, [r3, #20]
 8006f66:	68fb      	ldr	r3, [r7, #12]
 8006f68:	681b      	ldr	r3, [r3, #0]
 8006f6a:	68da      	ldr	r2, [r3, #12]
 8006f6c:	68fb      	ldr	r3, [r7, #12]
 8006f6e:	681b      	ldr	r3, [r3, #0]
 8006f70:	f042 0220 	orr.w	r2, r2, #32
 8006f74:	60da      	str	r2, [r3, #12]
 8006f76:	2300      	movs	r3, #0
 8006f78:	4618      	mov	r0, r3
 8006f7a:	3714      	adds	r7, #20
 8006f7c:	46bd      	mov	sp, r7
 8006f7e:	bc80      	pop	{r7}
 8006f80:	4770      	bx	lr

08006f82 <UART_EndRxTransfer>:
 8006f82:	b480      	push	{r7}
 8006f84:	b095      	sub	sp, #84	@ 0x54
 8006f86:	af00      	add	r7, sp, #0
 8006f88:	6078      	str	r0, [r7, #4]
 8006f8a:	687b      	ldr	r3, [r7, #4]
 8006f8c:	681b      	ldr	r3, [r3, #0]
 8006f8e:	330c      	adds	r3, #12
 8006f90:	637b      	str	r3, [r7, #52]	@ 0x34
 8006f92:	6b7b      	ldr	r3, [r7, #52]	@ 0x34
 8006f94:	e853 3f00 	ldrex	r3, [r3]
 8006f98:	633b      	str	r3, [r7, #48]	@ 0x30
 8006f9a:	6b3b      	ldr	r3, [r7, #48]	@ 0x30
 8006f9c:	f423 7390 	bic.w	r3, r3, #288	@ 0x120
 8006fa0:	64fb      	str	r3, [r7, #76]	@ 0x4c
 8006fa2:	687b      	ldr	r3, [r7, #4]
 8006fa4:	681b      	ldr	r3, [r3, #0]
 8006fa6:	330c      	adds	r3, #12
 8006fa8:	6cfa      	ldr	r2, [r7, #76]	@ 0x4c
 8006faa:	643a      	str	r2, [r7, #64]	@ 0x40
 8006fac:	63fb      	str	r3, [r7, #60]	@ 0x3c
 8006fae:	6bf9      	ldr	r1, [r7, #60]	@ 0x3c
 8006fb0:	6c3a      	ldr	r2, [r7, #64]	@ 0x40
 8006fb2:	e841 2300 	strex	r3, r2, [r1]
 8006fb6:	63bb      	str	r3, [r7, #56]	@ 0x38
 8006fb8:	6bbb      	ldr	r3, [r7, #56]	@ 0x38
 8006fba:	2b00      	cmp	r3, #0
 8006fbc:	d1e5      	bne.n	8006f8a <UART_EndRxTransfer+0x8>
 8006fbe:	687b      	ldr	r3, [r7, #4]
 8006fc0:	681b      	ldr	r3, [r3, #0]
 8006fc2:	3314      	adds	r3, #20
 8006fc4:	623b      	str	r3, [r7, #32]
 8006fc6:	6a3b      	ldr	r3, [r7, #32]
 8006fc8:	e853 3f00 	ldrex	r3, [r3]
 8006fcc:	61fb      	str	r3, [r7, #28]
 8006fce:	69fb      	ldr	r3, [r7, #28]
 8006fd0:	f023 0301 	bic.w	r3, r3, #1
 8006fd4:	64bb      	str	r3, [r7, #72]	@ 0x48
 8006fd6:	687b      	ldr	r3, [r7, #4]
 8006fd8:	681b      	ldr	r3, [r3, #0]
 8006fda:	3314      	adds	r3, #20
 8006fdc:	6cba      	ldr	r2, [r7, #72]	@ 0x48
 8006fde:	62fa      	str	r2, [r7, #44]	@ 0x2c
 8006fe0:	62bb      	str	r3, [r7, #40]	@ 0x28
 8006fe2:	6ab9      	ldr	r1, [r7, #40]	@ 0x28
 8006fe4:	6afa      	ldr	r2, [r7, #44]	@ 0x2c
 8006fe6:	e841 2300 	strex	r3, r2, [r1]
 8006fea:	627b      	str	r3, [r7, #36]	@ 0x24
 8006fec:	6a7b      	ldr	r3, [r7, #36]	@ 0x24
 8006fee:	2b00      	cmp	r3, #0
 8006ff0:	d1e5      	bne.n	8006fbe <UART_EndRxTransfer+0x3c>
 8006ff2:	687b      	ldr	r3, [r7, #4]
 8006ff4:	6b1b      	ldr	r3, [r3, #48]	@ 0x30
 8006ff6:	2b01      	cmp	r3, #1
 8006ff8:	d119      	bne.n	800702e <UART_EndRxTransfer+0xac>
 8006ffa:	687b      	ldr	r3, [r7, #4]
 8006ffc:	681b      	ldr	r3, [r3, #0]
 8006ffe:	330c      	adds	r3, #12
 8007000:	60fb      	str	r3, [r7, #12]
 8007002:	68fb      	ldr	r3, [r7, #12]
 8007004:	e853 3f00 	ldrex	r3, [r3]
 8007008:	60bb      	str	r3, [r7, #8]
 800700a:	68bb      	ldr	r3, [r7, #8]
 800700c:	f023 0310 	bic.w	r3, r3, #16
 8007010:	647b      	str	r3, [r7, #68]	@ 0x44
 8007012:	687b      	ldr	r3, [r7, #4]
 8007014:	681b      	ldr	r3, [r3, #0]
 8007016:	330c      	adds	r3, #12
 8007018:	6c7a      	ldr	r2, [r7, #68]	@ 0x44
 800701a:	61ba      	str	r2, [r7, #24]
 800701c:	617b      	str	r3, [r7, #20]
 800701e:	6979      	ldr	r1, [r7, #20]
 8007020:	69ba      	ldr	r2, [r7, #24]
 8007022:	e841 2300 	strex	r3, r2, [r1]
 8007026:	613b      	str	r3, [r7, #16]
 8007028:	693b      	ldr	r3, [r7, #16]
 800702a:	2b00      	cmp	r3, #0
 800702c:	d1e5      	bne.n	8006ffa <UART_EndRxTransfer+0x78>
 800702e:	687b      	ldr	r3, [r7, #4]
 8007030:	2220      	movs	r2, #32
 8007032:	f883 2042 	strb.w	r2, [r3, #66]	@ 0x42
 8007036:	687b      	ldr	r3, [r7, #4]
 8007038:	2200      	movs	r2, #0
 800703a:	631a      	str	r2, [r3, #48]	@ 0x30
 800703c:	bf00      	nop
 800703e:	3754      	adds	r7, #84	@ 0x54
 8007040:	46bd      	mov	sp, r7
 8007042:	bc80      	pop	{r7}
 8007044:	4770      	bx	lr

08007046 <UART_DMAAbortOnError>:
 8007046:	b580      	push	{r7, lr}
 8007048:	b084      	sub	sp, #16
 800704a:	af00      	add	r7, sp, #0
 800704c:	6078      	str	r0, [r7, #4]
 800704e:	687b      	ldr	r3, [r7, #4]
 8007050:	6a5b      	ldr	r3, [r3, #36]	@ 0x24
 8007052:	60fb      	str	r3, [r7, #12]
 8007054:	68fb      	ldr	r3, [r7, #12]
 8007056:	2200      	movs	r2, #0
 8007058:	85da      	strh	r2, [r3, #46]	@ 0x2e
 800705a:	68fb      	ldr	r3, [r7, #12]
 800705c:	2200      	movs	r2, #0
 800705e:	84da      	strh	r2, [r3, #38]	@ 0x26
 8007060:	68f8      	ldr	r0, [r7, #12]
 8007062:	f7ff fee8 	bl	8006e36 <HAL_UART_ErrorCallback>
 8007066:	bf00      	nop
 8007068:	3710      	adds	r7, #16
 800706a:	46bd      	mov	sp, r7
 800706c:	bd80      	pop	{r7, pc}

0800706e <UART_Transmit_IT>:
 800706e:	b480      	push	{r7}
 8007070:	b085      	sub	sp, #20
 8007072:	af00      	add	r7, sp, #0
 8007074:	6078      	str	r0, [r7, #4]
 8007076:	687b      	ldr	r3, [r7, #4]
 8007078:	f893 3041 	ldrb.w	r3, [r3, #65]	@ 0x41
 800707c:	b2db      	uxtb	r3, r3
 800707e:	2b21      	cmp	r3, #33	@ 0x21
 8007080:	d13e      	bne.n	8007100 <UART_Transmit_IT+0x92>
 8007082:	687b      	ldr	r3, [r7, #4]
 8007084:	689b      	ldr	r3, [r3, #8]
 8007086:	f5b3 5f80 	cmp.w	r3, #4096	@ 0x1000
 800708a:	d114      	bne.n	80070b6 <UART_Transmit_IT+0x48>
 800708c:	687b      	ldr	r3, [r7, #4]
 800708e:	691b      	ldr	r3, [r3, #16]
 8007090:	2b00      	cmp	r3, #0
 8007092:	d110      	bne.n	80070b6 <UART_Transmit_IT+0x48>
 8007094:	687b      	ldr	r3, [r7, #4]
 8007096:	6a1b      	ldr	r3, [r3, #32]
 8007098:	60fb      	str	r3, [r7, #12]
 800709a:	68fb      	ldr	r3, [r7, #12]
 800709c:	881b      	ldrh	r3, [r3, #0]
 800709e:	461a      	mov	r2, r3
 80070a0:	687b      	ldr	r3, [r7, #4]
 80070a2:	681b      	ldr	r3, [r3, #0]
 80070a4:	f3c2 0208 	ubfx	r2, r2, #0, #9
 80070a8:	605a      	str	r2, [r3, #4]
 80070aa:	687b      	ldr	r3, [r7, #4]
 80070ac:	6a1b      	ldr	r3, [r3, #32]
 80070ae:	1c9a      	adds	r2, r3, #2
 80070b0:	687b      	ldr	r3, [r7, #4]
 80070b2:	621a      	str	r2, [r3, #32]
 80070b4:	e008      	b.n	80070c8 <UART_Transmit_IT+0x5a>
 80070b6:	687b      	ldr	r3, [r7, #4]
 80070b8:	6a1b      	ldr	r3, [r3, #32]
 80070ba:	1c59      	adds	r1, r3, #1
 80070bc:	687a      	ldr	r2, [r7, #4]
 80070be:	6211      	str	r1, [r2, #32]
 80070c0:	781a      	ldrb	r2, [r3, #0]
 80070c2:	687b      	ldr	r3, [r7, #4]
 80070c4:	681b      	ldr	r3, [r3, #0]
 80070c6:	605a      	str	r2, [r3, #4]
 80070c8:	687b      	ldr	r3, [r7, #4]
 80070ca:	8cdb      	ldrh	r3, [r3, #38]	@ 0x26
 80070cc:	b29b      	uxth	r3, r3
 80070ce:	3b01      	subs	r3, #1
 80070d0:	b29b      	uxth	r3, r3
 80070d2:	687a      	ldr	r2, [r7, #4]
 80070d4:	4619      	mov	r1, r3
 80070d6:	84d1      	strh	r1, [r2, #38]	@ 0x26
 80070d8:	2b00      	cmp	r3, #0
 80070da:	d10f      	bne.n	80070fc <UART_Transmit_IT+0x8e>
 80070dc:	687b      	ldr	r3, [r7, #4]
 80070de:	681b      	ldr	r3, [r3, #0]
 80070e0:	68da      	ldr	r2, [r3, #12]
 80070e2:	687b      	ldr	r3, [r7, #4]
 80070e4:	681b      	ldr	r3, [r3, #0]
 80070e6:	f022 0280 	bic.w	r2, r2, #128	@ 0x80
 80070ea:	60da      	str	r2, [r3, #12]
 80070ec:	687b      	ldr	r3, [r7, #4]
 80070ee:	681b      	ldr	r3, [r3, #0]
 80070f0:	68da      	ldr	r2, [r3, #12]
 80070f2:	687b      	ldr	r3, [r7, #4]
 80070f4:	681b      	ldr	r3, [r3, #0]
 80070f6:	f042 0240 	orr.w	r2, r2, #64	@ 0x40
 80070fa:	60da      	str	r2, [r3, #12]
 80070fc:	2300      	movs	r3, #0
 80070fe:	e000      	b.n	8007102 <UART_Transmit_IT+0x94>
 8007100:	2302      	movs	r3, #2
 8007102:	4618      	mov	r0, r3
 8007104:	3714      	adds	r7, #20
 8007106:	46bd      	mov	sp, r7
 8007108:	bc80      	pop	{r7}
 800710a:	4770      	bx	lr

0800710c <UART_EndTransmit_IT>:
 800710c:	b580      	push	{r7, lr}
 800710e:	b082      	sub	sp, #8
 8007110:	af00      	add	r7, sp, #0
 8007112:	6078      	str	r0, [r7, #4]
 8007114:	687b      	ldr	r3, [r7, #4]
 8007116:	681b      	ldr	r3, [r3, #0]
 8007118:	68da      	ldr	r2, [r3, #12]
 800711a:	687b      	ldr	r3, [r7, #4]
 800711c:	681b      	ldr	r3, [r3, #0]
 800711e:	f022 0240 	bic.w	r2, r2, #64	@ 0x40
 8007122:	60da      	str	r2, [r3, #12]
 8007124:	687b      	ldr	r3, [r7, #4]
 8007126:	2220      	movs	r2, #32
 8007128:	f883 2041 	strb.w	r2, [r3, #65]	@ 0x41
 800712c:	6878      	ldr	r0, [r7, #4]
 800712e:	f7ff fe79 	bl	8006e24 <HAL_UART_TxCpltCallback>
 8007132:	2300      	movs	r3, #0
 8007134:	4618      	mov	r0, r3
 8007136:	3708      	adds	r7, #8
 8007138:	46bd      	mov	sp, r7
 800713a:	bd80      	pop	{r7, pc}

0800713c <UART_Receive_IT>:
 800713c:	b580      	push	{r7, lr}
 800713e:	b08c      	sub	sp, #48	@ 0x30
 8007140:	af00      	add	r7, sp, #0
 8007142:	6078      	str	r0, [r7, #4]
 8007144:	687b      	ldr	r3, [r7, #4]
 8007146:	f893 3042 	ldrb.w	r3, [r3, #66]	@ 0x42
 800714a:	b2db      	uxtb	r3, r3
 800714c:	2b22      	cmp	r3, #34	@ 0x22
 800714e:	f040 80ae 	bne.w	80072ae <UART_Receive_IT+0x172>
 8007152:	687b      	ldr	r3, [r7, #4]
 8007154:	689b      	ldr	r3, [r3, #8]
 8007156:	f5b3 5f80 	cmp.w	r3, #4096	@ 0x1000
 800715a:	d117      	bne.n	800718c <UART_Receive_IT+0x50>
 800715c:	687b      	ldr	r3, [r7, #4]
 800715e:	691b      	ldr	r3, [r3, #16]
 8007160:	2b00      	cmp	r3, #0
 8007162:	d113      	bne.n	800718c <UART_Receive_IT+0x50>
 8007164:	2300      	movs	r3, #0
 8007166:	62fb      	str	r3, [r7, #44]	@ 0x2c
 8007168:	687b      	ldr	r3, [r7, #4]
 800716a:	6a9b      	ldr	r3, [r3, #40]	@ 0x28
 800716c:	62bb      	str	r3, [r7, #40]	@ 0x28
 800716e:	687b      	ldr	r3, [r7, #4]
 8007170:	681b      	ldr	r3, [r3, #0]
 8007172:	685b      	ldr	r3, [r3, #4]
 8007174:	b29b      	uxth	r3, r3
 8007176:	f3c3 0308 	ubfx	r3, r3, #0, #9
 800717a:	b29a      	uxth	r2, r3
 800717c:	6abb      	ldr	r3, [r7, #40]	@ 0x28
 800717e:	801a      	strh	r2, [r3, #0]
 8007180:	687b      	ldr	r3, [r7, #4]
 8007182:	6a9b      	ldr	r3, [r3, #40]	@ 0x28
 8007184:	1c9a      	adds	r2, r3, #2
 8007186:	687b      	ldr	r3, [r7, #4]
 8007188:	629a      	str	r2, [r3, #40]	@ 0x28
 800718a:	e026      	b.n	80071da <UART_Receive_IT+0x9e>
 800718c:	687b      	ldr	r3, [r7, #4]
 800718e:	6a9b      	ldr	r3, [r3, #40]	@ 0x28
 8007190:	62fb      	str	r3, [r7, #44]	@ 0x2c
 8007192:	2300      	movs	r3, #0
 8007194:	62bb      	str	r3, [r7, #40]	@ 0x28
 8007196:	687b      	ldr	r3, [r7, #4]
 8007198:	689b      	ldr	r3, [r3, #8]
 800719a:	f5b3 5f80 	cmp.w	r3, #4096	@ 0x1000
 800719e:	d007      	beq.n	80071b0 <UART_Receive_IT+0x74>
 80071a0:	687b      	ldr	r3, [r7, #4]
 80071a2:	689b      	ldr	r3, [r3, #8]
 80071a4:	2b00      	cmp	r3, #0
 80071a6:	d10a      	bne.n	80071be <UART_Receive_IT+0x82>
 80071a8:	687b      	ldr	r3, [r7, #4]
 80071aa:	691b      	ldr	r3, [r3, #16]
 80071ac:	2b00      	cmp	r3, #0
 80071ae:	d106      	bne.n	80071be <UART_Receive_IT+0x82>
 80071b0:	687b      	ldr	r3, [r7, #4]
 80071b2:	681b      	ldr	r3, [r3, #0]
 80071b4:	685b      	ldr	r3, [r3, #4]
 80071b6:	b2da      	uxtb	r2, r3
 80071b8:	6afb      	ldr	r3, [r7, #44]	@ 0x2c
 80071ba:	701a      	strb	r2, [r3, #0]
 80071bc:	e008      	b.n	80071d0 <UART_Receive_IT+0x94>
 80071be:	687b      	ldr	r3, [r7, #4]
 80071c0:	681b      	ldr	r3, [r3, #0]
 80071c2:	685b      	ldr	r3, [r3, #4]
 80071c4:	b2db      	uxtb	r3, r3
 80071c6:	f003 037f 	and.w	r3, r3, #127	@ 0x7f
 80071ca:	b2da      	uxtb	r2, r3
 80071cc:	6afb      	ldr	r3, [r7, #44]	@ 0x2c
 80071ce:	701a      	strb	r2, [r3, #0]
 80071d0:	687b      	ldr	r3, [r7, #4]
 80071d2:	6a9b      	ldr	r3, [r3, #40]	@ 0x28
 80071d4:	1c5a      	adds	r2, r3, #1
 80071d6:	687b      	ldr	r3, [r7, #4]
 80071d8:	629a      	str	r2, [r3, #40]	@ 0x28
 80071da:	687b      	ldr	r3, [r7, #4]
 80071dc:	8ddb      	ldrh	r3, [r3, #46]	@ 0x2e
 80071de:	b29b      	uxth	r3, r3
 80071e0:	3b01      	subs	r3, #1
 80071e2:	b29b      	uxth	r3, r3
 80071e4:	687a      	ldr	r2, [r7, #4]
 80071e6:	4619      	mov	r1, r3
 80071e8:	85d1      	strh	r1, [r2, #46]	@ 0x2e
 80071ea:	2b00      	cmp	r3, #0
 80071ec:	d15d      	bne.n	80072aa <UART_Receive_IT+0x16e>
 80071ee:	687b      	ldr	r3, [r7, #4]
 80071f0:	681b      	ldr	r3, [r3, #0]
 80071f2:	68da      	ldr	r2, [r3, #12]
 80071f4:	687b      	ldr	r3, [r7, #4]
 80071f6:	681b      	ldr	r3, [r3, #0]
 80071f8:	f022 0220 	bic.w	r2, r2, #32
 80071fc:	60da      	str	r2, [r3, #12]
 80071fe:	687b      	ldr	r3, [r7, #4]
 8007200:	681b      	ldr	r3, [r3, #0]
 8007202:	68da      	ldr	r2, [r3, #12]
 8007204:	687b      	ldr	r3, [r7, #4]
 8007206:	681b      	ldr	r3, [r3, #0]
 8007208:	f422 7280 	bic.w	r2, r2, #256	@ 0x100
 800720c:	60da      	str	r2, [r3, #12]
 800720e:	687b      	ldr	r3, [r7, #4]
 8007210:	681b      	ldr	r3, [r3, #0]
 8007212:	695a      	ldr	r2, [r3, #20]
 8007214:	687b      	ldr	r3, [r7, #4]
 8007216:	681b      	ldr	r3, [r3, #0]
 8007218:	f022 0201 	bic.w	r2, r2, #1
 800721c:	615a      	str	r2, [r3, #20]
 800721e:	687b      	ldr	r3, [r7, #4]
 8007220:	2220      	movs	r2, #32
 8007222:	f883 2042 	strb.w	r2, [r3, #66]	@ 0x42
 8007226:	687b      	ldr	r3, [r7, #4]
 8007228:	2200      	movs	r2, #0
 800722a:	635a      	str	r2, [r3, #52]	@ 0x34
 800722c:	687b      	ldr	r3, [r7, #4]
 800722e:	6b1b      	ldr	r3, [r3, #48]	@ 0x30
 8007230:	2b01      	cmp	r3, #1
 8007232:	d135      	bne.n	80072a0 <UART_Receive_IT+0x164>
 8007234:	687b      	ldr	r3, [r7, #4]
 8007236:	2200      	movs	r2, #0
 8007238:	631a      	str	r2, [r3, #48]	@ 0x30
 800723a:	687b      	ldr	r3, [r7, #4]
 800723c:	681b      	ldr	r3, [r3, #0]
 800723e:	330c      	adds	r3, #12
 8007240:	617b      	str	r3, [r7, #20]
 8007242:	697b      	ldr	r3, [r7, #20]
 8007244:	e853 3f00 	ldrex	r3, [r3]
 8007248:	613b      	str	r3, [r7, #16]
 800724a:	693b      	ldr	r3, [r7, #16]
 800724c:	f023 0310 	bic.w	r3, r3, #16
 8007250:	627b      	str	r3, [r7, #36]	@ 0x24
 8007252:	687b      	ldr	r3, [r7, #4]
 8007254:	681b      	ldr	r3, [r3, #0]
 8007256:	330c      	adds	r3, #12
 8007258:	6a7a      	ldr	r2, [r7, #36]	@ 0x24
 800725a:	623a      	str	r2, [r7, #32]
 800725c:	61fb      	str	r3, [r7, #28]
 800725e:	69f9      	ldr	r1, [r7, #28]
 8007260:	6a3a      	ldr	r2, [r7, #32]
 8007262:	e841 2300 	strex	r3, r2, [r1]
 8007266:	61bb      	str	r3, [r7, #24]
 8007268:	69bb      	ldr	r3, [r7, #24]
 800726a:	2b00      	cmp	r3, #0
 800726c:	d1e5      	bne.n	800723a <UART_Receive_IT+0xfe>
 800726e:	687b      	ldr	r3, [r7, #4]
 8007270:	681b      	ldr	r3, [r3, #0]
 8007272:	681b      	ldr	r3, [r3, #0]
 8007274:	f003 0310 	and.w	r3, r3, #16
 8007278:	2b10      	cmp	r3, #16
 800727a:	d10a      	bne.n	8007292 <UART_Receive_IT+0x156>
 800727c:	2300      	movs	r3, #0
 800727e:	60fb      	str	r3, [r7, #12]
 8007280:	687b      	ldr	r3, [r7, #4]
 8007282:	681b      	ldr	r3, [r3, #0]
 8007284:	681b      	ldr	r3, [r3, #0]
 8007286:	60fb      	str	r3, [r7, #12]
 8007288:	687b      	ldr	r3, [r7, #4]
 800728a:	681b      	ldr	r3, [r3, #0]
 800728c:	685b      	ldr	r3, [r3, #4]
 800728e:	60fb      	str	r3, [r7, #12]
 8007290:	68fb      	ldr	r3, [r7, #12]
 8007292:	687b      	ldr	r3, [r7, #4]
 8007294:	8d9b      	ldrh	r3, [r3, #44]	@ 0x2c
 8007296:	4619      	mov	r1, r3
 8007298:	6878      	ldr	r0, [r7, #4]
 800729a:	f7ff fdd5 	bl	8006e48 <HAL_UARTEx_RxEventCallback>
 800729e:	e002      	b.n	80072a6 <UART_Receive_IT+0x16a>
 80072a0:	6878      	ldr	r0, [r7, #4]
 80072a2:	f7fa ff71 	bl	8002188 <HAL_UART_RxCpltCallback>
 80072a6:	2300      	movs	r3, #0
 80072a8:	e002      	b.n	80072b0 <UART_Receive_IT+0x174>
 80072aa:	2300      	movs	r3, #0
 80072ac:	e000      	b.n	80072b0 <UART_Receive_IT+0x174>
 80072ae:	2302      	movs	r3, #2
 80072b0:	4618      	mov	r0, r3
 80072b2:	3730      	adds	r7, #48	@ 0x30
 80072b4:	46bd      	mov	sp, r7
 80072b6:	bd80      	pop	{r7, pc}

080072b8 <UART_SetConfig>:
 80072b8:	b580      	push	{r7, lr}
 80072ba:	b084      	sub	sp, #16
 80072bc:	af00      	add	r7, sp, #0
 80072be:	6078      	str	r0, [r7, #4]
 80072c0:	687b      	ldr	r3, [r7, #4]
 80072c2:	681b      	ldr	r3, [r3, #0]
 80072c4:	691b      	ldr	r3, [r3, #16]
 80072c6:	f423 5140 	bic.w	r1, r3, #12288	@ 0x3000
 80072ca:	687b      	ldr	r3, [r7, #4]
 80072cc:	68da      	ldr	r2, [r3, #12]
 80072ce:	687b      	ldr	r3, [r7, #4]
 80072d0:	681b      	ldr	r3, [r3, #0]
 80072d2:	430a      	orrs	r2, r1
 80072d4:	611a      	str	r2, [r3, #16]
 80072d6:	687b      	ldr	r3, [r7, #4]
 80072d8:	689a      	ldr	r2, [r3, #8]
 80072da:	687b      	ldr	r3, [r7, #4]
 80072dc:	691b      	ldr	r3, [r3, #16]
 80072de:	431a      	orrs	r2, r3
 80072e0:	687b      	ldr	r3, [r7, #4]
 80072e2:	695b      	ldr	r3, [r3, #20]
 80072e4:	4313      	orrs	r3, r2
 80072e6:	60bb      	str	r3, [r7, #8]
 80072e8:	687b      	ldr	r3, [r7, #4]
 80072ea:	681b      	ldr	r3, [r3, #0]
 80072ec:	68db      	ldr	r3, [r3, #12]
 80072ee:	f423 53b0 	bic.w	r3, r3, #5632	@ 0x1600
 80072f2:	f023 030c 	bic.w	r3, r3, #12
 80072f6:	687a      	ldr	r2, [r7, #4]
 80072f8:	6812      	ldr	r2, [r2, #0]
 80072fa:	68b9      	ldr	r1, [r7, #8]
 80072fc:	430b      	orrs	r3, r1
 80072fe:	60d3      	str	r3, [r2, #12]
 8007300:	687b      	ldr	r3, [r7, #4]
 8007302:	681b      	ldr	r3, [r3, #0]
 8007304:	695b      	ldr	r3, [r3, #20]
 8007306:	f423 7140 	bic.w	r1, r3, #768	@ 0x300
 800730a:	687b      	ldr	r3, [r7, #4]
 800730c:	699a      	ldr	r2, [r3, #24]
 800730e:	687b      	ldr	r3, [r7, #4]
 8007310:	681b      	ldr	r3, [r3, #0]
 8007312:	430a      	orrs	r2, r1
 8007314:	615a      	str	r2, [r3, #20]
 8007316:	687b      	ldr	r3, [r7, #4]
 8007318:	681b      	ldr	r3, [r3, #0]
 800731a:	4a2c      	ldr	r2, [pc, #176]	@ (80073cc <UART_SetConfig+0x114>)
 800731c:	4293      	cmp	r3, r2
 800731e:	d103      	bne.n	8007328 <UART_SetConfig+0x70>
 8007320:	f7fe fa18 	bl	8005754 <HAL_RCC_GetPCLK2Freq>
 8007324:	60f8      	str	r0, [r7, #12]
 8007326:	e002      	b.n	800732e <UART_SetConfig+0x76>
 8007328:	f7fe fa00 	bl	800572c <HAL_RCC_GetPCLK1Freq>
 800732c:	60f8      	str	r0, [r7, #12]
 800732e:	68fa      	ldr	r2, [r7, #12]
 8007330:	4613      	mov	r3, r2
 8007332:	009b      	lsls	r3, r3, #2
 8007334:	4413      	add	r3, r2
 8007336:	009a      	lsls	r2, r3, #2
 8007338:	441a      	add	r2, r3
 800733a:	687b      	ldr	r3, [r7, #4]
 800733c:	685b      	ldr	r3, [r3, #4]
 800733e:	009b      	lsls	r3, r3, #2
 8007340:	fbb2 f3f3 	udiv	r3, r2, r3
 8007344:	4a22      	ldr	r2, [pc, #136]	@ (80073d0 <UART_SetConfig+0x118>)
 8007346:	fba2 2303 	umull	r2, r3, r2, r3
 800734a:	095b      	lsrs	r3, r3, #5
 800734c:	0119      	lsls	r1, r3, #4
 800734e:	68fa      	ldr	r2, [r7, #12]
 8007350:	4613      	mov	r3, r2
 8007352:	009b      	lsls	r3, r3, #2
 8007354:	4413      	add	r3, r2
 8007356:	009a      	lsls	r2, r3, #2
 8007358:	441a      	add	r2, r3
 800735a:	687b      	ldr	r3, [r7, #4]
 800735c:	685b      	ldr	r3, [r3, #4]
 800735e:	009b      	lsls	r3, r3, #2
 8007360:	fbb2 f2f3 	udiv	r2, r2, r3
 8007364:	4b1a      	ldr	r3, [pc, #104]	@ (80073d0 <UART_SetConfig+0x118>)
 8007366:	fba3 0302 	umull	r0, r3, r3, r2
 800736a:	095b      	lsrs	r3, r3, #5
 800736c:	2064      	movs	r0, #100	@ 0x64
 800736e:	fb00 f303 	mul.w	r3, r0, r3
 8007372:	1ad3      	subs	r3, r2, r3
 8007374:	011b      	lsls	r3, r3, #4
 8007376:	3332      	adds	r3, #50	@ 0x32
 8007378:	4a15      	ldr	r2, [pc, #84]	@ (80073d0 <UART_SetConfig+0x118>)
 800737a:	fba2 2303 	umull	r2, r3, r2, r3
 800737e:	095b      	lsrs	r3, r3, #5
 8007380:	f003 03f0 	and.w	r3, r3, #240	@ 0xf0
 8007384:	4419      	add	r1, r3
 8007386:	68fa      	ldr	r2, [r7, #12]
 8007388:	4613      	mov	r3, r2
 800738a:	009b      	lsls	r3, r3, #2
 800738c:	4413      	add	r3, r2
 800738e:	009a      	lsls	r2, r3, #2
 8007390:	441a      	add	r2, r3
 8007392:	687b      	ldr	r3, [r7, #4]
 8007394:	685b      	ldr	r3, [r3, #4]
 8007396:	009b      	lsls	r3, r3, #2
 8007398:	fbb2 f2f3 	udiv	r2, r2, r3
 800739c:	4b0c      	ldr	r3, [pc, #48]	@ (80073d0 <UART_SetConfig+0x118>)
 800739e:	fba3 0302 	umull	r0, r3, r3, r2
 80073a2:	095b      	lsrs	r3, r3, #5
 80073a4:	2064      	movs	r0, #100	@ 0x64
 80073a6:	fb00 f303 	mul.w	r3, r0, r3
 80073aa:	1ad3      	subs	r3, r2, r3
 80073ac:	011b      	lsls	r3, r3, #4
 80073ae:	3332      	adds	r3, #50	@ 0x32
 80073b0:	4a07      	ldr	r2, [pc, #28]	@ (80073d0 <UART_SetConfig+0x118>)
 80073b2:	fba2 2303 	umull	r2, r3, r2, r3
 80073b6:	095b      	lsrs	r3, r3, #5
 80073b8:	f003 020f 	and.w	r2, r3, #15
 80073bc:	687b      	ldr	r3, [r7, #4]
 80073be:	681b      	ldr	r3, [r3, #0]
 80073c0:	440a      	add	r2, r1
 80073c2:	609a      	str	r2, [r3, #8]
 80073c4:	bf00      	nop
 80073c6:	3710      	adds	r7, #16
 80073c8:	46bd      	mov	sp, r7
 80073ca:	bd80      	pop	{r7, pc}
 80073cc:	40013800 	.word	0x40013800
 80073d0:	51eb851f 	.word	0x51eb851f

080073d4 <csn_high>:
 80073d4:	b580      	push	{r7, lr}
 80073d6:	af00      	add	r7, sp, #0
 80073d8:	2201      	movs	r2, #1
 80073da:	2108      	movs	r1, #8
 80073dc:	4802      	ldr	r0, [pc, #8]	@ (80073e8 <csn_high+0x14>)
 80073de:	f7fc fbab 	bl	8003b38 <HAL_GPIO_WritePin>
 80073e2:	bf00      	nop
 80073e4:	bd80      	pop	{r7, pc}
 80073e6:	bf00      	nop
 80073e8:	40010800 	.word	0x40010800

080073ec <csn_low>:
 80073ec:	b580      	push	{r7, lr}
 80073ee:	af00      	add	r7, sp, #0
 80073f0:	2200      	movs	r2, #0
 80073f2:	2108      	movs	r1, #8
 80073f4:	4802      	ldr	r0, [pc, #8]	@ (8007400 <csn_low+0x14>)
 80073f6:	f7fc fb9f 	bl	8003b38 <HAL_GPIO_WritePin>
 80073fa:	bf00      	nop
 80073fc:	bd80      	pop	{r7, pc}
 80073fe:	bf00      	nop
 8007400:	40010800 	.word	0x40010800

08007404 <ce_high>:
 8007404:	b580      	push	{r7, lr}
 8007406:	af00      	add	r7, sp, #0
 8007408:	2201      	movs	r2, #1
 800740a:	2110      	movs	r1, #16
 800740c:	4802      	ldr	r0, [pc, #8]	@ (8007418 <ce_high+0x14>)
 800740e:	f7fc fb93 	bl	8003b38 <HAL_GPIO_WritePin>
 8007412:	bf00      	nop
 8007414:	bd80      	pop	{r7, pc}
 8007416:	bf00      	nop
 8007418:	40010800 	.word	0x40010800

0800741c <ce_low>:
 800741c:	b580      	push	{r7, lr}
 800741e:	af00      	add	r7, sp, #0
 8007420:	2200      	movs	r2, #0
 8007422:	2110      	movs	r1, #16
 8007424:	4802      	ldr	r0, [pc, #8]	@ (8007430 <ce_low+0x14>)
 8007426:	f7fc fb87 	bl	8003b38 <HAL_GPIO_WritePin>
 800742a:	bf00      	nop
 800742c:	bd80      	pop	{r7, pc}
 800742e:	bf00      	nop
 8007430:	40010800 	.word	0x40010800

08007434 <nrf24_w_reg>:
 8007434:	b580      	push	{r7, lr}
 8007436:	b084      	sub	sp, #16
 8007438:	af00      	add	r7, sp, #0
 800743a:	4603      	mov	r3, r0
 800743c:	6039      	str	r1, [r7, #0]
 800743e:	71fb      	strb	r3, [r7, #7]
 8007440:	4613      	mov	r3, r2
 8007442:	71bb      	strb	r3, [r7, #6]
 8007444:	79fb      	ldrb	r3, [r7, #7]
 8007446:	f043 0320 	orr.w	r3, r3, #32
 800744a:	b2db      	uxtb	r3, r3
 800744c:	73fb      	strb	r3, [r7, #15]
 800744e:	f7ff ffcd 	bl	80073ec <csn_low>
 8007452:	f107 010f 	add.w	r1, r7, #15
 8007456:	f44f 737a 	mov.w	r3, #1000	@ 0x3e8
 800745a:	2201      	movs	r2, #1
 800745c:	4808      	ldr	r0, [pc, #32]	@ (8007480 <nrf24_w_reg+0x4c>)
 800745e:	f7fe fae5 	bl	8005a2c <HAL_SPI_Transmit>
 8007462:	79bb      	ldrb	r3, [r7, #6]
 8007464:	b29a      	uxth	r2, r3
 8007466:	f44f 737a 	mov.w	r3, #1000	@ 0x3e8
 800746a:	6839      	ldr	r1, [r7, #0]
 800746c:	4804      	ldr	r0, [pc, #16]	@ (8007480 <nrf24_w_reg+0x4c>)
 800746e:	f7fe fadd 	bl	8005a2c <HAL_SPI_Transmit>
 8007472:	f7ff ffaf 	bl	80073d4 <csn_high>
 8007476:	bf00      	nop
 8007478:	3710      	adds	r7, #16
 800747a:	46bd      	mov	sp, r7
 800747c:	bd80      	pop	{r7, pc}
 800747e:	bf00      	nop
 8007480:	200001d0 	.word	0x200001d0

08007484 <nrf24_r_reg>:
 8007484:	b580      	push	{r7, lr}
 8007486:	b086      	sub	sp, #24
 8007488:	af02      	add	r7, sp, #8
 800748a:	4603      	mov	r3, r0
 800748c:	460a      	mov	r2, r1
 800748e:	71fb      	strb	r3, [r7, #7]
 8007490:	4613      	mov	r3, r2
 8007492:	71bb      	strb	r3, [r7, #6]
 8007494:	79fb      	ldrb	r3, [r7, #7]
 8007496:	73fb      	strb	r3, [r7, #15]
 8007498:	2300      	movs	r3, #0
 800749a:	73bb      	strb	r3, [r7, #14]
 800749c:	23ff      	movs	r3, #255	@ 0xff
 800749e:	737b      	strb	r3, [r7, #13]
 80074a0:	f7ff ffa4 	bl	80073ec <csn_low>
 80074a4:	f107 010f 	add.w	r1, r7, #15
 80074a8:	f44f 737a 	mov.w	r3, #1000	@ 0x3e8
 80074ac:	2201      	movs	r2, #1
 80074ae:	480a      	ldr	r0, [pc, #40]	@ (80074d8 <nrf24_r_reg+0x54>)
 80074b0:	f7fe fabc 	bl	8005a2c <HAL_SPI_Transmit>
 80074b4:	f107 020e 	add.w	r2, r7, #14
 80074b8:	f107 010d 	add.w	r1, r7, #13
 80074bc:	f44f 737a 	mov.w	r3, #1000	@ 0x3e8
 80074c0:	9300      	str	r3, [sp, #0]
 80074c2:	2301      	movs	r3, #1
 80074c4:	4804      	ldr	r0, [pc, #16]	@ (80074d8 <nrf24_r_reg+0x54>)
 80074c6:	f7fe fbf5 	bl	8005cb4 <HAL_SPI_TransmitReceive>
 80074ca:	f7ff ff83 	bl	80073d4 <csn_high>
 80074ce:	7bbb      	ldrb	r3, [r7, #14]
 80074d0:	4618      	mov	r0, r3
 80074d2:	3710      	adds	r7, #16
 80074d4:	46bd      	mov	sp, r7
 80074d6:	bd80      	pop	{r7, pc}
 80074d8:	200001d0 	.word	0x200001d0

080074dc <nrf24_w_spec_cmd>:
 80074dc:	b580      	push	{r7, lr}
 80074de:	b082      	sub	sp, #8
 80074e0:	af00      	add	r7, sp, #0
 80074e2:	4603      	mov	r3, r0
 80074e4:	71fb      	strb	r3, [r7, #7]
 80074e6:	1df9      	adds	r1, r7, #7
 80074e8:	f44f 737a 	mov.w	r3, #1000	@ 0x3e8
 80074ec:	2201      	movs	r2, #1
 80074ee:	4803      	ldr	r0, [pc, #12]	@ (80074fc <nrf24_w_spec_cmd+0x20>)
 80074f0:	f7fe fa9c 	bl	8005a2c <HAL_SPI_Transmit>
 80074f4:	bf00      	nop
 80074f6:	3708      	adds	r7, #8
 80074f8:	46bd      	mov	sp, r7
 80074fa:	bd80      	pop	{r7, pc}
 80074fc:	200001d0 	.word	0x200001d0

08007500 <nrf24_pwr_up>:
 8007500:	b580      	push	{r7, lr}
 8007502:	b082      	sub	sp, #8
 8007504:	af00      	add	r7, sp, #0
 8007506:	2300      	movs	r3, #0
 8007508:	71fb      	strb	r3, [r7, #7]
 800750a:	2101      	movs	r1, #1
 800750c:	2000      	movs	r0, #0
 800750e:	f7ff ffb9 	bl	8007484 <nrf24_r_reg>
 8007512:	4603      	mov	r3, r0
 8007514:	71fb      	strb	r3, [r7, #7]
 8007516:	79fb      	ldrb	r3, [r7, #7]
 8007518:	f043 0302 	orr.w	r3, r3, #2
 800751c:	b2db      	uxtb	r3, r3
 800751e:	71fb      	strb	r3, [r7, #7]
 8007520:	1dfb      	adds	r3, r7, #7
 8007522:	2201      	movs	r2, #1
 8007524:	4619      	mov	r1, r3
 8007526:	2000      	movs	r0, #0
 8007528:	f7ff ff84 	bl	8007434 <nrf24_w_reg>
 800752c:	bf00      	nop
 800752e:	3708      	adds	r7, #8
 8007530:	46bd      	mov	sp, r7
 8007532:	bd80      	pop	{r7, pc}

08007534 <nrf24_tx_pwr>:
 8007534:	b580      	push	{r7, lr}
 8007536:	b084      	sub	sp, #16
 8007538:	af00      	add	r7, sp, #0
 800753a:	4603      	mov	r3, r0
 800753c:	71fb      	strb	r3, [r7, #7]
 800753e:	2300      	movs	r3, #0
 8007540:	73fb      	strb	r3, [r7, #15]
 8007542:	2101      	movs	r1, #1
 8007544:	2006      	movs	r0, #6
 8007546:	f7ff ff9d 	bl	8007484 <nrf24_r_reg>
 800754a:	4603      	mov	r3, r0
 800754c:	73fb      	strb	r3, [r7, #15]
 800754e:	7bfb      	ldrb	r3, [r7, #15]
 8007550:	f023 0347 	bic.w	r3, r3, #71	@ 0x47
 8007554:	b2db      	uxtb	r3, r3
 8007556:	73fb      	strb	r3, [r7, #15]
 8007558:	f997 3007 	ldrsb.w	r3, [r7, #7]
 800755c:	005b      	lsls	r3, r3, #1
 800755e:	b25a      	sxtb	r2, r3
 8007560:	7bfb      	ldrb	r3, [r7, #15]
 8007562:	b25b      	sxtb	r3, r3
 8007564:	4313      	orrs	r3, r2
 8007566:	b25b      	sxtb	r3, r3
 8007568:	b2db      	uxtb	r3, r3
 800756a:	73fb      	strb	r3, [r7, #15]
 800756c:	f107 030f 	add.w	r3, r7, #15
 8007570:	2201      	movs	r2, #1
 8007572:	4619      	mov	r1, r3
 8007574:	2006      	movs	r0, #6
 8007576:	f7ff ff5d 	bl	8007434 <nrf24_w_reg>
 800757a:	bf00      	nop
 800757c:	3710      	adds	r7, #16
 800757e:	46bd      	mov	sp, r7
 8007580:	bd80      	pop	{r7, pc}

08007582 <nrf24_data_rate>:
 8007582:	b580      	push	{r7, lr}
 8007584:	b084      	sub	sp, #16
 8007586:	af00      	add	r7, sp, #0
 8007588:	4603      	mov	r3, r0
 800758a:	71fb      	strb	r3, [r7, #7]
 800758c:	2300      	movs	r3, #0
 800758e:	73fb      	strb	r3, [r7, #15]
 8007590:	2101      	movs	r1, #1
 8007592:	2006      	movs	r0, #6
 8007594:	f7ff ff76 	bl	8007484 <nrf24_r_reg>
 8007598:	4603      	mov	r3, r0
 800759a:	73fb      	strb	r3, [r7, #15]
 800759c:	7bfb      	ldrb	r3, [r7, #15]
 800759e:	f023 0328 	bic.w	r3, r3, #40	@ 0x28
 80075a2:	b2db      	uxtb	r3, r3
 80075a4:	73fb      	strb	r3, [r7, #15]
 80075a6:	79fb      	ldrb	r3, [r7, #7]
 80075a8:	2b01      	cmp	r3, #1
 80075aa:	d105      	bne.n	80075b8 <nrf24_data_rate+0x36>
 80075ac:	7bfb      	ldrb	r3, [r7, #15]
 80075ae:	f043 0308 	orr.w	r3, r3, #8
 80075b2:	b2db      	uxtb	r3, r3
 80075b4:	73fb      	strb	r3, [r7, #15]
 80075b6:	e007      	b.n	80075c8 <nrf24_data_rate+0x46>
 80075b8:	79fb      	ldrb	r3, [r7, #7]
 80075ba:	2b02      	cmp	r3, #2
 80075bc:	d104      	bne.n	80075c8 <nrf24_data_rate+0x46>
 80075be:	7bfb      	ldrb	r3, [r7, #15]
 80075c0:	f043 0320 	orr.w	r3, r3, #32
 80075c4:	b2db      	uxtb	r3, r3
 80075c6:	73fb      	strb	r3, [r7, #15]
 80075c8:	f107 030f 	add.w	r3, r7, #15
 80075cc:	2201      	movs	r2, #1
 80075ce:	4619      	mov	r1, r3
 80075d0:	2006      	movs	r0, #6
 80075d2:	f7ff ff2f 	bl	8007434 <nrf24_w_reg>
 80075d6:	bf00      	nop
 80075d8:	3710      	adds	r7, #16
 80075da:	46bd      	mov	sp, r7
 80075dc:	bd80      	pop	{r7, pc}

080075de <nrf24_set_channel>:
 80075de:	b580      	push	{r7, lr}
 80075e0:	b082      	sub	sp, #8
 80075e2:	af00      	add	r7, sp, #0
 80075e4:	4603      	mov	r3, r0
 80075e6:	71fb      	strb	r3, [r7, #7]
 80075e8:	1dfb      	adds	r3, r7, #7
 80075ea:	2201      	movs	r2, #1
 80075ec:	4619      	mov	r1, r3
 80075ee:	2005      	movs	r0, #5
 80075f0:	f7ff ff20 	bl	8007434 <nrf24_w_reg>
 80075f4:	bf00      	nop
 80075f6:	3708      	adds	r7, #8
 80075f8:	46bd      	mov	sp, r7
 80075fa:	bd80      	pop	{r7, pc}

080075fc <nrf24_open_tx_pipe>:
 80075fc:	b580      	push	{r7, lr}
 80075fe:	b082      	sub	sp, #8
 8007600:	af00      	add	r7, sp, #0
 8007602:	6078      	str	r0, [r7, #4]
 8007604:	2205      	movs	r2, #5
 8007606:	6879      	ldr	r1, [r7, #4]
 8007608:	2010      	movs	r0, #16
 800760a:	f7ff ff13 	bl	8007434 <nrf24_w_reg>
 800760e:	bf00      	nop
 8007610:	3708      	adds	r7, #8
 8007612:	46bd      	mov	sp, r7
 8007614:	bd80      	pop	{r7, pc}
	...

08007618 <nrf24_pipe_pld_size>:
 8007618:	b580      	push	{r7, lr}
 800761a:	b082      	sub	sp, #8
 800761c:	af00      	add	r7, sp, #0
 800761e:	4603      	mov	r3, r0
 8007620:	460a      	mov	r2, r1
 8007622:	71fb      	strb	r3, [r7, #7]
 8007624:	4613      	mov	r3, r2
 8007626:	71bb      	strb	r3, [r7, #6]
 8007628:	79bb      	ldrb	r3, [r7, #6]
 800762a:	2b20      	cmp	r3, #32
 800762c:	d901      	bls.n	8007632 <nrf24_pipe_pld_size+0x1a>
 800762e:	2320      	movs	r3, #32
 8007630:	71bb      	strb	r3, [r7, #6]
 8007632:	79fb      	ldrb	r3, [r7, #7]
 8007634:	2b05      	cmp	r3, #5
 8007636:	d839      	bhi.n	80076ac <nrf24_pipe_pld_size+0x94>
 8007638:	a201      	add	r2, pc, #4	@ (adr r2, 8007640 <nrf24_pipe_pld_size+0x28>)
 800763a:	f852 f023 	ldr.w	pc, [r2, r3, lsl #2]
 800763e:	bf00      	nop
 8007640:	08007659 	.word	0x08007659
 8007644:	08007667 	.word	0x08007667
 8007648:	08007675 	.word	0x08007675
 800764c:	08007683 	.word	0x08007683
 8007650:	08007691 	.word	0x08007691
 8007654:	0800769f 	.word	0x0800769f
 8007658:	1dbb      	adds	r3, r7, #6
 800765a:	2201      	movs	r2, #1
 800765c:	4619      	mov	r1, r3
 800765e:	2011      	movs	r0, #17
 8007660:	f7ff fee8 	bl	8007434 <nrf24_w_reg>
 8007664:	e022      	b.n	80076ac <nrf24_pipe_pld_size+0x94>
 8007666:	1dbb      	adds	r3, r7, #6
 8007668:	2201      	movs	r2, #1
 800766a:	4619      	mov	r1, r3
 800766c:	2012      	movs	r0, #18
 800766e:	f7ff fee1 	bl	8007434 <nrf24_w_reg>
 8007672:	e01b      	b.n	80076ac <nrf24_pipe_pld_size+0x94>
 8007674:	1dbb      	adds	r3, r7, #6
 8007676:	2201      	movs	r2, #1
 8007678:	4619      	mov	r1, r3
 800767a:	2013      	movs	r0, #19
 800767c:	f7ff feda 	bl	8007434 <nrf24_w_reg>
 8007680:	e014      	b.n	80076ac <nrf24_pipe_pld_size+0x94>
 8007682:	1dbb      	adds	r3, r7, #6
 8007684:	2201      	movs	r2, #1
 8007686:	4619      	mov	r1, r3
 8007688:	2014      	movs	r0, #20
 800768a:	f7ff fed3 	bl	8007434 <nrf24_w_reg>
 800768e:	e00d      	b.n	80076ac <nrf24_pipe_pld_size+0x94>
 8007690:	1dbb      	adds	r3, r7, #6
 8007692:	2201      	movs	r2, #1
 8007694:	4619      	mov	r1, r3
 8007696:	2015      	movs	r0, #21
 8007698:	f7ff fecc 	bl	8007434 <nrf24_w_reg>
 800769c:	e006      	b.n	80076ac <nrf24_pipe_pld_size+0x94>
 800769e:	1dbb      	adds	r3, r7, #6
 80076a0:	2201      	movs	r2, #1
 80076a2:	4619      	mov	r1, r3
 80076a4:	2016      	movs	r0, #22
 80076a6:	f7ff fec5 	bl	8007434 <nrf24_w_reg>
 80076aa:	bf00      	nop
 80076ac:	bf00      	nop
 80076ae:	3708      	adds	r7, #8
 80076b0:	46bd      	mov	sp, r7
 80076b2:	bd80      	pop	{r7, pc}

080076b4 <nrf24_open_rx_pipe>:
 80076b4:	b580      	push	{r7, lr}
 80076b6:	b084      	sub	sp, #16
 80076b8:	af00      	add	r7, sp, #0
 80076ba:	4603      	mov	r3, r0
 80076bc:	6039      	str	r1, [r7, #0]
 80076be:	71fb      	strb	r3, [r7, #7]
 80076c0:	2300      	movs	r3, #0
 80076c2:	73fb      	strb	r3, [r7, #15]
 80076c4:	2101      	movs	r1, #1
 80076c6:	2002      	movs	r0, #2
 80076c8:	f7ff fedc 	bl	8007484 <nrf24_r_reg>
 80076cc:	4603      	mov	r3, r0
 80076ce:	73fb      	strb	r3, [r7, #15]
 80076d0:	79fb      	ldrb	r3, [r7, #7]
 80076d2:	2b05      	cmp	r3, #5
 80076d4:	d850      	bhi.n	8007778 <nrf24_open_rx_pipe+0xc4>
 80076d6:	a201      	add	r2, pc, #4	@ (adr r2, 80076dc <nrf24_open_rx_pipe+0x28>)
 80076d8:	f852 f023 	ldr.w	pc, [r2, r3, lsl #2]
 80076dc:	080076f5 	.word	0x080076f5
 80076e0:	0800770b 	.word	0x0800770b
 80076e4:	08007721 	.word	0x08007721
 80076e8:	08007737 	.word	0x08007737
 80076ec:	0800774d 	.word	0x0800774d
 80076f0:	08007763 	.word	0x08007763
 80076f4:	2205      	movs	r2, #5
 80076f6:	6839      	ldr	r1, [r7, #0]
 80076f8:	200a      	movs	r0, #10
 80076fa:	f7ff fe9b 	bl	8007434 <nrf24_w_reg>
 80076fe:	7bfb      	ldrb	r3, [r7, #15]
 8007700:	f043 0301 	orr.w	r3, r3, #1
 8007704:	b2db      	uxtb	r3, r3
 8007706:	73fb      	strb	r3, [r7, #15]
 8007708:	e036      	b.n	8007778 <nrf24_open_rx_pipe+0xc4>
 800770a:	2205      	movs	r2, #5
 800770c:	6839      	ldr	r1, [r7, #0]
 800770e:	200b      	movs	r0, #11
 8007710:	f7ff fe90 	bl	8007434 <nrf24_w_reg>
 8007714:	7bfb      	ldrb	r3, [r7, #15]
 8007716:	f043 0302 	orr.w	r3, r3, #2
 800771a:	b2db      	uxtb	r3, r3
 800771c:	73fb      	strb	r3, [r7, #15]
 800771e:	e02b      	b.n	8007778 <nrf24_open_rx_pipe+0xc4>
 8007720:	2201      	movs	r2, #1
 8007722:	6839      	ldr	r1, [r7, #0]
 8007724:	200c      	movs	r0, #12
 8007726:	f7ff fe85 	bl	8007434 <nrf24_w_reg>
 800772a:	7bfb      	ldrb	r3, [r7, #15]
 800772c:	f043 0304 	orr.w	r3, r3, #4
 8007730:	b2db      	uxtb	r3, r3
 8007732:	73fb      	strb	r3, [r7, #15]
 8007734:	e020      	b.n	8007778 <nrf24_open_rx_pipe+0xc4>
 8007736:	2201      	movs	r2, #1
 8007738:	6839      	ldr	r1, [r7, #0]
 800773a:	200d      	movs	r0, #13
 800773c:	f7ff fe7a 	bl	8007434 <nrf24_w_reg>
 8007740:	7bfb      	ldrb	r3, [r7, #15]
 8007742:	f043 0308 	orr.w	r3, r3, #8
 8007746:	b2db      	uxtb	r3, r3
 8007748:	73fb      	strb	r3, [r7, #15]
 800774a:	e015      	b.n	8007778 <nrf24_open_rx_pipe+0xc4>
 800774c:	2201      	movs	r2, #1
 800774e:	6839      	ldr	r1, [r7, #0]
 8007750:	200e      	movs	r0, #14
 8007752:	f7ff fe6f 	bl	8007434 <nrf24_w_reg>
 8007756:	7bfb      	ldrb	r3, [r7, #15]
 8007758:	f043 0310 	orr.w	r3, r3, #16
 800775c:	b2db      	uxtb	r3, r3
 800775e:	73fb      	strb	r3, [r7, #15]
 8007760:	e00a      	b.n	8007778 <nrf24_open_rx_pipe+0xc4>
 8007762:	2201      	movs	r2, #1
 8007764:	6839      	ldr	r1, [r7, #0]
 8007766:	200f      	movs	r0, #15
 8007768:	f7ff fe64 	bl	8007434 <nrf24_w_reg>
 800776c:	7bfb      	ldrb	r3, [r7, #15]
 800776e:	f043 0320 	orr.w	r3, r3, #32
 8007772:	b2db      	uxtb	r3, r3
 8007774:	73fb      	strb	r3, [r7, #15]
 8007776:	bf00      	nop
 8007778:	f107 030f 	add.w	r3, r7, #15
 800777c:	2201      	movs	r2, #1
 800777e:	4619      	mov	r1, r3
 8007780:	2002      	movs	r0, #2
 8007782:	f7ff fe57 	bl	8007434 <nrf24_w_reg>
 8007786:	bf00      	nop
 8007788:	3710      	adds	r7, #16
 800778a:	46bd      	mov	sp, r7
 800778c:	bd80      	pop	{r7, pc}
 800778e:	bf00      	nop

08007790 <nrf24_set_crc>:
 8007790:	b580      	push	{r7, lr}
 8007792:	b084      	sub	sp, #16
 8007794:	af00      	add	r7, sp, #0
 8007796:	4603      	mov	r3, r0
 8007798:	460a      	mov	r2, r1
 800779a:	71fb      	strb	r3, [r7, #7]
 800779c:	4613      	mov	r3, r2
 800779e:	71bb      	strb	r3, [r7, #6]
 80077a0:	2101      	movs	r1, #1
 80077a2:	2000      	movs	r0, #0
 80077a4:	f7ff fe6e 	bl	8007484 <nrf24_r_reg>
 80077a8:	4603      	mov	r3, r0
 80077aa:	73fb      	strb	r3, [r7, #15]
 80077ac:	7bfb      	ldrb	r3, [r7, #15]
 80077ae:	f023 030c 	bic.w	r3, r3, #12
 80077b2:	b2db      	uxtb	r3, r3
 80077b4:	73fb      	strb	r3, [r7, #15]
 80077b6:	f997 3007 	ldrsb.w	r3, [r7, #7]
 80077ba:	00db      	lsls	r3, r3, #3
 80077bc:	b25a      	sxtb	r2, r3
 80077be:	f997 3006 	ldrsb.w	r3, [r7, #6]
 80077c2:	009b      	lsls	r3, r3, #2
 80077c4:	b25b      	sxtb	r3, r3
 80077c6:	4313      	orrs	r3, r2
 80077c8:	b25a      	sxtb	r2, r3
 80077ca:	7bfb      	ldrb	r3, [r7, #15]
 80077cc:	b25b      	sxtb	r3, r3
 80077ce:	4313      	orrs	r3, r2
 80077d0:	b25b      	sxtb	r3, r3
 80077d2:	b2db      	uxtb	r3, r3
 80077d4:	73fb      	strb	r3, [r7, #15]
 80077d6:	f107 030f 	add.w	r3, r7, #15
 80077da:	2201      	movs	r2, #1
 80077dc:	4619      	mov	r1, r3
 80077de:	2000      	movs	r0, #0
 80077e0:	f7ff fe28 	bl	8007434 <nrf24_w_reg>
 80077e4:	bf00      	nop
 80077e6:	3710      	adds	r7, #16
 80077e8:	46bd      	mov	sp, r7
 80077ea:	bd80      	pop	{r7, pc}

080077ec <nrf24_set_addr_width>:
 80077ec:	b580      	push	{r7, lr}
 80077ee:	b082      	sub	sp, #8
 80077f0:	af00      	add	r7, sp, #0
 80077f2:	4603      	mov	r3, r0
 80077f4:	71fb      	strb	r3, [r7, #7]
 80077f6:	79fb      	ldrb	r3, [r7, #7]
 80077f8:	3b02      	subs	r3, #2
 80077fa:	b2db      	uxtb	r3, r3
 80077fc:	71fb      	strb	r3, [r7, #7]
 80077fe:	1dfb      	adds	r3, r7, #7
 8007800:	2201      	movs	r2, #1
 8007802:	4619      	mov	r1, r3
 8007804:	2003      	movs	r0, #3
 8007806:	f7ff fe15 	bl	8007434 <nrf24_w_reg>
 800780a:	bf00      	nop
 800780c:	3708      	adds	r7, #8
 800780e:	46bd      	mov	sp, r7
 8007810:	bd80      	pop	{r7, pc}

08007812 <nrf24_flush_tx>:
 8007812:	b580      	push	{r7, lr}
 8007814:	af00      	add	r7, sp, #0
 8007816:	f7ff fde9 	bl	80073ec <csn_low>
 800781a:	20e1      	movs	r0, #225	@ 0xe1
 800781c:	f7ff fe5e 	bl	80074dc <nrf24_w_spec_cmd>
 8007820:	f7ff fdd8 	bl	80073d4 <csn_high>
 8007824:	bf00      	nop
 8007826:	bd80      	pop	{r7, pc}

08007828 <nrf24_flush_rx>:
 8007828:	b580      	push	{r7, lr}
 800782a:	af00      	add	r7, sp, #0
 800782c:	f7ff fdde 	bl	80073ec <csn_low>
 8007830:	20e2      	movs	r0, #226	@ 0xe2
 8007832:	f7ff fe53 	bl	80074dc <nrf24_w_spec_cmd>
 8007836:	f7ff fdcd 	bl	80073d4 <csn_high>
 800783a:	bf00      	nop
 800783c:	bd80      	pop	{r7, pc}
	...

08007840 <nrf24_r_status>:
 8007840:	b580      	push	{r7, lr}
 8007842:	b084      	sub	sp, #16
 8007844:	af02      	add	r7, sp, #8
 8007846:	2300      	movs	r3, #0
 8007848:	71fb      	strb	r3, [r7, #7]
 800784a:	23ff      	movs	r3, #255	@ 0xff
 800784c:	71bb      	strb	r3, [r7, #6]
 800784e:	f7ff fdcd 	bl	80073ec <csn_low>
 8007852:	1dfa      	adds	r2, r7, #7
 8007854:	1db9      	adds	r1, r7, #6
 8007856:	f44f 737a 	mov.w	r3, #1000	@ 0x3e8
 800785a:	9300      	str	r3, [sp, #0]
 800785c:	2301      	movs	r3, #1
 800785e:	4805      	ldr	r0, [pc, #20]	@ (8007874 <nrf24_r_status+0x34>)
 8007860:	f7fe fa28 	bl	8005cb4 <HAL_SPI_TransmitReceive>
 8007864:	f7ff fdb6 	bl	80073d4 <csn_high>
 8007868:	79fb      	ldrb	r3, [r7, #7]
 800786a:	4618      	mov	r0, r3
 800786c:	3708      	adds	r7, #8
 800786e:	46bd      	mov	sp, r7
 8007870:	bd80      	pop	{r7, pc}
 8007872:	bf00      	nop
 8007874:	200001d0 	.word	0x200001d0

08007878 <nrf24_clear_rx_dr>:
 8007878:	b580      	push	{r7, lr}
 800787a:	b082      	sub	sp, #8
 800787c:	af00      	add	r7, sp, #0
 800787e:	2300      	movs	r3, #0
 8007880:	71fb      	strb	r3, [r7, #7]
 8007882:	f7ff ffdd 	bl	8007840 <nrf24_r_status>
 8007886:	4603      	mov	r3, r0
 8007888:	71fb      	strb	r3, [r7, #7]
 800788a:	79fb      	ldrb	r3, [r7, #7]
 800788c:	f043 0340 	orr.w	r3, r3, #64	@ 0x40
 8007890:	b2db      	uxtb	r3, r3
 8007892:	71fb      	strb	r3, [r7, #7]
 8007894:	1dfb      	adds	r3, r7, #7
 8007896:	2201      	movs	r2, #1
 8007898:	4619      	mov	r1, r3
 800789a:	2007      	movs	r0, #7
 800789c:	f7ff fdca 	bl	8007434 <nrf24_w_reg>
 80078a0:	bf00      	nop
 80078a2:	3708      	adds	r7, #8
 80078a4:	46bd      	mov	sp, r7
 80078a6:	bd80      	pop	{r7, pc}

080078a8 <nrf24_clear_tx_ds>:
 80078a8:	b580      	push	{r7, lr}
 80078aa:	b082      	sub	sp, #8
 80078ac:	af00      	add	r7, sp, #0
 80078ae:	2300      	movs	r3, #0
 80078b0:	71fb      	strb	r3, [r7, #7]
 80078b2:	f7ff ffc5 	bl	8007840 <nrf24_r_status>
 80078b6:	4603      	mov	r3, r0
 80078b8:	71fb      	strb	r3, [r7, #7]
 80078ba:	79fb      	ldrb	r3, [r7, #7]
 80078bc:	f043 0320 	orr.w	r3, r3, #32
 80078c0:	b2db      	uxtb	r3, r3
 80078c2:	71fb      	strb	r3, [r7, #7]
 80078c4:	1dfb      	adds	r3, r7, #7
 80078c6:	2201      	movs	r2, #1
 80078c8:	4619      	mov	r1, r3
 80078ca:	2007      	movs	r0, #7
 80078cc:	f7ff fdb2 	bl	8007434 <nrf24_w_reg>
 80078d0:	bf00      	nop
 80078d2:	3708      	adds	r7, #8
 80078d4:	46bd      	mov	sp, r7
 80078d6:	bd80      	pop	{r7, pc}

080078d8 <nrf24_clear_max_rt>:
 80078d8:	b580      	push	{r7, lr}
 80078da:	b082      	sub	sp, #8
 80078dc:	af00      	add	r7, sp, #0
 80078de:	2300      	movs	r3, #0
 80078e0:	71fb      	strb	r3, [r7, #7]
 80078e2:	f7ff ffad 	bl	8007840 <nrf24_r_status>
 80078e6:	4603      	mov	r3, r0
 80078e8:	71fb      	strb	r3, [r7, #7]
 80078ea:	79fb      	ldrb	r3, [r7, #7]
 80078ec:	f043 0310 	orr.w	r3, r3, #16
 80078f0:	b2db      	uxtb	r3, r3
 80078f2:	71fb      	strb	r3, [r7, #7]
 80078f4:	1dfb      	adds	r3, r7, #7
 80078f6:	2201      	movs	r2, #1
 80078f8:	4619      	mov	r1, r3
 80078fa:	2007      	movs	r0, #7
 80078fc:	f7ff fd9a 	bl	8007434 <nrf24_w_reg>
 8007900:	bf00      	nop
 8007902:	3708      	adds	r7, #8
 8007904:	46bd      	mov	sp, r7
 8007906:	bd80      	pop	{r7, pc}

08007908 <nrf24_listen>:
 8007908:	b580      	push	{r7, lr}
 800790a:	b082      	sub	sp, #8
 800790c:	af00      	add	r7, sp, #0
 800790e:	2300      	movs	r3, #0
 8007910:	71fb      	strb	r3, [r7, #7]
 8007912:	2101      	movs	r1, #1
 8007914:	2000      	movs	r0, #0
 8007916:	f7ff fdb5 	bl	8007484 <nrf24_r_reg>
 800791a:	4603      	mov	r3, r0
 800791c:	71fb      	strb	r3, [r7, #7]
 800791e:	79fb      	ldrb	r3, [r7, #7]
 8007920:	f043 0301 	orr.w	r3, r3, #1
 8007924:	b2db      	uxtb	r3, r3
 8007926:	71fb      	strb	r3, [r7, #7]
 8007928:	1dfb      	adds	r3, r7, #7
 800792a:	2201      	movs	r2, #1
 800792c:	4619      	mov	r1, r3
 800792e:	2000      	movs	r0, #0
 8007930:	f7ff fd80 	bl	8007434 <nrf24_w_reg>
 8007934:	f7ff fd66 	bl	8007404 <ce_high>
 8007938:	bf00      	nop
 800793a:	3708      	adds	r7, #8
 800793c:	46bd      	mov	sp, r7
 800793e:	bd80      	pop	{r7, pc}

08007940 <nrf24_dpl>:
 8007940:	b580      	push	{r7, lr}
 8007942:	b084      	sub	sp, #16
 8007944:	af00      	add	r7, sp, #0
 8007946:	4603      	mov	r3, r0
 8007948:	71fb      	strb	r3, [r7, #7]
 800794a:	2101      	movs	r1, #1
 800794c:	201d      	movs	r0, #29
 800794e:	f7ff fd99 	bl	8007484 <nrf24_r_reg>
 8007952:	4603      	mov	r3, r0
 8007954:	73fb      	strb	r3, [r7, #15]
 8007956:	79fb      	ldrb	r3, [r7, #7]
 8007958:	2b01      	cmp	r3, #1
 800795a:	d105      	bne.n	8007968 <nrf24_dpl+0x28>
 800795c:	7bfb      	ldrb	r3, [r7, #15]
 800795e:	f043 0304 	orr.w	r3, r3, #4
 8007962:	b2db      	uxtb	r3, r3
 8007964:	73fb      	strb	r3, [r7, #15]
 8007966:	e004      	b.n	8007972 <nrf24_dpl+0x32>
 8007968:	7bfb      	ldrb	r3, [r7, #15]
 800796a:	f023 0304 	bic.w	r3, r3, #4
 800796e:	b2db      	uxtb	r3, r3
 8007970:	73fb      	strb	r3, [r7, #15]
 8007972:	f107 030f 	add.w	r3, r7, #15
 8007976:	2201      	movs	r2, #1
 8007978:	4619      	mov	r1, r3
 800797a:	201d      	movs	r0, #29
 800797c:	f7ff fd5a 	bl	8007434 <nrf24_w_reg>
 8007980:	bf00      	nop
 8007982:	3710      	adds	r7, #16
 8007984:	46bd      	mov	sp, r7
 8007986:	bd80      	pop	{r7, pc}

08007988 <nrf24_set_rx_dpl>:
 8007988:	b580      	push	{r7, lr}
 800798a:	b084      	sub	sp, #16
 800798c:	af00      	add	r7, sp, #0
 800798e:	4603      	mov	r3, r0
 8007990:	460a      	mov	r2, r1
 8007992:	71fb      	strb	r3, [r7, #7]
 8007994:	4613      	mov	r3, r2
 8007996:	71bb      	strb	r3, [r7, #6]
 8007998:	2101      	movs	r1, #1
 800799a:	201c      	movs	r0, #28
 800799c:	f7ff fd72 	bl	8007484 <nrf24_r_reg>
 80079a0:	4603      	mov	r3, r0
 80079a2:	73fb      	strb	r3, [r7, #15]
 80079a4:	79fb      	ldrb	r3, [r7, #7]
 80079a6:	2b05      	cmp	r3, #5
 80079a8:	d901      	bls.n	80079ae <nrf24_set_rx_dpl+0x26>
 80079aa:	2305      	movs	r3, #5
 80079ac:	71fb      	strb	r3, [r7, #7]
 80079ae:	79bb      	ldrb	r3, [r7, #6]
 80079b0:	2b00      	cmp	r3, #0
 80079b2:	d00b      	beq.n	80079cc <nrf24_set_rx_dpl+0x44>
 80079b4:	79fb      	ldrb	r3, [r7, #7]
 80079b6:	2201      	movs	r2, #1
 80079b8:	fa02 f303 	lsl.w	r3, r2, r3
 80079bc:	b25a      	sxtb	r2, r3
 80079be:	7bfb      	ldrb	r3, [r7, #15]
 80079c0:	b25b      	sxtb	r3, r3
 80079c2:	4313      	orrs	r3, r2
 80079c4:	b25b      	sxtb	r3, r3
 80079c6:	b2db      	uxtb	r3, r3
 80079c8:	73fb      	strb	r3, [r7, #15]
 80079ca:	e00c      	b.n	80079e6 <nrf24_set_rx_dpl+0x5e>
 80079cc:	79fb      	ldrb	r3, [r7, #7]
 80079ce:	2201      	movs	r2, #1
 80079d0:	fa02 f303 	lsl.w	r3, r2, r3
 80079d4:	b25b      	sxtb	r3, r3
 80079d6:	43db      	mvns	r3, r3
 80079d8:	b25a      	sxtb	r2, r3
 80079da:	7bfb      	ldrb	r3, [r7, #15]
 80079dc:	b25b      	sxtb	r3, r3
 80079de:	4013      	ands	r3, r2
 80079e0:	b25b      	sxtb	r3, r3
 80079e2:	b2db      	uxtb	r3, r3
 80079e4:	73fb      	strb	r3, [r7, #15]
 80079e6:	f107 030f 	add.w	r3, r7, #15
 80079ea:	2201      	movs	r2, #1
 80079ec:	4619      	mov	r1, r3
 80079ee:	201c      	movs	r0, #28
 80079f0:	f7ff fd20 	bl	8007434 <nrf24_w_reg>
 80079f4:	bf00      	nop
 80079f6:	3710      	adds	r7, #16
 80079f8:	46bd      	mov	sp, r7
 80079fa:	bd80      	pop	{r7, pc}

080079fc <nrf24_auto_ack_all>:
 80079fc:	b580      	push	{r7, lr}
 80079fe:	b084      	sub	sp, #16
 8007a00:	af00      	add	r7, sp, #0
 8007a02:	4603      	mov	r3, r0
 8007a04:	71fb      	strb	r3, [r7, #7]
 8007a06:	2101      	movs	r1, #1
 8007a08:	2001      	movs	r0, #1
 8007a0a:	f7ff fd3b 	bl	8007484 <nrf24_r_reg>
 8007a0e:	4603      	mov	r3, r0
 8007a10:	73fb      	strb	r3, [r7, #15]
 8007a12:	79fb      	ldrb	r3, [r7, #7]
 8007a14:	2b00      	cmp	r3, #0
 8007a16:	d002      	beq.n	8007a1e <nrf24_auto_ack_all+0x22>
 8007a18:	233f      	movs	r3, #63	@ 0x3f
 8007a1a:	73fb      	strb	r3, [r7, #15]
 8007a1c:	e001      	b.n	8007a22 <nrf24_auto_ack_all+0x26>
 8007a1e:	2300      	movs	r3, #0
 8007a20:	73fb      	strb	r3, [r7, #15]
 8007a22:	f107 030f 	add.w	r3, r7, #15
 8007a26:	2201      	movs	r2, #1
 8007a28:	4619      	mov	r1, r3
 8007a2a:	2001      	movs	r0, #1
 8007a2c:	f7ff fd02 	bl	8007434 <nrf24_w_reg>
 8007a30:	bf00      	nop
 8007a32:	3710      	adds	r7, #16
 8007a34:	46bd      	mov	sp, r7
 8007a36:	bd80      	pop	{r7, pc}

08007a38 <nrf24_en_ack_pld>:
 8007a38:	b580      	push	{r7, lr}
 8007a3a:	b084      	sub	sp, #16
 8007a3c:	af00      	add	r7, sp, #0
 8007a3e:	4603      	mov	r3, r0
 8007a40:	71fb      	strb	r3, [r7, #7]
 8007a42:	2101      	movs	r1, #1
 8007a44:	201d      	movs	r0, #29
 8007a46:	f7ff fd1d 	bl	8007484 <nrf24_r_reg>
 8007a4a:	4603      	mov	r3, r0
 8007a4c:	73fb      	strb	r3, [r7, #15]
 8007a4e:	79fb      	ldrb	r3, [r7, #7]
 8007a50:	2b00      	cmp	r3, #0
 8007a52:	d005      	beq.n	8007a60 <nrf24_en_ack_pld+0x28>
 8007a54:	7bfb      	ldrb	r3, [r7, #15]
 8007a56:	f043 0302 	orr.w	r3, r3, #2
 8007a5a:	b2db      	uxtb	r3, r3
 8007a5c:	73fb      	strb	r3, [r7, #15]
 8007a5e:	e004      	b.n	8007a6a <nrf24_en_ack_pld+0x32>
 8007a60:	7bfb      	ldrb	r3, [r7, #15]
 8007a62:	f023 0302 	bic.w	r3, r3, #2
 8007a66:	b2db      	uxtb	r3, r3
 8007a68:	73fb      	strb	r3, [r7, #15]
 8007a6a:	f107 030f 	add.w	r3, r7, #15
 8007a6e:	2201      	movs	r2, #1
 8007a70:	4619      	mov	r1, r3
 8007a72:	201d      	movs	r0, #29
 8007a74:	f7ff fcde 	bl	8007434 <nrf24_w_reg>
 8007a78:	bf00      	nop
 8007a7a:	3710      	adds	r7, #16
 8007a7c:	46bd      	mov	sp, r7
 8007a7e:	bd80      	pop	{r7, pc}

08007a80 <nrf24_en_dyn_ack>:
 8007a80:	b580      	push	{r7, lr}
 8007a82:	b084      	sub	sp, #16
 8007a84:	af00      	add	r7, sp, #0
 8007a86:	4603      	mov	r3, r0
 8007a88:	71fb      	strb	r3, [r7, #7]
 8007a8a:	2101      	movs	r1, #1
 8007a8c:	201d      	movs	r0, #29
 8007a8e:	f7ff fcf9 	bl	8007484 <nrf24_r_reg>
 8007a92:	4603      	mov	r3, r0
 8007a94:	73fb      	strb	r3, [r7, #15]
 8007a96:	79fb      	ldrb	r3, [r7, #7]
 8007a98:	2b00      	cmp	r3, #0
 8007a9a:	d005      	beq.n	8007aa8 <nrf24_en_dyn_ack+0x28>
 8007a9c:	7bfb      	ldrb	r3, [r7, #15]
 8007a9e:	f043 0301 	orr.w	r3, r3, #1
 8007aa2:	b2db      	uxtb	r3, r3
 8007aa4:	73fb      	strb	r3, [r7, #15]
 8007aa6:	e004      	b.n	8007ab2 <nrf24_en_dyn_ack+0x32>
 8007aa8:	7bfb      	ldrb	r3, [r7, #15]
 8007aaa:	f023 0301 	bic.w	r3, r3, #1
 8007aae:	b2db      	uxtb	r3, r3
 8007ab0:	73fb      	strb	r3, [r7, #15]
 8007ab2:	f107 030f 	add.w	r3, r7, #15
 8007ab6:	2201      	movs	r2, #1
 8007ab8:	4619      	mov	r1, r3
 8007aba:	201d      	movs	r0, #29
 8007abc:	f7ff fcba 	bl	8007434 <nrf24_w_reg>
 8007ac0:	bf00      	nop
 8007ac2:	3710      	adds	r7, #16
 8007ac4:	46bd      	mov	sp, r7
 8007ac6:	bd80      	pop	{r7, pc}

08007ac8 <nrf24_auto_retr_delay>:
 8007ac8:	b580      	push	{r7, lr}
 8007aca:	b084      	sub	sp, #16
 8007acc:	af00      	add	r7, sp, #0
 8007ace:	4603      	mov	r3, r0
 8007ad0:	71fb      	strb	r3, [r7, #7]
 8007ad2:	2101      	movs	r1, #1
 8007ad4:	2004      	movs	r0, #4
 8007ad6:	f7ff fcd5 	bl	8007484 <nrf24_r_reg>
 8007ada:	4603      	mov	r3, r0
 8007adc:	73fb      	strb	r3, [r7, #15]
 8007ade:	7bfb      	ldrb	r3, [r7, #15]
 8007ae0:	f003 030f 	and.w	r3, r3, #15
 8007ae4:	b2db      	uxtb	r3, r3
 8007ae6:	73fb      	strb	r3, [r7, #15]
 8007ae8:	f997 3007 	ldrsb.w	r3, [r7, #7]
 8007aec:	011b      	lsls	r3, r3, #4
 8007aee:	b25a      	sxtb	r2, r3
 8007af0:	7bfb      	ldrb	r3, [r7, #15]
 8007af2:	b25b      	sxtb	r3, r3
 8007af4:	4313      	orrs	r3, r2
 8007af6:	b25b      	sxtb	r3, r3
 8007af8:	b2db      	uxtb	r3, r3
 8007afa:	73fb      	strb	r3, [r7, #15]
 8007afc:	f107 030f 	add.w	r3, r7, #15
 8007b00:	2201      	movs	r2, #1
 8007b02:	4619      	mov	r1, r3
 8007b04:	2004      	movs	r0, #4
 8007b06:	f7ff fc95 	bl	8007434 <nrf24_w_reg>
 8007b0a:	bf00      	nop
 8007b0c:	3710      	adds	r7, #16
 8007b0e:	46bd      	mov	sp, r7
 8007b10:	bd80      	pop	{r7, pc}

08007b12 <nrf24_auto_retr_limit>:
 8007b12:	b580      	push	{r7, lr}
 8007b14:	b084      	sub	sp, #16
 8007b16:	af00      	add	r7, sp, #0
 8007b18:	4603      	mov	r3, r0
 8007b1a:	71fb      	strb	r3, [r7, #7]
 8007b1c:	2101      	movs	r1, #1
 8007b1e:	2004      	movs	r0, #4
 8007b20:	f7ff fcb0 	bl	8007484 <nrf24_r_reg>
 8007b24:	4603      	mov	r3, r0
 8007b26:	73fb      	strb	r3, [r7, #15]
 8007b28:	7bfb      	ldrb	r3, [r7, #15]
 8007b2a:	f023 030f 	bic.w	r3, r3, #15
 8007b2e:	b2db      	uxtb	r3, r3
 8007b30:	73fb      	strb	r3, [r7, #15]
 8007b32:	7bfa      	ldrb	r2, [r7, #15]
 8007b34:	79fb      	ldrb	r3, [r7, #7]
 8007b36:	4313      	orrs	r3, r2
 8007b38:	b2db      	uxtb	r3, r3
 8007b3a:	73fb      	strb	r3, [r7, #15]
 8007b3c:	f107 030f 	add.w	r3, r7, #15
 8007b40:	2201      	movs	r2, #1
 8007b42:	4619      	mov	r1, r3
 8007b44:	2004      	movs	r0, #4
 8007b46:	f7ff fc75 	bl	8007434 <nrf24_w_reg>
 8007b4a:	bf00      	nop
 8007b4c:	3710      	adds	r7, #16
 8007b4e:	46bd      	mov	sp, r7
 8007b50:	bd80      	pop	{r7, pc}
	...

08007b54 <nrf24_receive>:
 8007b54:	b580      	push	{r7, lr}
 8007b56:	b086      	sub	sp, #24
 8007b58:	af02      	add	r7, sp, #8
 8007b5a:	6078      	str	r0, [r7, #4]
 8007b5c:	460b      	mov	r3, r1
 8007b5e:	70fb      	strb	r3, [r7, #3]
 8007b60:	2361      	movs	r3, #97	@ 0x61
 8007b62:	73bb      	strb	r3, [r7, #14]
 8007b64:	f7ff fc42 	bl	80073ec <csn_low>
 8007b68:	f107 010e 	add.w	r1, r7, #14
 8007b6c:	f44f 737a 	mov.w	r3, #1000	@ 0x3e8
 8007b70:	2201      	movs	r2, #1
 8007b72:	4811      	ldr	r0, [pc, #68]	@ (8007bb8 <nrf24_receive+0x64>)
 8007b74:	f7fd ff5a 	bl	8005a2c <HAL_SPI_Transmit>
 8007b78:	2300      	movs	r3, #0
 8007b7a:	73fb      	strb	r3, [r7, #15]
 8007b7c:	e010      	b.n	8007ba0 <nrf24_receive+0x4c>
 8007b7e:	23ff      	movs	r3, #255	@ 0xff
 8007b80:	737b      	strb	r3, [r7, #13]
 8007b82:	7bfb      	ldrb	r3, [r7, #15]
 8007b84:	687a      	ldr	r2, [r7, #4]
 8007b86:	441a      	add	r2, r3
 8007b88:	f107 010d 	add.w	r1, r7, #13
 8007b8c:	f44f 737a 	mov.w	r3, #1000	@ 0x3e8
 8007b90:	9300      	str	r3, [sp, #0]
 8007b92:	2301      	movs	r3, #1
 8007b94:	4808      	ldr	r0, [pc, #32]	@ (8007bb8 <nrf24_receive+0x64>)
 8007b96:	f7fe f88d 	bl	8005cb4 <HAL_SPI_TransmitReceive>
 8007b9a:	7bfb      	ldrb	r3, [r7, #15]
 8007b9c:	3301      	adds	r3, #1
 8007b9e:	73fb      	strb	r3, [r7, #15]
 8007ba0:	7bfa      	ldrb	r2, [r7, #15]
 8007ba2:	78fb      	ldrb	r3, [r7, #3]
 8007ba4:	429a      	cmp	r2, r3
 8007ba6:	d3ea      	bcc.n	8007b7e <nrf24_receive+0x2a>
 8007ba8:	f7ff fc14 	bl	80073d4 <csn_high>
 8007bac:	f7ff fe64 	bl	8007878 <nrf24_clear_rx_dr>
 8007bb0:	bf00      	nop
 8007bb2:	3710      	adds	r7, #16
 8007bb4:	46bd      	mov	sp, r7
 8007bb6:	bd80      	pop	{r7, pc}
 8007bb8:	200001d0 	.word	0x200001d0

08007bbc <nrf24_init>:
 8007bbc:	b580      	push	{r7, lr}
 8007bbe:	af00      	add	r7, sp, #0
 8007bc0:	480a      	ldr	r0, [pc, #40]	@ (8007bec <nrf24_init+0x30>)
 8007bc2:	f7fe fb29 	bl	8006218 <HAL_TIM_Base_Start>
 8007bc6:	4603      	mov	r3, r0
 8007bc8:	2b00      	cmp	r3, #0
 8007bca:	d001      	beq.n	8007bd0 <nrf24_init+0x14>
 8007bcc:	f7fa fb1c 	bl	8002208 <Error_Handler>
 8007bd0:	f7ff fc96 	bl	8007500 <nrf24_pwr_up>
 8007bd4:	f7ff fe1d 	bl	8007812 <nrf24_flush_tx>
 8007bd8:	f7ff fe26 	bl	8007828 <nrf24_flush_rx>
 8007bdc:	f7ff fe4c 	bl	8007878 <nrf24_clear_rx_dr>
 8007be0:	f7ff fe62 	bl	80078a8 <nrf24_clear_tx_ds>
 8007be4:	f7ff fe78 	bl	80078d8 <nrf24_clear_max_rt>
 8007be8:	bf00      	nop
 8007bea:	bd80      	pop	{r7, pc}
 8007bec:	20000228 	.word	0x20000228

08007bf0 <siprintf>:
 8007bf0:	b40e      	push	{r1, r2, r3}
 8007bf2:	f06f 4100 	mvn.w	r1, #2147483648	@ 0x80000000
 8007bf6:	b510      	push	{r4, lr}
 8007bf8:	2400      	movs	r4, #0
 8007bfa:	b09d      	sub	sp, #116	@ 0x74
 8007bfc:	ab1f      	add	r3, sp, #124	@ 0x7c
 8007bfe:	9002      	str	r0, [sp, #8]
 8007c00:	9006      	str	r0, [sp, #24]
 8007c02:	9107      	str	r1, [sp, #28]
 8007c04:	9104      	str	r1, [sp, #16]
 8007c06:	4809      	ldr	r0, [pc, #36]	@ (8007c2c <siprintf+0x3c>)
 8007c08:	4909      	ldr	r1, [pc, #36]	@ (8007c30 <siprintf+0x40>)
 8007c0a:	f853 2b04 	ldr.w	r2, [r3], #4
 8007c0e:	9105      	str	r1, [sp, #20]
 8007c10:	6800      	ldr	r0, [r0, #0]
 8007c12:	a902      	add	r1, sp, #8
 8007c14:	9301      	str	r3, [sp, #4]
 8007c16:	941b      	str	r4, [sp, #108]	@ 0x6c
 8007c18:	f000 f9be 	bl	8007f98 <_svfiprintf_r>
 8007c1c:	9b02      	ldr	r3, [sp, #8]
 8007c1e:	701c      	strb	r4, [r3, #0]
 8007c20:	b01d      	add	sp, #116	@ 0x74
 8007c22:	e8bd 4010 	ldmia.w	sp!, {r4, lr}
 8007c26:	b003      	add	sp, #12
 8007c28:	4770      	bx	lr
 8007c2a:	bf00      	nop
 8007c2c:	20000014 	.word	0x20000014
 8007c30:	ffff0208 	.word	0xffff0208

08007c34 <memmove>:
 8007c34:	4288      	cmp	r0, r1
 8007c36:	b510      	push	{r4, lr}
 8007c38:	eb01 0402 	add.w	r4, r1, r2
 8007c3c:	d902      	bls.n	8007c44 <memmove+0x10>
 8007c3e:	4284      	cmp	r4, r0
 8007c40:	4623      	mov	r3, r4
 8007c42:	d807      	bhi.n	8007c54 <memmove+0x20>
 8007c44:	1e43      	subs	r3, r0, #1
 8007c46:	42a1      	cmp	r1, r4
 8007c48:	d007      	beq.n	8007c5a <memmove+0x26>
 8007c4a:	f811 2b01 	ldrb.w	r2, [r1], #1
 8007c4e:	f803 2f01 	strb.w	r2, [r3, #1]!
 8007c52:	e7f8      	b.n	8007c46 <memmove+0x12>
 8007c54:	4402      	add	r2, r0
 8007c56:	4282      	cmp	r2, r0
 8007c58:	d100      	bne.n	8007c5c <memmove+0x28>
 8007c5a:	bd10      	pop	{r4, pc}
 8007c5c:	f813 1d01 	ldrb.w	r1, [r3, #-1]!
 8007c60:	f802 1d01 	strb.w	r1, [r2, #-1]!
 8007c64:	e7f7      	b.n	8007c56 <memmove+0x22>

08007c66 <memset>:
 8007c66:	4603      	mov	r3, r0
 8007c68:	4402      	add	r2, r0
 8007c6a:	4293      	cmp	r3, r2
 8007c6c:	d100      	bne.n	8007c70 <memset+0xa>
 8007c6e:	4770      	bx	lr
 8007c70:	f803 1b01 	strb.w	r1, [r3], #1
 8007c74:	e7f9      	b.n	8007c6a <memset+0x4>
	...

08007c78 <__errno>:
 8007c78:	4b01      	ldr	r3, [pc, #4]	@ (8007c80 <__errno+0x8>)
 8007c7a:	6818      	ldr	r0, [r3, #0]
 8007c7c:	4770      	bx	lr
 8007c7e:	bf00      	nop
 8007c80:	20000014 	.word	0x20000014

08007c84 <__libc_init_array>:
 8007c84:	b570      	push	{r4, r5, r6, lr}
 8007c86:	2600      	movs	r6, #0
 8007c88:	4d0c      	ldr	r5, [pc, #48]	@ (8007cbc <__libc_init_array+0x38>)
 8007c8a:	4b0d      	ldr	r3, [pc, #52]	@ (8007cc0 <__libc_init_array+0x3c>)
 8007c8c:	1b5b      	subs	r3, r3, r5
 8007c8e:	109c      	asrs	r4, r3, #2
 8007c90:	42a6      	cmp	r6, r4
 8007c92:	d109      	bne.n	8007ca8 <__libc_init_array+0x24>
 8007c94:	2600      	movs	r6, #0
 8007c96:	f000 ff1d 	bl	8008ad4 <_init>
 8007c9a:	4d0a      	ldr	r5, [pc, #40]	@ (8007cc4 <__libc_init_array+0x40>)
 8007c9c:	4b0a      	ldr	r3, [pc, #40]	@ (8007cc8 <__libc_init_array+0x44>)
 8007c9e:	1b5b      	subs	r3, r3, r5
 8007ca0:	109c      	asrs	r4, r3, #2
 8007ca2:	42a6      	cmp	r6, r4
 8007ca4:	d105      	bne.n	8007cb2 <__libc_init_array+0x2e>
 8007ca6:	bd70      	pop	{r4, r5, r6, pc}
 8007ca8:	f855 3b04 	ldr.w	r3, [r5], #4
 8007cac:	4798      	blx	r3
 8007cae:	3601      	adds	r6, #1
 8007cb0:	e7ee      	b.n	8007c90 <__libc_init_array+0xc>
 8007cb2:	f855 3b04 	ldr.w	r3, [r5], #4
 8007cb6:	4798      	blx	r3
 8007cb8:	3601      	adds	r6, #1
 8007cba:	e7f2      	b.n	8007ca2 <__libc_init_array+0x1e>
 8007cbc:	08009294 	.word	0x08009294
 8007cc0:	08009294 	.word	0x08009294
 8007cc4:	08009294 	.word	0x08009294
 8007cc8:	08009298 	.word	0x08009298

08007ccc <__retarget_lock_acquire_recursive>:
 8007ccc:	4770      	bx	lr

08007cce <__retarget_lock_release_recursive>:
 8007cce:	4770      	bx	lr

08007cd0 <memcpy>:
 8007cd0:	440a      	add	r2, r1
 8007cd2:	4291      	cmp	r1, r2
 8007cd4:	f100 33ff 	add.w	r3, r0, #4294967295
 8007cd8:	d100      	bne.n	8007cdc <memcpy+0xc>
 8007cda:	4770      	bx	lr
 8007cdc:	b510      	push	{r4, lr}
 8007cde:	f811 4b01 	ldrb.w	r4, [r1], #1
 8007ce2:	4291      	cmp	r1, r2
 8007ce4:	f803 4f01 	strb.w	r4, [r3, #1]!
 8007ce8:	d1f9      	bne.n	8007cde <memcpy+0xe>
 8007cea:	bd10      	pop	{r4, pc}

08007cec <_free_r>:
 8007cec:	b538      	push	{r3, r4, r5, lr}
 8007cee:	4605      	mov	r5, r0
 8007cf0:	2900      	cmp	r1, #0
 8007cf2:	d040      	beq.n	8007d76 <_free_r+0x8a>
 8007cf4:	f851 3c04 	ldr.w	r3, [r1, #-4]
 8007cf8:	1f0c      	subs	r4, r1, #4
 8007cfa:	2b00      	cmp	r3, #0
 8007cfc:	bfb8      	it	lt
 8007cfe:	18e4      	addlt	r4, r4, r3
 8007d00:	f000 f8de 	bl	8007ec0 <__malloc_lock>
 8007d04:	4a1c      	ldr	r2, [pc, #112]	@ (8007d78 <_free_r+0x8c>)
 8007d06:	6813      	ldr	r3, [r2, #0]
 8007d08:	b933      	cbnz	r3, 8007d18 <_free_r+0x2c>
 8007d0a:	6063      	str	r3, [r4, #4]
 8007d0c:	6014      	str	r4, [r2, #0]
 8007d0e:	4628      	mov	r0, r5
 8007d10:	e8bd 4038 	ldmia.w	sp!, {r3, r4, r5, lr}
 8007d14:	f000 b8da 	b.w	8007ecc <__malloc_unlock>
 8007d18:	42a3      	cmp	r3, r4
 8007d1a:	d908      	bls.n	8007d2e <_free_r+0x42>
 8007d1c:	6820      	ldr	r0, [r4, #0]
 8007d1e:	1821      	adds	r1, r4, r0
 8007d20:	428b      	cmp	r3, r1
 8007d22:	bf01      	itttt	eq
 8007d24:	6819      	ldreq	r1, [r3, #0]
 8007d26:	685b      	ldreq	r3, [r3, #4]
 8007d28:	1809      	addeq	r1, r1, r0
 8007d2a:	6021      	streq	r1, [r4, #0]
 8007d2c:	e7ed      	b.n	8007d0a <_free_r+0x1e>
 8007d2e:	461a      	mov	r2, r3
 8007d30:	685b      	ldr	r3, [r3, #4]
 8007d32:	b10b      	cbz	r3, 8007d38 <_free_r+0x4c>
 8007d34:	42a3      	cmp	r3, r4
 8007d36:	d9fa      	bls.n	8007d2e <_free_r+0x42>
 8007d38:	6811      	ldr	r1, [r2, #0]
 8007d3a:	1850      	adds	r0, r2, r1
 8007d3c:	42a0      	cmp	r0, r4
 8007d3e:	d10b      	bne.n	8007d58 <_free_r+0x6c>
 8007d40:	6820      	ldr	r0, [r4, #0]
 8007d42:	4401      	add	r1, r0
 8007d44:	1850      	adds	r0, r2, r1
 8007d46:	4283      	cmp	r3, r0
 8007d48:	6011      	str	r1, [r2, #0]
 8007d4a:	d1e0      	bne.n	8007d0e <_free_r+0x22>
 8007d4c:	6818      	ldr	r0, [r3, #0]
 8007d4e:	685b      	ldr	r3, [r3, #4]
 8007d50:	4408      	add	r0, r1
 8007d52:	6010      	str	r0, [r2, #0]
 8007d54:	6053      	str	r3, [r2, #4]
 8007d56:	e7da      	b.n	8007d0e <_free_r+0x22>
 8007d58:	d902      	bls.n	8007d60 <_free_r+0x74>
 8007d5a:	230c      	movs	r3, #12
 8007d5c:	602b      	str	r3, [r5, #0]
 8007d5e:	e7d6      	b.n	8007d0e <_free_r+0x22>
 8007d60:	6820      	ldr	r0, [r4, #0]
 8007d62:	1821      	adds	r1, r4, r0
 8007d64:	428b      	cmp	r3, r1
 8007d66:	bf01      	itttt	eq
 8007d68:	6819      	ldreq	r1, [r3, #0]
 8007d6a:	685b      	ldreq	r3, [r3, #4]
 8007d6c:	1809      	addeq	r1, r1, r0
 8007d6e:	6021      	streq	r1, [r4, #0]
 8007d70:	6063      	str	r3, [r4, #4]
 8007d72:	6054      	str	r4, [r2, #4]
 8007d74:	e7cb      	b.n	8007d0e <_free_r+0x22>
 8007d76:	bd38      	pop	{r3, r4, r5, pc}
 8007d78:	2000085c 	.word	0x2000085c

08007d7c <sbrk_aligned>:
 8007d7c:	b570      	push	{r4, r5, r6, lr}
 8007d7e:	4e0f      	ldr	r6, [pc, #60]	@ (8007dbc <sbrk_aligned+0x40>)
 8007d80:	460c      	mov	r4, r1
 8007d82:	6831      	ldr	r1, [r6, #0]
 8007d84:	4605      	mov	r5, r0
 8007d86:	b911      	cbnz	r1, 8007d8e <sbrk_aligned+0x12>
 8007d88:	f000 fb96 	bl	80084b8 <_sbrk_r>
 8007d8c:	6030      	str	r0, [r6, #0]
 8007d8e:	4621      	mov	r1, r4
 8007d90:	4628      	mov	r0, r5
 8007d92:	f000 fb91 	bl	80084b8 <_sbrk_r>
 8007d96:	1c43      	adds	r3, r0, #1
 8007d98:	d103      	bne.n	8007da2 <sbrk_aligned+0x26>
 8007d9a:	f04f 34ff 	mov.w	r4, #4294967295
 8007d9e:	4620      	mov	r0, r4
 8007da0:	bd70      	pop	{r4, r5, r6, pc}
 8007da2:	1cc4      	adds	r4, r0, #3
 8007da4:	f024 0403 	bic.w	r4, r4, #3
 8007da8:	42a0      	cmp	r0, r4
 8007daa:	d0f8      	beq.n	8007d9e <sbrk_aligned+0x22>
 8007dac:	1a21      	subs	r1, r4, r0
 8007dae:	4628      	mov	r0, r5
 8007db0:	f000 fb82 	bl	80084b8 <_sbrk_r>
 8007db4:	3001      	adds	r0, #1
 8007db6:	d1f2      	bne.n	8007d9e <sbrk_aligned+0x22>
 8007db8:	e7ef      	b.n	8007d9a <sbrk_aligned+0x1e>
 8007dba:	bf00      	nop
 8007dbc:	20000858 	.word	0x20000858

08007dc0 <_malloc_r>:
 8007dc0:	e92d 43f8 	stmdb	sp!, {r3, r4, r5, r6, r7, r8, r9, lr}
 8007dc4:	1ccd      	adds	r5, r1, #3
 8007dc6:	f025 0503 	bic.w	r5, r5, #3
 8007dca:	3508      	adds	r5, #8
 8007dcc:	2d0c      	cmp	r5, #12
 8007dce:	bf38      	it	cc
 8007dd0:	250c      	movcc	r5, #12
 8007dd2:	2d00      	cmp	r5, #0
 8007dd4:	4606      	mov	r6, r0
 8007dd6:	db01      	blt.n	8007ddc <_malloc_r+0x1c>
 8007dd8:	42a9      	cmp	r1, r5
 8007dda:	d904      	bls.n	8007de6 <_malloc_r+0x26>
 8007ddc:	230c      	movs	r3, #12
 8007dde:	6033      	str	r3, [r6, #0]
 8007de0:	2000      	movs	r0, #0
 8007de2:	e8bd 83f8 	ldmia.w	sp!, {r3, r4, r5, r6, r7, r8, r9, pc}
 8007de6:	f8df 80d4 	ldr.w	r8, [pc, #212]	@ 8007ebc <_malloc_r+0xfc>
 8007dea:	f000 f869 	bl	8007ec0 <__malloc_lock>
 8007dee:	f8d8 3000 	ldr.w	r3, [r8]
 8007df2:	461c      	mov	r4, r3
 8007df4:	bb44      	cbnz	r4, 8007e48 <_malloc_r+0x88>
 8007df6:	4629      	mov	r1, r5
 8007df8:	4630      	mov	r0, r6
 8007dfa:	f7ff ffbf 	bl	8007d7c <sbrk_aligned>
 8007dfe:	1c43      	adds	r3, r0, #1
 8007e00:	4604      	mov	r4, r0
 8007e02:	d158      	bne.n	8007eb6 <_malloc_r+0xf6>
 8007e04:	f8d8 4000 	ldr.w	r4, [r8]
 8007e08:	4627      	mov	r7, r4
 8007e0a:	2f00      	cmp	r7, #0
 8007e0c:	d143      	bne.n	8007e96 <_malloc_r+0xd6>
 8007e0e:	2c00      	cmp	r4, #0
 8007e10:	d04b      	beq.n	8007eaa <_malloc_r+0xea>
 8007e12:	6823      	ldr	r3, [r4, #0]
 8007e14:	4639      	mov	r1, r7
 8007e16:	4630      	mov	r0, r6
 8007e18:	eb04 0903 	add.w	r9, r4, r3
 8007e1c:	f000 fb4c 	bl	80084b8 <_sbrk_r>
 8007e20:	4581      	cmp	r9, r0
 8007e22:	d142      	bne.n	8007eaa <_malloc_r+0xea>
 8007e24:	6821      	ldr	r1, [r4, #0]
 8007e26:	4630      	mov	r0, r6
 8007e28:	1a6d      	subs	r5, r5, r1
 8007e2a:	4629      	mov	r1, r5
 8007e2c:	f7ff ffa6 	bl	8007d7c <sbrk_aligned>
 8007e30:	3001      	adds	r0, #1
 8007e32:	d03a      	beq.n	8007eaa <_malloc_r+0xea>
 8007e34:	6823      	ldr	r3, [r4, #0]
 8007e36:	442b      	add	r3, r5
 8007e38:	6023      	str	r3, [r4, #0]
 8007e3a:	f8d8 3000 	ldr.w	r3, [r8]
 8007e3e:	685a      	ldr	r2, [r3, #4]
 8007e40:	bb62      	cbnz	r2, 8007e9c <_malloc_r+0xdc>
 8007e42:	f8c8 7000 	str.w	r7, [r8]
 8007e46:	e00f      	b.n	8007e68 <_malloc_r+0xa8>
 8007e48:	6822      	ldr	r2, [r4, #0]
 8007e4a:	1b52      	subs	r2, r2, r5
 8007e4c:	d420      	bmi.n	8007e90 <_malloc_r+0xd0>
 8007e4e:	2a0b      	cmp	r2, #11
 8007e50:	d917      	bls.n	8007e82 <_malloc_r+0xc2>
 8007e52:	1961      	adds	r1, r4, r5
 8007e54:	42a3      	cmp	r3, r4
 8007e56:	6025      	str	r5, [r4, #0]
 8007e58:	bf18      	it	ne
 8007e5a:	6059      	strne	r1, [r3, #4]
 8007e5c:	6863      	ldr	r3, [r4, #4]
 8007e5e:	bf08      	it	eq
 8007e60:	f8c8 1000 	streq.w	r1, [r8]
 8007e64:	5162      	str	r2, [r4, r5]
 8007e66:	604b      	str	r3, [r1, #4]
 8007e68:	4630      	mov	r0, r6
 8007e6a:	f000 f82f 	bl	8007ecc <__malloc_unlock>
 8007e6e:	f104 000b 	add.w	r0, r4, #11
 8007e72:	1d23      	adds	r3, r4, #4
 8007e74:	f020 0007 	bic.w	r0, r0, #7
 8007e78:	1ac2      	subs	r2, r0, r3
 8007e7a:	bf1c      	itt	ne
 8007e7c:	1a1b      	subne	r3, r3, r0
 8007e7e:	50a3      	strne	r3, [r4, r2]
 8007e80:	e7af      	b.n	8007de2 <_malloc_r+0x22>
 8007e82:	6862      	ldr	r2, [r4, #4]
 8007e84:	42a3      	cmp	r3, r4
 8007e86:	bf0c      	ite	eq
 8007e88:	f8c8 2000 	streq.w	r2, [r8]
 8007e8c:	605a      	strne	r2, [r3, #4]
 8007e8e:	e7eb      	b.n	8007e68 <_malloc_r+0xa8>
 8007e90:	4623      	mov	r3, r4
 8007e92:	6864      	ldr	r4, [r4, #4]
 8007e94:	e7ae      	b.n	8007df4 <_malloc_r+0x34>
 8007e96:	463c      	mov	r4, r7
 8007e98:	687f      	ldr	r7, [r7, #4]
 8007e9a:	e7b6      	b.n	8007e0a <_malloc_r+0x4a>
 8007e9c:	461a      	mov	r2, r3
 8007e9e:	685b      	ldr	r3, [r3, #4]
 8007ea0:	42a3      	cmp	r3, r4
 8007ea2:	d1fb      	bne.n	8007e9c <_malloc_r+0xdc>
 8007ea4:	2300      	movs	r3, #0
 8007ea6:	6053      	str	r3, [r2, #4]
 8007ea8:	e7de      	b.n	8007e68 <_malloc_r+0xa8>
 8007eaa:	230c      	movs	r3, #12
 8007eac:	4630      	mov	r0, r6
 8007eae:	6033      	str	r3, [r6, #0]
 8007eb0:	f000 f80c 	bl	8007ecc <__malloc_unlock>
 8007eb4:	e794      	b.n	8007de0 <_malloc_r+0x20>
 8007eb6:	6005      	str	r5, [r0, #0]
 8007eb8:	e7d6      	b.n	8007e68 <_malloc_r+0xa8>
 8007eba:	bf00      	nop
 8007ebc:	2000085c 	.word	0x2000085c

08007ec0 <__malloc_lock>:
 8007ec0:	4801      	ldr	r0, [pc, #4]	@ (8007ec8 <__malloc_lock+0x8>)
 8007ec2:	f7ff bf03 	b.w	8007ccc <__retarget_lock_acquire_recursive>
 8007ec6:	bf00      	nop
 8007ec8:	20000854 	.word	0x20000854

08007ecc <__malloc_unlock>:
 8007ecc:	4801      	ldr	r0, [pc, #4]	@ (8007ed4 <__malloc_unlock+0x8>)
 8007ece:	f7ff befe 	b.w	8007cce <__retarget_lock_release_recursive>
 8007ed2:	bf00      	nop
 8007ed4:	20000854 	.word	0x20000854

08007ed8 <__ssputs_r>:
 8007ed8:	e92d 47f0 	stmdb	sp!, {r4, r5, r6, r7, r8, r9, sl, lr}
 8007edc:	461f      	mov	r7, r3
 8007ede:	688e      	ldr	r6, [r1, #8]
 8007ee0:	4682      	mov	sl, r0
 8007ee2:	42be      	cmp	r6, r7
 8007ee4:	460c      	mov	r4, r1
 8007ee6:	4690      	mov	r8, r2
 8007ee8:	4633      	mov	r3, r6
 8007eea:	d853      	bhi.n	8007f94 <__ssputs_r+0xbc>
 8007eec:	f9b1 000c 	ldrsh.w	r0, [r1, #12]
 8007ef0:	f410 6f90 	tst.w	r0, #1152	@ 0x480
 8007ef4:	d02b      	beq.n	8007f4e <__ssputs_r+0x76>
 8007ef6:	6965      	ldr	r5, [r4, #20]
 8007ef8:	6823      	ldr	r3, [r4, #0]
 8007efa:	6909      	ldr	r1, [r1, #16]
 8007efc:	eb05 0545 	add.w	r5, r5, r5, lsl #1
 8007f00:	eba3 0901 	sub.w	r9, r3, r1
 8007f04:	eb05 75d5 	add.w	r5, r5, r5, lsr #31
 8007f08:	1c7b      	adds	r3, r7, #1
 8007f0a:	106d      	asrs	r5, r5, #1
 8007f0c:	444b      	add	r3, r9
 8007f0e:	42ab      	cmp	r3, r5
 8007f10:	462a      	mov	r2, r5
 8007f12:	bf84      	itt	hi
 8007f14:	461d      	movhi	r5, r3
 8007f16:	462a      	movhi	r2, r5
 8007f18:	0543      	lsls	r3, r0, #21
 8007f1a:	d527      	bpl.n	8007f6c <__ssputs_r+0x94>
 8007f1c:	4611      	mov	r1, r2
 8007f1e:	4650      	mov	r0, sl
 8007f20:	f7ff ff4e 	bl	8007dc0 <_malloc_r>
 8007f24:	4606      	mov	r6, r0
 8007f26:	b358      	cbz	r0, 8007f80 <__ssputs_r+0xa8>
 8007f28:	464a      	mov	r2, r9
 8007f2a:	6921      	ldr	r1, [r4, #16]
 8007f2c:	f7ff fed0 	bl	8007cd0 <memcpy>
 8007f30:	89a3      	ldrh	r3, [r4, #12]
 8007f32:	f423 6390 	bic.w	r3, r3, #1152	@ 0x480
 8007f36:	f043 0380 	orr.w	r3, r3, #128	@ 0x80
 8007f3a:	81a3      	strh	r3, [r4, #12]
 8007f3c:	6126      	str	r6, [r4, #16]
 8007f3e:	444e      	add	r6, r9
 8007f40:	6026      	str	r6, [r4, #0]
 8007f42:	463b      	mov	r3, r7
 8007f44:	463e      	mov	r6, r7
 8007f46:	6165      	str	r5, [r4, #20]
 8007f48:	eba5 0509 	sub.w	r5, r5, r9
 8007f4c:	60a5      	str	r5, [r4, #8]
 8007f4e:	461f      	mov	r7, r3
 8007f50:	463a      	mov	r2, r7
 8007f52:	4641      	mov	r1, r8
 8007f54:	6820      	ldr	r0, [r4, #0]
 8007f56:	f7ff fe6d 	bl	8007c34 <memmove>
 8007f5a:	2000      	movs	r0, #0
 8007f5c:	68a3      	ldr	r3, [r4, #8]
 8007f5e:	1b9b      	subs	r3, r3, r6
 8007f60:	60a3      	str	r3, [r4, #8]
 8007f62:	6823      	ldr	r3, [r4, #0]
 8007f64:	443b      	add	r3, r7
 8007f66:	6023      	str	r3, [r4, #0]
 8007f68:	e8bd 87f0 	ldmia.w	sp!, {r4, r5, r6, r7, r8, r9, sl, pc}
 8007f6c:	4650      	mov	r0, sl
 8007f6e:	f000 fac1 	bl	80084f4 <_realloc_r>
 8007f72:	4606      	mov	r6, r0
 8007f74:	2800      	cmp	r0, #0
 8007f76:	d1e1      	bne.n	8007f3c <__ssputs_r+0x64>
 8007f78:	4650      	mov	r0, sl
 8007f7a:	6921      	ldr	r1, [r4, #16]
 8007f7c:	f7ff feb6 	bl	8007cec <_free_r>
 8007f80:	230c      	movs	r3, #12
 8007f82:	f8ca 3000 	str.w	r3, [sl]
 8007f86:	89a3      	ldrh	r3, [r4, #12]
 8007f88:	f04f 30ff 	mov.w	r0, #4294967295
 8007f8c:	f043 0340 	orr.w	r3, r3, #64	@ 0x40
 8007f90:	81a3      	strh	r3, [r4, #12]
 8007f92:	e7e9      	b.n	8007f68 <__ssputs_r+0x90>
 8007f94:	463e      	mov	r6, r7
 8007f96:	e7db      	b.n	8007f50 <__ssputs_r+0x78>

08007f98 <_svfiprintf_r>:
 8007f98:	e92d 47f0 	stmdb	sp!, {r4, r5, r6, r7, r8, r9, sl, lr}
 8007f9c:	461f      	mov	r7, r3
 8007f9e:	898b      	ldrh	r3, [r1, #12]
 8007fa0:	4606      	mov	r6, r0
 8007fa2:	061b      	lsls	r3, r3, #24
 8007fa4:	460d      	mov	r5, r1
 8007fa6:	4614      	mov	r4, r2
 8007fa8:	b09c      	sub	sp, #112	@ 0x70
 8007faa:	d510      	bpl.n	8007fce <_svfiprintf_r+0x36>
 8007fac:	690b      	ldr	r3, [r1, #16]
 8007fae:	b973      	cbnz	r3, 8007fce <_svfiprintf_r+0x36>
 8007fb0:	2140      	movs	r1, #64	@ 0x40
 8007fb2:	f7ff ff05 	bl	8007dc0 <_malloc_r>
 8007fb6:	6028      	str	r0, [r5, #0]
 8007fb8:	6128      	str	r0, [r5, #16]
 8007fba:	b930      	cbnz	r0, 8007fca <_svfiprintf_r+0x32>
 8007fbc:	230c      	movs	r3, #12
 8007fbe:	6033      	str	r3, [r6, #0]
 8007fc0:	f04f 30ff 	mov.w	r0, #4294967295
 8007fc4:	b01c      	add	sp, #112	@ 0x70
 8007fc6:	e8bd 87f0 	ldmia.w	sp!, {r4, r5, r6, r7, r8, r9, sl, pc}
 8007fca:	2340      	movs	r3, #64	@ 0x40
 8007fcc:	616b      	str	r3, [r5, #20]
 8007fce:	2300      	movs	r3, #0
 8007fd0:	9309      	str	r3, [sp, #36]	@ 0x24
 8007fd2:	2320      	movs	r3, #32
 8007fd4:	f88d 3029 	strb.w	r3, [sp, #41]	@ 0x29
 8007fd8:	2330      	movs	r3, #48	@ 0x30
 8007fda:	f04f 0801 	mov.w	r8, #1
 8007fde:	9703      	str	r7, [sp, #12]
 8007fe0:	4f64      	ldr	r7, [pc, #400]	@ (8008174 <_svfiprintf_r+0x1dc>)
 8007fe2:	f88d 302a 	strb.w	r3, [sp, #42]	@ 0x2a
 8007fe6:	4623      	mov	r3, r4
 8007fe8:	4699      	mov	r9, r3
 8007fea:	f813 2b01 	ldrb.w	r2, [r3], #1
 8007fee:	b10a      	cbz	r2, 8007ff4 <_svfiprintf_r+0x5c>
 8007ff0:	2a25      	cmp	r2, #37	@ 0x25
 8007ff2:	d1f9      	bne.n	8007fe8 <_svfiprintf_r+0x50>
 8007ff4:	ebb9 0a04 	subs.w	sl, r9, r4
 8007ff8:	d00b      	beq.n	8008012 <_svfiprintf_r+0x7a>
 8007ffa:	4653      	mov	r3, sl
 8007ffc:	4622      	mov	r2, r4
 8007ffe:	4629      	mov	r1, r5
 8008000:	4630      	mov	r0, r6
 8008002:	f7ff ff69 	bl	8007ed8 <__ssputs_r>
 8008006:	3001      	adds	r0, #1
 8008008:	f000 80a4 	beq.w	8008154 <_svfiprintf_r+0x1bc>
 800800c:	9a09      	ldr	r2, [sp, #36]	@ 0x24
 800800e:	4452      	add	r2, sl
 8008010:	9209      	str	r2, [sp, #36]	@ 0x24
 8008012:	f899 3000 	ldrb.w	r3, [r9]
 8008016:	2b00      	cmp	r3, #0
 8008018:	f000 809c 	beq.w	8008154 <_svfiprintf_r+0x1bc>
 800801c:	2300      	movs	r3, #0
 800801e:	f04f 32ff 	mov.w	r2, #4294967295
 8008022:	e9cd 2305 	strd	r2, r3, [sp, #20]
 8008026:	f109 0901 	add.w	r9, r9, #1
 800802a:	9304      	str	r3, [sp, #16]
 800802c:	9307      	str	r3, [sp, #28]
 800802e:	f88d 3053 	strb.w	r3, [sp, #83]	@ 0x53
 8008032:	931a      	str	r3, [sp, #104]	@ 0x68
 8008034:	464c      	mov	r4, r9
 8008036:	2205      	movs	r2, #5
 8008038:	f814 1b01 	ldrb.w	r1, [r4], #1
 800803c:	484d      	ldr	r0, [pc, #308]	@ (8008174 <_svfiprintf_r+0x1dc>)
 800803e:	f000 fa4b 	bl	80084d8 <memchr>
 8008042:	9b04      	ldr	r3, [sp, #16]
 8008044:	b9d0      	cbnz	r0, 800807c <_svfiprintf_r+0xe4>
 8008046:	06d8      	lsls	r0, r3, #27
 8008048:	bf44      	itt	mi
 800804a:	2220      	movmi	r2, #32
 800804c:	f88d 2053 	strbmi.w	r2, [sp, #83]	@ 0x53
 8008050:	0719      	lsls	r1, r3, #28
 8008052:	bf44      	itt	mi
 8008054:	222b      	movmi	r2, #43	@ 0x2b
 8008056:	f88d 2053 	strbmi.w	r2, [sp, #83]	@ 0x53
 800805a:	f899 2000 	ldrb.w	r2, [r9]
 800805e:	2a2a      	cmp	r2, #42	@ 0x2a
 8008060:	d013      	beq.n	800808a <_svfiprintf_r+0xf2>
 8008062:	464c      	mov	r4, r9
 8008064:	2000      	movs	r0, #0
 8008066:	f04f 0c0a 	mov.w	ip, #10
 800806a:	9a07      	ldr	r2, [sp, #28]
 800806c:	4621      	mov	r1, r4
 800806e:	f811 3b01 	ldrb.w	r3, [r1], #1
 8008072:	3b30      	subs	r3, #48	@ 0x30
 8008074:	2b09      	cmp	r3, #9
 8008076:	d949      	bls.n	800810c <_svfiprintf_r+0x174>
 8008078:	b968      	cbnz	r0, 8008096 <_svfiprintf_r+0xfe>
 800807a:	e013      	b.n	80080a4 <_svfiprintf_r+0x10c>
 800807c:	1bc0      	subs	r0, r0, r7
 800807e:	fa08 f000 	lsl.w	r0, r8, r0
 8008082:	4318      	orrs	r0, r3
 8008084:	46a1      	mov	r9, r4
 8008086:	9004      	str	r0, [sp, #16]
 8008088:	e7d4      	b.n	8008034 <_svfiprintf_r+0x9c>
 800808a:	9a03      	ldr	r2, [sp, #12]
 800808c:	1d11      	adds	r1, r2, #4
 800808e:	6812      	ldr	r2, [r2, #0]
 8008090:	9103      	str	r1, [sp, #12]
 8008092:	2a00      	cmp	r2, #0
 8008094:	db01      	blt.n	800809a <_svfiprintf_r+0x102>
 8008096:	9207      	str	r2, [sp, #28]
 8008098:	e004      	b.n	80080a4 <_svfiprintf_r+0x10c>
 800809a:	4252      	negs	r2, r2
 800809c:	f043 0302 	orr.w	r3, r3, #2
 80080a0:	9207      	str	r2, [sp, #28]
 80080a2:	9304      	str	r3, [sp, #16]
 80080a4:	7823      	ldrb	r3, [r4, #0]
 80080a6:	2b2e      	cmp	r3, #46	@ 0x2e
 80080a8:	d10a      	bne.n	80080c0 <_svfiprintf_r+0x128>
 80080aa:	7863      	ldrb	r3, [r4, #1]
 80080ac:	2b2a      	cmp	r3, #42	@ 0x2a
 80080ae:	d132      	bne.n	8008116 <_svfiprintf_r+0x17e>
 80080b0:	9b03      	ldr	r3, [sp, #12]
 80080b2:	3402      	adds	r4, #2
 80080b4:	1d1a      	adds	r2, r3, #4
 80080b6:	681b      	ldr	r3, [r3, #0]
 80080b8:	9203      	str	r2, [sp, #12]
 80080ba:	ea43 73e3 	orr.w	r3, r3, r3, asr #31
 80080be:	9305      	str	r3, [sp, #20]
 80080c0:	f8df 90b4 	ldr.w	r9, [pc, #180]	@ 8008178 <_svfiprintf_r+0x1e0>
 80080c4:	2203      	movs	r2, #3
 80080c6:	4648      	mov	r0, r9
 80080c8:	7821      	ldrb	r1, [r4, #0]
 80080ca:	f000 fa05 	bl	80084d8 <memchr>
 80080ce:	b138      	cbz	r0, 80080e0 <_svfiprintf_r+0x148>
 80080d0:	2240      	movs	r2, #64	@ 0x40
 80080d2:	9b04      	ldr	r3, [sp, #16]
 80080d4:	eba0 0009 	sub.w	r0, r0, r9
 80080d8:	4082      	lsls	r2, r0
 80080da:	4313      	orrs	r3, r2
 80080dc:	3401      	adds	r4, #1
 80080de:	9304      	str	r3, [sp, #16]
 80080e0:	f814 1b01 	ldrb.w	r1, [r4], #1
 80080e4:	2206      	movs	r2, #6
 80080e6:	4825      	ldr	r0, [pc, #148]	@ (800817c <_svfiprintf_r+0x1e4>)
 80080e8:	f88d 1028 	strb.w	r1, [sp, #40]	@ 0x28
 80080ec:	f000 f9f4 	bl	80084d8 <memchr>
 80080f0:	2800      	cmp	r0, #0
 80080f2:	d035      	beq.n	8008160 <_svfiprintf_r+0x1c8>
 80080f4:	4822      	ldr	r0, [pc, #136]	@ (8008180 <_svfiprintf_r+0x1e8>)
 80080f6:	bb18      	cbnz	r0, 8008140 <_svfiprintf_r+0x1a8>
 80080f8:	9b03      	ldr	r3, [sp, #12]
 80080fa:	3307      	adds	r3, #7
 80080fc:	f023 0307 	bic.w	r3, r3, #7
 8008100:	3308      	adds	r3, #8
 8008102:	9303      	str	r3, [sp, #12]
 8008104:	9b09      	ldr	r3, [sp, #36]	@ 0x24
 8008106:	4403      	add	r3, r0
 8008108:	9309      	str	r3, [sp, #36]	@ 0x24
 800810a:	e76c      	b.n	8007fe6 <_svfiprintf_r+0x4e>
 800810c:	460c      	mov	r4, r1
 800810e:	2001      	movs	r0, #1
 8008110:	fb0c 3202 	mla	r2, ip, r2, r3
 8008114:	e7aa      	b.n	800806c <_svfiprintf_r+0xd4>
 8008116:	2300      	movs	r3, #0
 8008118:	f04f 0c0a 	mov.w	ip, #10
 800811c:	4619      	mov	r1, r3
 800811e:	3401      	adds	r4, #1
 8008120:	9305      	str	r3, [sp, #20]
 8008122:	4620      	mov	r0, r4
 8008124:	f810 2b01 	ldrb.w	r2, [r0], #1
 8008128:	3a30      	subs	r2, #48	@ 0x30
 800812a:	2a09      	cmp	r2, #9
 800812c:	d903      	bls.n	8008136 <_svfiprintf_r+0x19e>
 800812e:	2b00      	cmp	r3, #0
 8008130:	d0c6      	beq.n	80080c0 <_svfiprintf_r+0x128>
 8008132:	9105      	str	r1, [sp, #20]
 8008134:	e7c4      	b.n	80080c0 <_svfiprintf_r+0x128>
 8008136:	4604      	mov	r4, r0
 8008138:	2301      	movs	r3, #1
 800813a:	fb0c 2101 	mla	r1, ip, r1, r2
 800813e:	e7f0      	b.n	8008122 <_svfiprintf_r+0x18a>
 8008140:	ab03      	add	r3, sp, #12
 8008142:	9300      	str	r3, [sp, #0]
 8008144:	462a      	mov	r2, r5
 8008146:	4630      	mov	r0, r6
 8008148:	4b0e      	ldr	r3, [pc, #56]	@ (8008184 <_svfiprintf_r+0x1ec>)
 800814a:	a904      	add	r1, sp, #16
 800814c:	f3af 8000 	nop.w
 8008150:	1c42      	adds	r2, r0, #1
 8008152:	d1d7      	bne.n	8008104 <_svfiprintf_r+0x16c>
 8008154:	89ab      	ldrh	r3, [r5, #12]
 8008156:	065b      	lsls	r3, r3, #25
 8008158:	f53f af32 	bmi.w	8007fc0 <_svfiprintf_r+0x28>
 800815c:	9809      	ldr	r0, [sp, #36]	@ 0x24
 800815e:	e731      	b.n	8007fc4 <_svfiprintf_r+0x2c>
 8008160:	ab03      	add	r3, sp, #12
 8008162:	9300      	str	r3, [sp, #0]
 8008164:	462a      	mov	r2, r5
 8008166:	4630      	mov	r0, r6
 8008168:	4b06      	ldr	r3, [pc, #24]	@ (8008184 <_svfiprintf_r+0x1ec>)
 800816a:	a904      	add	r1, sp, #16
 800816c:	f000 f87e 	bl	800826c <_printf_i>
 8008170:	e7ee      	b.n	8008150 <_svfiprintf_r+0x1b8>
 8008172:	bf00      	nop
 8008174:	08009216 	.word	0x08009216
 8008178:	0800921c 	.word	0x0800921c
 800817c:	08009220 	.word	0x08009220
 8008180:	00000000 	.word	0x00000000
 8008184:	08007ed9 	.word	0x08007ed9

08008188 <_printf_common>:
 8008188:	e92d 47f0 	stmdb	sp!, {r4, r5, r6, r7, r8, r9, sl, lr}
 800818c:	4616      	mov	r6, r2
 800818e:	4698      	mov	r8, r3
 8008190:	688a      	ldr	r2, [r1, #8]
 8008192:	690b      	ldr	r3, [r1, #16]
 8008194:	4607      	mov	r7, r0
 8008196:	4293      	cmp	r3, r2
 8008198:	bfb8      	it	lt
 800819a:	4613      	movlt	r3, r2
 800819c:	6033      	str	r3, [r6, #0]
 800819e:	f891 2043 	ldrb.w	r2, [r1, #67]	@ 0x43
 80081a2:	460c      	mov	r4, r1
 80081a4:	f8dd 9020 	ldr.w	r9, [sp, #32]
 80081a8:	b10a      	cbz	r2, 80081ae <_printf_common+0x26>
 80081aa:	3301      	adds	r3, #1
 80081ac:	6033      	str	r3, [r6, #0]
 80081ae:	6823      	ldr	r3, [r4, #0]
 80081b0:	0699      	lsls	r1, r3, #26
 80081b2:	bf42      	ittt	mi
 80081b4:	6833      	ldrmi	r3, [r6, #0]
 80081b6:	3302      	addmi	r3, #2
 80081b8:	6033      	strmi	r3, [r6, #0]
 80081ba:	6825      	ldr	r5, [r4, #0]
 80081bc:	f015 0506 	ands.w	r5, r5, #6
 80081c0:	d106      	bne.n	80081d0 <_printf_common+0x48>
 80081c2:	f104 0a19 	add.w	sl, r4, #25
 80081c6:	68e3      	ldr	r3, [r4, #12]
 80081c8:	6832      	ldr	r2, [r6, #0]
 80081ca:	1a9b      	subs	r3, r3, r2
 80081cc:	42ab      	cmp	r3, r5
 80081ce:	dc2b      	bgt.n	8008228 <_printf_common+0xa0>
 80081d0:	f894 3043 	ldrb.w	r3, [r4, #67]	@ 0x43
 80081d4:	6822      	ldr	r2, [r4, #0]
 80081d6:	3b00      	subs	r3, #0
 80081d8:	bf18      	it	ne
 80081da:	2301      	movne	r3, #1
 80081dc:	0692      	lsls	r2, r2, #26
 80081de:	d430      	bmi.n	8008242 <_printf_common+0xba>
 80081e0:	4641      	mov	r1, r8
 80081e2:	4638      	mov	r0, r7
 80081e4:	f104 0243 	add.w	r2, r4, #67	@ 0x43
 80081e8:	47c8      	blx	r9
 80081ea:	3001      	adds	r0, #1
 80081ec:	d023      	beq.n	8008236 <_printf_common+0xae>
 80081ee:	6823      	ldr	r3, [r4, #0]
 80081f0:	6922      	ldr	r2, [r4, #16]
 80081f2:	f003 0306 	and.w	r3, r3, #6
 80081f6:	2b04      	cmp	r3, #4
 80081f8:	bf14      	ite	ne
 80081fa:	2500      	movne	r5, #0
 80081fc:	6833      	ldreq	r3, [r6, #0]
 80081fe:	f04f 0600 	mov.w	r6, #0
 8008202:	bf08      	it	eq
 8008204:	68e5      	ldreq	r5, [r4, #12]
 8008206:	f104 041a 	add.w	r4, r4, #26
 800820a:	bf08      	it	eq
 800820c:	1aed      	subeq	r5, r5, r3
 800820e:	f854 3c12 	ldr.w	r3, [r4, #-18]
 8008212:	bf08      	it	eq
 8008214:	ea25 75e5 	biceq.w	r5, r5, r5, asr #31
 8008218:	4293      	cmp	r3, r2
 800821a:	bfc4      	itt	gt
 800821c:	1a9b      	subgt	r3, r3, r2
 800821e:	18ed      	addgt	r5, r5, r3
 8008220:	42b5      	cmp	r5, r6
 8008222:	d11a      	bne.n	800825a <_printf_common+0xd2>
 8008224:	2000      	movs	r0, #0
 8008226:	e008      	b.n	800823a <_printf_common+0xb2>
 8008228:	2301      	movs	r3, #1
 800822a:	4652      	mov	r2, sl
 800822c:	4641      	mov	r1, r8
 800822e:	4638      	mov	r0, r7
 8008230:	47c8      	blx	r9
 8008232:	3001      	adds	r0, #1
 8008234:	d103      	bne.n	800823e <_printf_common+0xb6>
 8008236:	f04f 30ff 	mov.w	r0, #4294967295
 800823a:	e8bd 87f0 	ldmia.w	sp!, {r4, r5, r6, r7, r8, r9, sl, pc}
 800823e:	3501      	adds	r5, #1
 8008240:	e7c1      	b.n	80081c6 <_printf_common+0x3e>
 8008242:	2030      	movs	r0, #48	@ 0x30
 8008244:	18e1      	adds	r1, r4, r3
 8008246:	f881 0043 	strb.w	r0, [r1, #67]	@ 0x43
 800824a:	1c5a      	adds	r2, r3, #1
 800824c:	f894 1045 	ldrb.w	r1, [r4, #69]	@ 0x45
 8008250:	4422      	add	r2, r4
 8008252:	3302      	adds	r3, #2
 8008254:	f882 1043 	strb.w	r1, [r2, #67]	@ 0x43
 8008258:	e7c2      	b.n	80081e0 <_printf_common+0x58>
 800825a:	2301      	movs	r3, #1
 800825c:	4622      	mov	r2, r4
 800825e:	4641      	mov	r1, r8
 8008260:	4638      	mov	r0, r7
 8008262:	47c8      	blx	r9
 8008264:	3001      	adds	r0, #1
 8008266:	d0e6      	beq.n	8008236 <_printf_common+0xae>
 8008268:	3601      	adds	r6, #1
 800826a:	e7d9      	b.n	8008220 <_printf_common+0x98>

0800826c <_printf_i>:
 800826c:	e92d 43f0 	stmdb	sp!, {r4, r5, r6, r7, r8, r9, lr}
 8008270:	7e0d      	ldrb	r5, [r1, #24]
 8008272:	b085      	sub	sp, #20
 8008274:	2d78      	cmp	r5, #120	@ 0x78
 8008276:	4690      	mov	r8, r2
 8008278:	4607      	mov	r7, r0
 800827a:	460c      	mov	r4, r1
 800827c:	4699      	mov	r9, r3
 800827e:	9e0c      	ldr	r6, [sp, #48]	@ 0x30
 8008280:	f101 0243 	add.w	r2, r1, #67	@ 0x43
 8008284:	d807      	bhi.n	8008296 <_printf_i+0x2a>
 8008286:	2d62      	cmp	r5, #98	@ 0x62
 8008288:	d80a      	bhi.n	80082a0 <_printf_i+0x34>
 800828a:	2d00      	cmp	r5, #0
 800828c:	f000 80d7 	beq.w	800843e <_printf_i+0x1d2>
 8008290:	2d58      	cmp	r5, #88	@ 0x58
 8008292:	f000 80bc 	beq.w	800840e <_printf_i+0x1a2>
 8008296:	f104 0642 	add.w	r6, r4, #66	@ 0x42
 800829a:	f884 5042 	strb.w	r5, [r4, #66]	@ 0x42
 800829e:	e03b      	b.n	8008318 <_printf_i+0xac>
 80082a0:	f1a5 0363 	sub.w	r3, r5, #99	@ 0x63
 80082a4:	2b15      	cmp	r3, #21
 80082a6:	d8f6      	bhi.n	8008296 <_printf_i+0x2a>
 80082a8:	a101      	add	r1, pc, #4	@ (adr r1, 80082b0 <_printf_i+0x44>)
 80082aa:	f851 f023 	ldr.w	pc, [r1, r3, lsl #2]
 80082ae:	bf00      	nop
 80082b0:	08008309 	.word	0x08008309
 80082b4:	0800831d 	.word	0x0800831d
 80082b8:	08008297 	.word	0x08008297
 80082bc:	08008297 	.word	0x08008297
 80082c0:	08008297 	.word	0x08008297
 80082c4:	08008297 	.word	0x08008297
 80082c8:	0800831d 	.word	0x0800831d
 80082cc:	08008297 	.word	0x08008297
 80082d0:	08008297 	.word	0x08008297
 80082d4:	08008297 	.word	0x08008297
 80082d8:	08008297 	.word	0x08008297
 80082dc:	08008425 	.word	0x08008425
 80082e0:	08008347 	.word	0x08008347
 80082e4:	080083d7 	.word	0x080083d7
 80082e8:	08008297 	.word	0x08008297
 80082ec:	08008297 	.word	0x08008297
 80082f0:	08008447 	.word	0x08008447
 80082f4:	08008297 	.word	0x08008297
 80082f8:	08008347 	.word	0x08008347
 80082fc:	08008297 	.word	0x08008297
 8008300:	08008297 	.word	0x08008297
 8008304:	080083df 	.word	0x080083df
 8008308:	6833      	ldr	r3, [r6, #0]
 800830a:	1d1a      	adds	r2, r3, #4
 800830c:	681b      	ldr	r3, [r3, #0]
 800830e:	6032      	str	r2, [r6, #0]
 8008310:	f104 0642 	add.w	r6, r4, #66	@ 0x42
 8008314:	f884 3042 	strb.w	r3, [r4, #66]	@ 0x42
 8008318:	2301      	movs	r3, #1
 800831a:	e0a1      	b.n	8008460 <_printf_i+0x1f4>
 800831c:	6833      	ldr	r3, [r6, #0]
 800831e:	6820      	ldr	r0, [r4, #0]
 8008320:	1d19      	adds	r1, r3, #4
 8008322:	6031      	str	r1, [r6, #0]
 8008324:	0606      	lsls	r6, r0, #24
 8008326:	d501      	bpl.n	800832c <_printf_i+0xc0>
 8008328:	681d      	ldr	r5, [r3, #0]
 800832a:	e003      	b.n	8008334 <_printf_i+0xc8>
 800832c:	0645      	lsls	r5, r0, #25
 800832e:	d5fb      	bpl.n	8008328 <_printf_i+0xbc>
 8008330:	f9b3 5000 	ldrsh.w	r5, [r3]
 8008334:	2d00      	cmp	r5, #0
 8008336:	da03      	bge.n	8008340 <_printf_i+0xd4>
 8008338:	232d      	movs	r3, #45	@ 0x2d
 800833a:	426d      	negs	r5, r5
 800833c:	f884 3043 	strb.w	r3, [r4, #67]	@ 0x43
 8008340:	230a      	movs	r3, #10
 8008342:	485b      	ldr	r0, [pc, #364]	@ (80084b0 <_printf_i+0x244>)
 8008344:	e011      	b.n	800836a <_printf_i+0xfe>
 8008346:	6821      	ldr	r1, [r4, #0]
 8008348:	6833      	ldr	r3, [r6, #0]
 800834a:	0608      	lsls	r0, r1, #24
 800834c:	f853 5b04 	ldr.w	r5, [r3], #4
 8008350:	d402      	bmi.n	8008358 <_printf_i+0xec>
 8008352:	0649      	lsls	r1, r1, #25
 8008354:	bf48      	it	mi
 8008356:	b2ad      	uxthmi	r5, r5
 8008358:	6033      	str	r3, [r6, #0]
 800835a:	7e23      	ldrb	r3, [r4, #24]
 800835c:	4854      	ldr	r0, [pc, #336]	@ (80084b0 <_printf_i+0x244>)
 800835e:	2b6f      	cmp	r3, #111	@ 0x6f
 8008360:	d15c      	bne.n	800841c <_printf_i+0x1b0>
 8008362:	2308      	movs	r3, #8
 8008364:	2100      	movs	r1, #0
 8008366:	f884 1043 	strb.w	r1, [r4, #67]	@ 0x43
 800836a:	6866      	ldr	r6, [r4, #4]
 800836c:	2e00      	cmp	r6, #0
 800836e:	60a6      	str	r6, [r4, #8]
 8008370:	db05      	blt.n	800837e <_printf_i+0x112>
 8008372:	6821      	ldr	r1, [r4, #0]
 8008374:	432e      	orrs	r6, r5
 8008376:	f021 0104 	bic.w	r1, r1, #4
 800837a:	6021      	str	r1, [r4, #0]
 800837c:	d050      	beq.n	8008420 <_printf_i+0x1b4>
 800837e:	4616      	mov	r6, r2
 8008380:	fbb5 f1f3 	udiv	r1, r5, r3
 8008384:	fb03 5c11 	mls	ip, r3, r1, r5
 8008388:	f810 c00c 	ldrb.w	ip, [r0, ip]
 800838c:	f806 cd01 	strb.w	ip, [r6, #-1]!
 8008390:	46ac      	mov	ip, r5
 8008392:	4563      	cmp	r3, ip
 8008394:	460d      	mov	r5, r1
 8008396:	d9f3      	bls.n	8008380 <_printf_i+0x114>
 8008398:	2b08      	cmp	r3, #8
 800839a:	d10b      	bne.n	80083b4 <_printf_i+0x148>
 800839c:	6823      	ldr	r3, [r4, #0]
 800839e:	07db      	lsls	r3, r3, #31
 80083a0:	d508      	bpl.n	80083b4 <_printf_i+0x148>
 80083a2:	6923      	ldr	r3, [r4, #16]
 80083a4:	6861      	ldr	r1, [r4, #4]
 80083a6:	4299      	cmp	r1, r3
 80083a8:	bfde      	ittt	le
 80083aa:	2330      	movle	r3, #48	@ 0x30
 80083ac:	f806 3c01 	strble.w	r3, [r6, #-1]
 80083b0:	f106 36ff 	addle.w	r6, r6, #4294967295
 80083b4:	1b92      	subs	r2, r2, r6
 80083b6:	6122      	str	r2, [r4, #16]
 80083b8:	4643      	mov	r3, r8
 80083ba:	4621      	mov	r1, r4
 80083bc:	4638      	mov	r0, r7
 80083be:	f8cd 9000 	str.w	r9, [sp]
 80083c2:	aa03      	add	r2, sp, #12
 80083c4:	f7ff fee0 	bl	8008188 <_printf_common>
 80083c8:	3001      	adds	r0, #1
 80083ca:	d14e      	bne.n	800846a <_printf_i+0x1fe>
 80083cc:	f04f 30ff 	mov.w	r0, #4294967295
 80083d0:	b005      	add	sp, #20
 80083d2:	e8bd 83f0 	ldmia.w	sp!, {r4, r5, r6, r7, r8, r9, pc}
 80083d6:	6823      	ldr	r3, [r4, #0]
 80083d8:	f043 0320 	orr.w	r3, r3, #32
 80083dc:	6023      	str	r3, [r4, #0]
 80083de:	2578      	movs	r5, #120	@ 0x78
 80083e0:	4834      	ldr	r0, [pc, #208]	@ (80084b4 <_printf_i+0x248>)
 80083e2:	f884 5045 	strb.w	r5, [r4, #69]	@ 0x45
 80083e6:	6823      	ldr	r3, [r4, #0]
 80083e8:	6831      	ldr	r1, [r6, #0]
 80083ea:	f013 0f80 	tst.w	r3, #128	@ 0x80
 80083ee:	f851 5b04 	ldr.w	r5, [r1], #4
 80083f2:	d103      	bne.n	80083fc <_printf_i+0x190>
 80083f4:	f013 0f40 	tst.w	r3, #64	@ 0x40
 80083f8:	bf18      	it	ne
 80083fa:	b2ad      	uxthne	r5, r5
 80083fc:	6031      	str	r1, [r6, #0]
 80083fe:	07d9      	lsls	r1, r3, #31
 8008400:	bf44      	itt	mi
 8008402:	f043 0320 	orrmi.w	r3, r3, #32
 8008406:	6023      	strmi	r3, [r4, #0]
 8008408:	b11d      	cbz	r5, 8008412 <_printf_i+0x1a6>
 800840a:	2310      	movs	r3, #16
 800840c:	e7aa      	b.n	8008364 <_printf_i+0xf8>
 800840e:	4828      	ldr	r0, [pc, #160]	@ (80084b0 <_printf_i+0x244>)
 8008410:	e7e7      	b.n	80083e2 <_printf_i+0x176>
 8008412:	6823      	ldr	r3, [r4, #0]
 8008414:	f023 0320 	bic.w	r3, r3, #32
 8008418:	6023      	str	r3, [r4, #0]
 800841a:	e7f6      	b.n	800840a <_printf_i+0x19e>
 800841c:	230a      	movs	r3, #10
 800841e:	e7a1      	b.n	8008364 <_printf_i+0xf8>
 8008420:	4616      	mov	r6, r2
 8008422:	e7b9      	b.n	8008398 <_printf_i+0x12c>
 8008424:	6833      	ldr	r3, [r6, #0]
 8008426:	6825      	ldr	r5, [r4, #0]
 8008428:	1d18      	adds	r0, r3, #4
 800842a:	6961      	ldr	r1, [r4, #20]
 800842c:	6030      	str	r0, [r6, #0]
 800842e:	062e      	lsls	r6, r5, #24
 8008430:	681b      	ldr	r3, [r3, #0]
 8008432:	d501      	bpl.n	8008438 <_printf_i+0x1cc>
 8008434:	6019      	str	r1, [r3, #0]
 8008436:	e002      	b.n	800843e <_printf_i+0x1d2>
 8008438:	0668      	lsls	r0, r5, #25
 800843a:	d5fb      	bpl.n	8008434 <_printf_i+0x1c8>
 800843c:	8019      	strh	r1, [r3, #0]
 800843e:	2300      	movs	r3, #0
 8008440:	4616      	mov	r6, r2
 8008442:	6123      	str	r3, [r4, #16]
 8008444:	e7b8      	b.n	80083b8 <_printf_i+0x14c>
 8008446:	6833      	ldr	r3, [r6, #0]
 8008448:	2100      	movs	r1, #0
 800844a:	1d1a      	adds	r2, r3, #4
 800844c:	6032      	str	r2, [r6, #0]
 800844e:	681e      	ldr	r6, [r3, #0]
 8008450:	6862      	ldr	r2, [r4, #4]
 8008452:	4630      	mov	r0, r6
 8008454:	f000 f840 	bl	80084d8 <memchr>
 8008458:	b108      	cbz	r0, 800845e <_printf_i+0x1f2>
 800845a:	1b80      	subs	r0, r0, r6
 800845c:	6060      	str	r0, [r4, #4]
 800845e:	6863      	ldr	r3, [r4, #4]
 8008460:	6123      	str	r3, [r4, #16]
 8008462:	2300      	movs	r3, #0
 8008464:	f884 3043 	strb.w	r3, [r4, #67]	@ 0x43
 8008468:	e7a6      	b.n	80083b8 <_printf_i+0x14c>
 800846a:	4632      	mov	r2, r6
 800846c:	4641      	mov	r1, r8
 800846e:	4638      	mov	r0, r7
 8008470:	6923      	ldr	r3, [r4, #16]
 8008472:	47c8      	blx	r9
 8008474:	3001      	adds	r0, #1
 8008476:	d0a9      	beq.n	80083cc <_printf_i+0x160>
 8008478:	6823      	ldr	r3, [r4, #0]
 800847a:	079b      	lsls	r3, r3, #30
 800847c:	d413      	bmi.n	80084a6 <_printf_i+0x23a>
 800847e:	68e0      	ldr	r0, [r4, #12]
 8008480:	9b03      	ldr	r3, [sp, #12]
 8008482:	4298      	cmp	r0, r3
 8008484:	bfb8      	it	lt
 8008486:	4618      	movlt	r0, r3
 8008488:	e7a2      	b.n	80083d0 <_printf_i+0x164>
 800848a:	2301      	movs	r3, #1
 800848c:	4632      	mov	r2, r6
 800848e:	4641      	mov	r1, r8
 8008490:	4638      	mov	r0, r7
 8008492:	47c8      	blx	r9
 8008494:	3001      	adds	r0, #1
 8008496:	d099      	beq.n	80083cc <_printf_i+0x160>
 8008498:	3501      	adds	r5, #1
 800849a:	68e3      	ldr	r3, [r4, #12]
 800849c:	9903      	ldr	r1, [sp, #12]
 800849e:	1a5b      	subs	r3, r3, r1
 80084a0:	42ab      	cmp	r3, r5
 80084a2:	dcf2      	bgt.n	800848a <_printf_i+0x21e>
 80084a4:	e7eb      	b.n	800847e <_printf_i+0x212>
 80084a6:	2500      	movs	r5, #0
 80084a8:	f104 0619 	add.w	r6, r4, #25
 80084ac:	e7f5      	b.n	800849a <_printf_i+0x22e>
 80084ae:	bf00      	nop
 80084b0:	08009227 	.word	0x08009227
 80084b4:	08009238 	.word	0x08009238

080084b8 <_sbrk_r>:
 80084b8:	b538      	push	{r3, r4, r5, lr}
 80084ba:	2300      	movs	r3, #0
 80084bc:	4d05      	ldr	r5, [pc, #20]	@ (80084d4 <_sbrk_r+0x1c>)
 80084be:	4604      	mov	r4, r0
 80084c0:	4608      	mov	r0, r1
 80084c2:	602b      	str	r3, [r5, #0]
 80084c4:	f7fa fcfa 	bl	8002ebc <_sbrk>
 80084c8:	1c43      	adds	r3, r0, #1
 80084ca:	d102      	bne.n	80084d2 <_sbrk_r+0x1a>
 80084cc:	682b      	ldr	r3, [r5, #0]
 80084ce:	b103      	cbz	r3, 80084d2 <_sbrk_r+0x1a>
 80084d0:	6023      	str	r3, [r4, #0]
 80084d2:	bd38      	pop	{r3, r4, r5, pc}
 80084d4:	20000850 	.word	0x20000850

080084d8 <memchr>:
 80084d8:	4603      	mov	r3, r0
 80084da:	b510      	push	{r4, lr}
 80084dc:	b2c9      	uxtb	r1, r1
 80084de:	4402      	add	r2, r0
 80084e0:	4293      	cmp	r3, r2
 80084e2:	4618      	mov	r0, r3
 80084e4:	d101      	bne.n	80084ea <memchr+0x12>
 80084e6:	2000      	movs	r0, #0
 80084e8:	e003      	b.n	80084f2 <memchr+0x1a>
 80084ea:	7804      	ldrb	r4, [r0, #0]
 80084ec:	3301      	adds	r3, #1
 80084ee:	428c      	cmp	r4, r1
 80084f0:	d1f6      	bne.n	80084e0 <memchr+0x8>
 80084f2:	bd10      	pop	{r4, pc}

080084f4 <_realloc_r>:
 80084f4:	e92d 41f0 	stmdb	sp!, {r4, r5, r6, r7, r8, lr}
 80084f8:	4607      	mov	r7, r0
 80084fa:	4614      	mov	r4, r2
 80084fc:	460d      	mov	r5, r1
 80084fe:	b921      	cbnz	r1, 800850a <_realloc_r+0x16>
 8008500:	4611      	mov	r1, r2
 8008502:	e8bd 41f0 	ldmia.w	sp!, {r4, r5, r6, r7, r8, lr}
 8008506:	f7ff bc5b 	b.w	8007dc0 <_malloc_r>
 800850a:	b92a      	cbnz	r2, 8008518 <_realloc_r+0x24>
 800850c:	f7ff fbee 	bl	8007cec <_free_r>
 8008510:	4625      	mov	r5, r4
 8008512:	4628      	mov	r0, r5
 8008514:	e8bd 81f0 	ldmia.w	sp!, {r4, r5, r6, r7, r8, pc}
 8008518:	f000 f81a 	bl	8008550 <_malloc_usable_size_r>
 800851c:	4284      	cmp	r4, r0
 800851e:	4606      	mov	r6, r0
 8008520:	d802      	bhi.n	8008528 <_realloc_r+0x34>
 8008522:	ebb4 0f50 	cmp.w	r4, r0, lsr #1
 8008526:	d8f4      	bhi.n	8008512 <_realloc_r+0x1e>
 8008528:	4621      	mov	r1, r4
 800852a:	4638      	mov	r0, r7
 800852c:	f7ff fc48 	bl	8007dc0 <_malloc_r>
 8008530:	4680      	mov	r8, r0
 8008532:	b908      	cbnz	r0, 8008538 <_realloc_r+0x44>
 8008534:	4645      	mov	r5, r8
 8008536:	e7ec      	b.n	8008512 <_realloc_r+0x1e>
 8008538:	42b4      	cmp	r4, r6
 800853a:	4622      	mov	r2, r4
 800853c:	4629      	mov	r1, r5
 800853e:	bf28      	it	cs
 8008540:	4632      	movcs	r2, r6
 8008542:	f7ff fbc5 	bl	8007cd0 <memcpy>
 8008546:	4629      	mov	r1, r5
 8008548:	4638      	mov	r0, r7
 800854a:	f7ff fbcf 	bl	8007cec <_free_r>
 800854e:	e7f1      	b.n	8008534 <_realloc_r+0x40>

08008550 <_malloc_usable_size_r>:
 8008550:	f851 3c04 	ldr.w	r3, [r1, #-4]
 8008554:	1f18      	subs	r0, r3, #4
 8008556:	2b00      	cmp	r3, #0
 8008558:	bfbc      	itt	lt
 800855a:	580b      	ldrlt	r3, [r1, r0]
 800855c:	18c0      	addlt	r0, r0, r3
 800855e:	4770      	bx	lr

08008560 <atan2f>:
 8008560:	f000 b916 	b.w	8008790 <__ieee754_atan2f>

08008564 <sqrtf>:
 8008564:	b538      	push	{r3, r4, r5, lr}
 8008566:	4604      	mov	r4, r0
 8008568:	f000 f81a 	bl	80085a0 <__ieee754_sqrtf>
 800856c:	4621      	mov	r1, r4
 800856e:	4605      	mov	r5, r0
 8008570:	4620      	mov	r0, r4
 8008572:	f7f8 fd8f 	bl	8001094 <__aeabi_fcmpun>
 8008576:	b920      	cbnz	r0, 8008582 <sqrtf+0x1e>
 8008578:	4620      	mov	r0, r4
 800857a:	2100      	movs	r1, #0
 800857c:	f7f8 fd62 	bl	8001044 <__aeabi_fcmplt>
 8008580:	b908      	cbnz	r0, 8008586 <sqrtf+0x22>
 8008582:	4628      	mov	r0, r5
 8008584:	bd38      	pop	{r3, r4, r5, pc}
 8008586:	f7ff fb77 	bl	8007c78 <__errno>
 800858a:	2221      	movs	r2, #33	@ 0x21
 800858c:	4603      	mov	r3, r0
 800858e:	2100      	movs	r1, #0
 8008590:	601a      	str	r2, [r3, #0]
 8008592:	4608      	mov	r0, r1
 8008594:	f7f8 fc6c 	bl	8000e70 <__aeabi_fdiv>
 8008598:	4605      	mov	r5, r0
 800859a:	4628      	mov	r0, r5
 800859c:	bd38      	pop	{r3, r4, r5, pc}
 800859e:	bf00      	nop

080085a0 <__ieee754_sqrtf>:
 80085a0:	f020 4200 	bic.w	r2, r0, #2147483648	@ 0x80000000
 80085a4:	f1b2 4fff 	cmp.w	r2, #2139095040	@ 0x7f800000
 80085a8:	e92d 41f0 	stmdb	sp!, {r4, r5, r6, r7, r8, lr}
 80085ac:	4604      	mov	r4, r0
 80085ae:	d24f      	bcs.n	8008650 <__ieee754_sqrtf+0xb0>
 80085b0:	2a00      	cmp	r2, #0
 80085b2:	d04b      	beq.n	800864c <__ieee754_sqrtf+0xac>
 80085b4:	2800      	cmp	r0, #0
 80085b6:	4603      	mov	r3, r0
 80085b8:	db54      	blt.n	8008664 <__ieee754_sqrtf+0xc4>
 80085ba:	f010 42ff 	ands.w	r2, r0, #2139095040	@ 0x7f800000
 80085be:	d14f      	bne.n	8008660 <__ieee754_sqrtf+0xc0>
 80085c0:	005b      	lsls	r3, r3, #1
 80085c2:	0218      	lsls	r0, r3, #8
 80085c4:	4611      	mov	r1, r2
 80085c6:	f102 0201 	add.w	r2, r2, #1
 80085ca:	d5f9      	bpl.n	80085c0 <__ieee754_sqrtf+0x20>
 80085cc:	4249      	negs	r1, r1
 80085ce:	2400      	movs	r4, #0
 80085d0:	f3c3 0216 	ubfx	r2, r3, #0, #23
 80085d4:	f1a1 057f 	sub.w	r5, r1, #127	@ 0x7f
 80085d8:	07cb      	lsls	r3, r1, #31
 80085da:	f04f 0e19 	mov.w	lr, #25
 80085de:	f04f 7c80 	mov.w	ip, #16777216	@ 0x1000000
 80085e2:	4621      	mov	r1, r4
 80085e4:	f442 0200 	orr.w	r2, r2, #8388608	@ 0x800000
 80085e8:	bf58      	it	pl
 80085ea:	0052      	lslpl	r2, r2, #1
 80085ec:	106d      	asrs	r5, r5, #1
 80085ee:	0052      	lsls	r2, r2, #1
 80085f0:	eb01 030c 	add.w	r3, r1, ip
 80085f4:	4293      	cmp	r3, r2
 80085f6:	bfcf      	iteee	gt
 80085f8:	4613      	movgt	r3, r2
 80085fa:	eb03 010c 	addle.w	r1, r3, ip
 80085fe:	4464      	addle	r4, ip
 8008600:	1ad3      	suble	r3, r2, r3
 8008602:	f1be 0e01 	subs.w	lr, lr, #1
 8008606:	ea4f 0243 	mov.w	r2, r3, lsl #1
 800860a:	ea4f 0c5c 	mov.w	ip, ip, lsr #1
 800860e:	d1ef      	bne.n	80085f0 <__ieee754_sqrtf+0x50>
 8008610:	b1bb      	cbz	r3, 8008642 <__ieee754_sqrtf+0xa2>
 8008612:	4e1a      	ldr	r6, [pc, #104]	@ (800867c <__ieee754_sqrtf+0xdc>)
 8008614:	4f1a      	ldr	r7, [pc, #104]	@ (8008680 <__ieee754_sqrtf+0xe0>)
 8008616:	6830      	ldr	r0, [r6, #0]
 8008618:	6839      	ldr	r1, [r7, #0]
 800861a:	f7f8 fa6b 	bl	8000af4 <__aeabi_fsub>
 800861e:	f8d6 8000 	ldr.w	r8, [r6]
 8008622:	4601      	mov	r1, r0
 8008624:	4640      	mov	r0, r8
 8008626:	f7f8 fd17 	bl	8001058 <__aeabi_fcmple>
 800862a:	b150      	cbz	r0, 8008642 <__ieee754_sqrtf+0xa2>
 800862c:	6830      	ldr	r0, [r6, #0]
 800862e:	6839      	ldr	r1, [r7, #0]
 8008630:	f7f8 fa62 	bl	8000af8 <__addsf3>
 8008634:	6836      	ldr	r6, [r6, #0]
 8008636:	4601      	mov	r1, r0
 8008638:	4630      	mov	r0, r6
 800863a:	f7f8 fd03 	bl	8001044 <__aeabi_fcmplt>
 800863e:	b1c8      	cbz	r0, 8008674 <__ieee754_sqrtf+0xd4>
 8008640:	3402      	adds	r4, #2
 8008642:	1060      	asrs	r0, r4, #1
 8008644:	f100 507c 	add.w	r0, r0, #1056964608	@ 0x3f000000
 8008648:	eb00 50c5 	add.w	r0, r0, r5, lsl #23
 800864c:	e8bd 81f0 	ldmia.w	sp!, {r4, r5, r6, r7, r8, pc}
 8008650:	4601      	mov	r1, r0
 8008652:	f7f8 fb59 	bl	8000d08 <__aeabi_fmul>
 8008656:	4621      	mov	r1, r4
 8008658:	f7f8 fa4e 	bl	8000af8 <__addsf3>
 800865c:	e8bd 81f0 	ldmia.w	sp!, {r4, r5, r6, r7, r8, pc}
 8008660:	15c1      	asrs	r1, r0, #23
 8008662:	e7b4      	b.n	80085ce <__ieee754_sqrtf+0x2e>
 8008664:	4601      	mov	r1, r0
 8008666:	f7f8 fa45 	bl	8000af4 <__aeabi_fsub>
 800866a:	4601      	mov	r1, r0
 800866c:	f7f8 fc00 	bl	8000e70 <__aeabi_fdiv>
 8008670:	e8bd 81f0 	ldmia.w	sp!, {r4, r5, r6, r7, r8, pc}
 8008674:	3401      	adds	r4, #1
 8008676:	f024 0401 	bic.w	r4, r4, #1
 800867a:	e7e2      	b.n	8008642 <__ieee754_sqrtf+0xa2>
 800867c:	08009250 	.word	0x08009250
 8008680:	0800924c 	.word	0x0800924c
 8008684:	00000000 	.word	0x00000000

08008688 <floor>:
 8008688:	f3c1 5c0a 	ubfx	ip, r1, #20, #11
 800868c:	e92d 41f0 	stmdb	sp!, {r4, r5, r6, r7, r8, lr}
 8008690:	f2ac 35ff 	subw	r5, ip, #1023	@ 0x3ff
 8008694:	2d13      	cmp	r5, #19
 8008696:	4602      	mov	r2, r0
 8008698:	460b      	mov	r3, r1
 800869a:	460c      	mov	r4, r1
 800869c:	4606      	mov	r6, r0
 800869e:	dc22      	bgt.n	80086e6 <floor+0x5e>
 80086a0:	2d00      	cmp	r5, #0
 80086a2:	db42      	blt.n	800872a <floor+0xa2>
 80086a4:	f8df 80e0 	ldr.w	r8, [pc, #224]	@ 8008788 <floor+0x100>
 80086a8:	460f      	mov	r7, r1
 80086aa:	fa48 f805 	asr.w	r8, r8, r5
 80086ae:	ea01 0c08 	and.w	ip, r1, r8
 80086b2:	ea5c 0c00 	orrs.w	ip, ip, r0
 80086b6:	d01b      	beq.n	80086f0 <floor+0x68>
 80086b8:	a331      	add	r3, pc, #196	@ (adr r3, 8008780 <floor+0xf8>)
 80086ba:	e9d3 2300 	ldrd	r2, r3, [r3]
 80086be:	f7f7 fd55 	bl	800016c <__adddf3>
 80086c2:	2200      	movs	r2, #0
 80086c4:	2300      	movs	r3, #0
 80086c6:	f7f8 f997 	bl	80009f8 <__aeabi_dcmpgt>
 80086ca:	b140      	cbz	r0, 80086de <floor+0x56>
 80086cc:	2c00      	cmp	r4, #0
 80086ce:	da03      	bge.n	80086d8 <floor+0x50>
 80086d0:	f44f 1380 	mov.w	r3, #1048576	@ 0x100000
 80086d4:	412b      	asrs	r3, r5
 80086d6:	441f      	add	r7, r3
 80086d8:	2600      	movs	r6, #0
 80086da:	ea27 0408 	bic.w	r4, r7, r8
 80086de:	4621      	mov	r1, r4
 80086e0:	4630      	mov	r0, r6
 80086e2:	e8bd 81f0 	ldmia.w	sp!, {r4, r5, r6, r7, r8, pc}
 80086e6:	2d33      	cmp	r5, #51	@ 0x33
 80086e8:	dd06      	ble.n	80086f8 <floor+0x70>
 80086ea:	f5b5 6f80 	cmp.w	r5, #1024	@ 0x400
 80086ee:	d02c      	beq.n	800874a <floor+0xc2>
 80086f0:	4610      	mov	r0, r2
 80086f2:	4619      	mov	r1, r3
 80086f4:	e8bd 81f0 	ldmia.w	sp!, {r4, r5, r6, r7, r8, pc}
 80086f8:	f04f 37ff 	mov.w	r7, #4294967295
 80086fc:	f2ac 4c13 	subw	ip, ip, #1043	@ 0x413
 8008700:	fa27 f70c 	lsr.w	r7, r7, ip
 8008704:	4238      	tst	r0, r7
 8008706:	d0f3      	beq.n	80086f0 <floor+0x68>
 8008708:	a31d      	add	r3, pc, #116	@ (adr r3, 8008780 <floor+0xf8>)
 800870a:	e9d3 2300 	ldrd	r2, r3, [r3]
 800870e:	f7f7 fd2d 	bl	800016c <__adddf3>
 8008712:	2200      	movs	r2, #0
 8008714:	2300      	movs	r3, #0
 8008716:	f7f8 f96f 	bl	80009f8 <__aeabi_dcmpgt>
 800871a:	2800      	cmp	r0, #0
 800871c:	d0df      	beq.n	80086de <floor+0x56>
 800871e:	2c00      	cmp	r4, #0
 8008720:	4633      	mov	r3, r6
 8008722:	db1c      	blt.n	800875e <floor+0xd6>
 8008724:	ea23 0607 	bic.w	r6, r3, r7
 8008728:	e7d9      	b.n	80086de <floor+0x56>
 800872a:	a315      	add	r3, pc, #84	@ (adr r3, 8008780 <floor+0xf8>)
 800872c:	e9d3 2300 	ldrd	r2, r3, [r3]
 8008730:	f7f7 fd1c 	bl	800016c <__adddf3>
 8008734:	2200      	movs	r2, #0
 8008736:	2300      	movs	r3, #0
 8008738:	f7f8 f95e 	bl	80009f8 <__aeabi_dcmpgt>
 800873c:	2800      	cmp	r0, #0
 800873e:	d0ce      	beq.n	80086de <floor+0x56>
 8008740:	2c00      	cmp	r4, #0
 8008742:	db05      	blt.n	8008750 <floor+0xc8>
 8008744:	2600      	movs	r6, #0
 8008746:	4634      	mov	r4, r6
 8008748:	e7c9      	b.n	80086de <floor+0x56>
 800874a:	f7f7 fd0f 	bl	800016c <__adddf3>
 800874e:	e7d1      	b.n	80086f4 <floor+0x6c>
 8008750:	f024 4400 	bic.w	r4, r4, #2147483648	@ 0x80000000
 8008754:	4326      	orrs	r6, r4
 8008756:	d10d      	bne.n	8008774 <floor+0xec>
 8008758:	f04f 4400 	mov.w	r4, #2147483648	@ 0x80000000
 800875c:	e7bf      	b.n	80086de <floor+0x56>
 800875e:	2d14      	cmp	r5, #20
 8008760:	d006      	beq.n	8008770 <floor+0xe8>
 8008762:	2201      	movs	r2, #1
 8008764:	f1c5 0534 	rsb	r5, r5, #52	@ 0x34
 8008768:	40aa      	lsls	r2, r5
 800876a:	4413      	add	r3, r2
 800876c:	429e      	cmp	r6, r3
 800876e:	d9d9      	bls.n	8008724 <floor+0x9c>
 8008770:	3401      	adds	r4, #1
 8008772:	e7d7      	b.n	8008724 <floor+0x9c>
 8008774:	2600      	movs	r6, #0
 8008776:	4c05      	ldr	r4, [pc, #20]	@ (800878c <floor+0x104>)
 8008778:	e7b1      	b.n	80086de <floor+0x56>
 800877a:	bf00      	nop
 800877c:	f3af 8000 	nop.w
 8008780:	8800759c 	.word	0x8800759c
 8008784:	7e37e43c 	.word	0x7e37e43c
 8008788:	000fffff 	.word	0x000fffff
 800878c:	bff00000 	.word	0xbff00000

08008790 <__ieee754_atan2f>:
 8008790:	b570      	push	{r4, r5, r6, lr}
 8008792:	f021 4500 	bic.w	r5, r1, #2147483648	@ 0x80000000
 8008796:	f1b5 4fff 	cmp.w	r5, #2139095040	@ 0x7f800000
 800879a:	460a      	mov	r2, r1
 800879c:	4603      	mov	r3, r0
 800879e:	d82c      	bhi.n	80087fa <__ieee754_atan2f+0x6a>
 80087a0:	f020 4600 	bic.w	r6, r0, #2147483648	@ 0x80000000
 80087a4:	f1b6 4fff 	cmp.w	r6, #2139095040	@ 0x7f800000
 80087a8:	4684      	mov	ip, r0
 80087aa:	d826      	bhi.n	80087fa <__ieee754_atan2f+0x6a>
 80087ac:	f1b1 5f7e 	cmp.w	r1, #1065353216	@ 0x3f800000
 80087b0:	d035      	beq.n	800881e <__ieee754_atan2f+0x8e>
 80087b2:	178c      	asrs	r4, r1, #30
 80087b4:	f004 0402 	and.w	r4, r4, #2
 80087b8:	ea44 74d0 	orr.w	r4, r4, r0, lsr #31
 80087bc:	b316      	cbz	r6, 8008804 <__ieee754_atan2f+0x74>
 80087be:	b33d      	cbz	r5, 8008810 <__ieee754_atan2f+0x80>
 80087c0:	f1b5 4fff 	cmp.w	r5, #2139095040	@ 0x7f800000
 80087c4:	d033      	beq.n	800882e <__ieee754_atan2f+0x9e>
 80087c6:	f1b6 4fff 	cmp.w	r6, #2139095040	@ 0x7f800000
 80087ca:	d021      	beq.n	8008810 <__ieee754_atan2f+0x80>
 80087cc:	1b76      	subs	r6, r6, r5
 80087ce:	f1b6 5ff4 	cmp.w	r6, #511705088	@ 0x1e800000
 80087d2:	ea4f 50e6 	mov.w	r0, r6, asr #23
 80087d6:	da28      	bge.n	800882a <__ieee754_atan2f+0x9a>
 80087d8:	2900      	cmp	r1, #0
 80087da:	da33      	bge.n	8008844 <__ieee754_atan2f+0xb4>
 80087dc:	303c      	adds	r0, #60	@ 0x3c
 80087de:	da31      	bge.n	8008844 <__ieee754_atan2f+0xb4>
 80087e0:	2000      	movs	r0, #0
 80087e2:	2c01      	cmp	r4, #1
 80087e4:	d03f      	beq.n	8008866 <__ieee754_atan2f+0xd6>
 80087e6:	2c02      	cmp	r4, #2
 80087e8:	d035      	beq.n	8008856 <__ieee754_atan2f+0xc6>
 80087ea:	b12c      	cbz	r4, 80087f8 <__ieee754_atan2f+0x68>
 80087ec:	4924      	ldr	r1, [pc, #144]	@ (8008880 <__ieee754_atan2f+0xf0>)
 80087ee:	f7f8 f983 	bl	8000af8 <__addsf3>
 80087f2:	4924      	ldr	r1, [pc, #144]	@ (8008884 <__ieee754_atan2f+0xf4>)
 80087f4:	f7f8 f97e 	bl	8000af4 <__aeabi_fsub>
 80087f8:	bd70      	pop	{r4, r5, r6, pc}
 80087fa:	4619      	mov	r1, r3
 80087fc:	4610      	mov	r0, r2
 80087fe:	f7f8 f97b 	bl	8000af8 <__addsf3>
 8008802:	bd70      	pop	{r4, r5, r6, pc}
 8008804:	2c02      	cmp	r4, #2
 8008806:	d008      	beq.n	800881a <__ieee754_atan2f+0x8a>
 8008808:	2c03      	cmp	r4, #3
 800880a:	d1f5      	bne.n	80087f8 <__ieee754_atan2f+0x68>
 800880c:	481e      	ldr	r0, [pc, #120]	@ (8008888 <__ieee754_atan2f+0xf8>)
 800880e:	bd70      	pop	{r4, r5, r6, pc}
 8008810:	f1bc 0f00 	cmp.w	ip, #0
 8008814:	db07      	blt.n	8008826 <__ieee754_atan2f+0x96>
 8008816:	481d      	ldr	r0, [pc, #116]	@ (800888c <__ieee754_atan2f+0xfc>)
 8008818:	bd70      	pop	{r4, r5, r6, pc}
 800881a:	481a      	ldr	r0, [pc, #104]	@ (8008884 <__ieee754_atan2f+0xf4>)
 800881c:	bd70      	pop	{r4, r5, r6, pc}
 800881e:	e8bd 4070 	ldmia.w	sp!, {r4, r5, r6, lr}
 8008822:	f000 b83d 	b.w	80088a0 <atanf>
 8008826:	481a      	ldr	r0, [pc, #104]	@ (8008890 <__ieee754_atan2f+0x100>)
 8008828:	bd70      	pop	{r4, r5, r6, pc}
 800882a:	4818      	ldr	r0, [pc, #96]	@ (800888c <__ieee754_atan2f+0xfc>)
 800882c:	e7d9      	b.n	80087e2 <__ieee754_atan2f+0x52>
 800882e:	f1b6 4fff 	cmp.w	r6, #2139095040	@ 0x7f800000
 8008832:	f104 34ff 	add.w	r4, r4, #4294967295
 8008836:	d019      	beq.n	800886c <__ieee754_atan2f+0xdc>
 8008838:	2c02      	cmp	r4, #2
 800883a:	d81d      	bhi.n	8008878 <__ieee754_atan2f+0xe8>
 800883c:	4b15      	ldr	r3, [pc, #84]	@ (8008894 <__ieee754_atan2f+0x104>)
 800883e:	f853 0024 	ldr.w	r0, [r3, r4, lsl #2]
 8008842:	bd70      	pop	{r4, r5, r6, pc}
 8008844:	4611      	mov	r1, r2
 8008846:	4618      	mov	r0, r3
 8008848:	f7f8 fb12 	bl	8000e70 <__aeabi_fdiv>
 800884c:	f000 f93e 	bl	8008acc <fabsf>
 8008850:	f000 f826 	bl	80088a0 <atanf>
 8008854:	e7c5      	b.n	80087e2 <__ieee754_atan2f+0x52>
 8008856:	490a      	ldr	r1, [pc, #40]	@ (8008880 <__ieee754_atan2f+0xf0>)
 8008858:	f7f8 f94e 	bl	8000af8 <__addsf3>
 800885c:	4601      	mov	r1, r0
 800885e:	4809      	ldr	r0, [pc, #36]	@ (8008884 <__ieee754_atan2f+0xf4>)
 8008860:	f7f8 f948 	bl	8000af4 <__aeabi_fsub>
 8008864:	bd70      	pop	{r4, r5, r6, pc}
 8008866:	f100 4000 	add.w	r0, r0, #2147483648	@ 0x80000000
 800886a:	bd70      	pop	{r4, r5, r6, pc}
 800886c:	2c02      	cmp	r4, #2
 800886e:	d805      	bhi.n	800887c <__ieee754_atan2f+0xec>
 8008870:	4b09      	ldr	r3, [pc, #36]	@ (8008898 <__ieee754_atan2f+0x108>)
 8008872:	f853 0024 	ldr.w	r0, [r3, r4, lsl #2]
 8008876:	bd70      	pop	{r4, r5, r6, pc}
 8008878:	2000      	movs	r0, #0
 800887a:	bd70      	pop	{r4, r5, r6, pc}
 800887c:	4807      	ldr	r0, [pc, #28]	@ (800889c <__ieee754_atan2f+0x10c>)
 800887e:	bd70      	pop	{r4, r5, r6, pc}
 8008880:	33bbbd2e 	.word	0x33bbbd2e
 8008884:	40490fdb 	.word	0x40490fdb
 8008888:	c0490fdb 	.word	0xc0490fdb
 800888c:	3fc90fdb 	.word	0x3fc90fdb
 8008890:	bfc90fdb 	.word	0xbfc90fdb
 8008894:	08009254 	.word	0x08009254
 8008898:	08009260 	.word	0x08009260
 800889c:	3f490fdb 	.word	0x3f490fdb

080088a0 <atanf>:
 80088a0:	e92d 41f0 	stmdb	sp!, {r4, r5, r6, r7, r8, lr}
 80088a4:	f020 4500 	bic.w	r5, r0, #2147483648	@ 0x80000000
 80088a8:	f1b5 4fa1 	cmp.w	r5, #1350565888	@ 0x50800000
 80088ac:	4604      	mov	r4, r0
 80088ae:	4607      	mov	r7, r0
 80088b0:	d308      	bcc.n	80088c4 <atanf+0x24>
 80088b2:	f1b5 4fff 	cmp.w	r5, #2139095040	@ 0x7f800000
 80088b6:	d873      	bhi.n	80089a0 <atanf+0x100>
 80088b8:	2800      	cmp	r0, #0
 80088ba:	f340 80a1 	ble.w	8008a00 <atanf+0x160>
 80088be:	486f      	ldr	r0, [pc, #444]	@ (8008a7c <atanf+0x1dc>)
 80088c0:	e8bd 81f0 	ldmia.w	sp!, {r4, r5, r6, r7, r8, pc}
 80088c4:	4b6e      	ldr	r3, [pc, #440]	@ (8008a80 <atanf+0x1e0>)
 80088c6:	429d      	cmp	r5, r3
 80088c8:	d87a      	bhi.n	80089c0 <atanf+0x120>
 80088ca:	f1b5 5f44 	cmp.w	r5, #822083584	@ 0x31000000
 80088ce:	d36c      	bcc.n	80089aa <atanf+0x10a>
 80088d0:	f04f 38ff 	mov.w	r8, #4294967295
 80088d4:	4621      	mov	r1, r4
 80088d6:	4620      	mov	r0, r4
 80088d8:	f7f8 fa16 	bl	8000d08 <__aeabi_fmul>
 80088dc:	4601      	mov	r1, r0
 80088de:	4606      	mov	r6, r0
 80088e0:	f7f8 fa12 	bl	8000d08 <__aeabi_fmul>
 80088e4:	4605      	mov	r5, r0
 80088e6:	4967      	ldr	r1, [pc, #412]	@ (8008a84 <atanf+0x1e4>)
 80088e8:	f7f8 fa0e 	bl	8000d08 <__aeabi_fmul>
 80088ec:	4966      	ldr	r1, [pc, #408]	@ (8008a88 <atanf+0x1e8>)
 80088ee:	f7f8 f903 	bl	8000af8 <__addsf3>
 80088f2:	4629      	mov	r1, r5
 80088f4:	f7f8 fa08 	bl	8000d08 <__aeabi_fmul>
 80088f8:	4964      	ldr	r1, [pc, #400]	@ (8008a8c <atanf+0x1ec>)
 80088fa:	f7f8 f8fd 	bl	8000af8 <__addsf3>
 80088fe:	4629      	mov	r1, r5
 8008900:	f7f8 fa02 	bl	8000d08 <__aeabi_fmul>
 8008904:	4962      	ldr	r1, [pc, #392]	@ (8008a90 <atanf+0x1f0>)
 8008906:	f7f8 f8f7 	bl	8000af8 <__addsf3>
 800890a:	4629      	mov	r1, r5
 800890c:	f7f8 f9fc 	bl	8000d08 <__aeabi_fmul>
 8008910:	4960      	ldr	r1, [pc, #384]	@ (8008a94 <atanf+0x1f4>)
 8008912:	f7f8 f8f1 	bl	8000af8 <__addsf3>
 8008916:	4629      	mov	r1, r5
 8008918:	f7f8 f9f6 	bl	8000d08 <__aeabi_fmul>
 800891c:	495e      	ldr	r1, [pc, #376]	@ (8008a98 <atanf+0x1f8>)
 800891e:	f7f8 f8eb 	bl	8000af8 <__addsf3>
 8008922:	4631      	mov	r1, r6
 8008924:	f7f8 f9f0 	bl	8000d08 <__aeabi_fmul>
 8008928:	495c      	ldr	r1, [pc, #368]	@ (8008a9c <atanf+0x1fc>)
 800892a:	4606      	mov	r6, r0
 800892c:	4628      	mov	r0, r5
 800892e:	f7f8 f9eb 	bl	8000d08 <__aeabi_fmul>
 8008932:	495b      	ldr	r1, [pc, #364]	@ (8008aa0 <atanf+0x200>)
 8008934:	f7f8 f8de 	bl	8000af4 <__aeabi_fsub>
 8008938:	4629      	mov	r1, r5
 800893a:	f7f8 f9e5 	bl	8000d08 <__aeabi_fmul>
 800893e:	4959      	ldr	r1, [pc, #356]	@ (8008aa4 <atanf+0x204>)
 8008940:	f7f8 f8d8 	bl	8000af4 <__aeabi_fsub>
 8008944:	4629      	mov	r1, r5
 8008946:	f7f8 f9df 	bl	8000d08 <__aeabi_fmul>
 800894a:	4957      	ldr	r1, [pc, #348]	@ (8008aa8 <atanf+0x208>)
 800894c:	f7f8 f8d2 	bl	8000af4 <__aeabi_fsub>
 8008950:	4629      	mov	r1, r5
 8008952:	f7f8 f9d9 	bl	8000d08 <__aeabi_fmul>
 8008956:	4955      	ldr	r1, [pc, #340]	@ (8008aac <atanf+0x20c>)
 8008958:	f7f8 f8cc 	bl	8000af4 <__aeabi_fsub>
 800895c:	4629      	mov	r1, r5
 800895e:	f7f8 f9d3 	bl	8000d08 <__aeabi_fmul>
 8008962:	4601      	mov	r1, r0
 8008964:	4630      	mov	r0, r6
 8008966:	f7f8 f8c7 	bl	8000af8 <__addsf3>
 800896a:	4621      	mov	r1, r4
 800896c:	f7f8 f9cc 	bl	8000d08 <__aeabi_fmul>
 8008970:	f1b8 3fff 	cmp.w	r8, #4294967295
 8008974:	4601      	mov	r1, r0
 8008976:	d046      	beq.n	8008a06 <atanf+0x166>
 8008978:	4b4d      	ldr	r3, [pc, #308]	@ (8008ab0 <atanf+0x210>)
 800897a:	4d4e      	ldr	r5, [pc, #312]	@ (8008ab4 <atanf+0x214>)
 800897c:	f853 1028 	ldr.w	r1, [r3, r8, lsl #2]
 8008980:	f7f8 f8b8 	bl	8000af4 <__aeabi_fsub>
 8008984:	4621      	mov	r1, r4
 8008986:	f7f8 f8b5 	bl	8000af4 <__aeabi_fsub>
 800898a:	4601      	mov	r1, r0
 800898c:	f855 0028 	ldr.w	r0, [r5, r8, lsl #2]
 8008990:	f7f8 f8b0 	bl	8000af4 <__aeabi_fsub>
 8008994:	2f00      	cmp	r7, #0
 8008996:	da93      	bge.n	80088c0 <atanf+0x20>
 8008998:	f100 4000 	add.w	r0, r0, #2147483648	@ 0x80000000
 800899c:	e8bd 81f0 	ldmia.w	sp!, {r4, r5, r6, r7, r8, pc}
 80089a0:	4601      	mov	r1, r0
 80089a2:	f7f8 f8a9 	bl	8000af8 <__addsf3>
 80089a6:	e8bd 81f0 	ldmia.w	sp!, {r4, r5, r6, r7, r8, pc}
 80089aa:	4943      	ldr	r1, [pc, #268]	@ (8008ab8 <atanf+0x218>)
 80089ac:	f7f8 f8a4 	bl	8000af8 <__addsf3>
 80089b0:	f04f 517e 	mov.w	r1, #1065353216	@ 0x3f800000
 80089b4:	f7f8 fb64 	bl	8001080 <__aeabi_fcmpgt>
 80089b8:	2800      	cmp	r0, #0
 80089ba:	d089      	beq.n	80088d0 <atanf+0x30>
 80089bc:	4620      	mov	r0, r4
 80089be:	e77f      	b.n	80088c0 <atanf+0x20>
 80089c0:	f000 f884 	bl	8008acc <fabsf>
 80089c4:	4b3d      	ldr	r3, [pc, #244]	@ (8008abc <atanf+0x21c>)
 80089c6:	4604      	mov	r4, r0
 80089c8:	429d      	cmp	r5, r3
 80089ca:	d821      	bhi.n	8008a10 <atanf+0x170>
 80089cc:	f5a3 03d0 	sub.w	r3, r3, #6815744	@ 0x680000
 80089d0:	429d      	cmp	r5, r3
 80089d2:	d83f      	bhi.n	8008a54 <atanf+0x1b4>
 80089d4:	4601      	mov	r1, r0
 80089d6:	f7f8 f88f 	bl	8000af8 <__addsf3>
 80089da:	f04f 517e 	mov.w	r1, #1065353216	@ 0x3f800000
 80089de:	f7f8 f889 	bl	8000af4 <__aeabi_fsub>
 80089e2:	4603      	mov	r3, r0
 80089e4:	f04f 4180 	mov.w	r1, #1073741824	@ 0x40000000
 80089e8:	4620      	mov	r0, r4
 80089ea:	461c      	mov	r4, r3
 80089ec:	f7f8 f884 	bl	8000af8 <__addsf3>
 80089f0:	4601      	mov	r1, r0
 80089f2:	4620      	mov	r0, r4
 80089f4:	f7f8 fa3c 	bl	8000e70 <__aeabi_fdiv>
 80089f8:	f04f 0800 	mov.w	r8, #0
 80089fc:	4604      	mov	r4, r0
 80089fe:	e769      	b.n	80088d4 <atanf+0x34>
 8008a00:	482f      	ldr	r0, [pc, #188]	@ (8008ac0 <atanf+0x220>)
 8008a02:	e8bd 81f0 	ldmia.w	sp!, {r4, r5, r6, r7, r8, pc}
 8008a06:	4620      	mov	r0, r4
 8008a08:	f7f8 f874 	bl	8000af4 <__aeabi_fsub>
 8008a0c:	e8bd 81f0 	ldmia.w	sp!, {r4, r5, r6, r7, r8, pc}
 8008a10:	4b2c      	ldr	r3, [pc, #176]	@ (8008ac4 <atanf+0x224>)
 8008a12:	429d      	cmp	r5, r3
 8008a14:	d816      	bhi.n	8008a44 <atanf+0x1a4>
 8008a16:	f04f 517f 	mov.w	r1, #1069547520	@ 0x3fc00000
 8008a1a:	f7f8 f86b 	bl	8000af4 <__aeabi_fsub>
 8008a1e:	4603      	mov	r3, r0
 8008a20:	f04f 517f 	mov.w	r1, #1069547520	@ 0x3fc00000
 8008a24:	4620      	mov	r0, r4
 8008a26:	461c      	mov	r4, r3
 8008a28:	f7f8 f96e 	bl	8000d08 <__aeabi_fmul>
 8008a2c:	f04f 517e 	mov.w	r1, #1065353216	@ 0x3f800000
 8008a30:	f7f8 f862 	bl	8000af8 <__addsf3>
 8008a34:	4601      	mov	r1, r0
 8008a36:	4620      	mov	r0, r4
 8008a38:	f7f8 fa1a 	bl	8000e70 <__aeabi_fdiv>
 8008a3c:	f04f 0802 	mov.w	r8, #2
 8008a40:	4604      	mov	r4, r0
 8008a42:	e747      	b.n	80088d4 <atanf+0x34>
 8008a44:	4601      	mov	r1, r0
 8008a46:	4820      	ldr	r0, [pc, #128]	@ (8008ac8 <atanf+0x228>)
 8008a48:	f7f8 fa12 	bl	8000e70 <__aeabi_fdiv>
 8008a4c:	f04f 0803 	mov.w	r8, #3
 8008a50:	4604      	mov	r4, r0
 8008a52:	e73f      	b.n	80088d4 <atanf+0x34>
 8008a54:	f04f 517e 	mov.w	r1, #1065353216	@ 0x3f800000
 8008a58:	f7f8 f84c 	bl	8000af4 <__aeabi_fsub>
 8008a5c:	4603      	mov	r3, r0
 8008a5e:	f04f 517e 	mov.w	r1, #1065353216	@ 0x3f800000
 8008a62:	4620      	mov	r0, r4
 8008a64:	461c      	mov	r4, r3
 8008a66:	f7f8 f847 	bl	8000af8 <__addsf3>
 8008a6a:	4601      	mov	r1, r0
 8008a6c:	4620      	mov	r0, r4
 8008a6e:	f7f8 f9ff 	bl	8000e70 <__aeabi_fdiv>
 8008a72:	f04f 0801 	mov.w	r8, #1
 8008a76:	4604      	mov	r4, r0
 8008a78:	e72c      	b.n	80088d4 <atanf+0x34>
 8008a7a:	bf00      	nop
 8008a7c:	3fc90fdb 	.word	0x3fc90fdb
 8008a80:	3edfffff 	.word	0x3edfffff
 8008a84:	3c8569d7 	.word	0x3c8569d7
 8008a88:	3d4bda59 	.word	0x3d4bda59
 8008a8c:	3d886b35 	.word	0x3d886b35
 8008a90:	3dba2e6e 	.word	0x3dba2e6e
 8008a94:	3e124925 	.word	0x3e124925
 8008a98:	3eaaaaab 	.word	0x3eaaaaab
 8008a9c:	bd15a221 	.word	0xbd15a221
 8008aa0:	3d6ef16b 	.word	0x3d6ef16b
 8008aa4:	3d9d8795 	.word	0x3d9d8795
 8008aa8:	3de38e38 	.word	0x3de38e38
 8008aac:	3e4ccccd 	.word	0x3e4ccccd
 8008ab0:	0800926c 	.word	0x0800926c
 8008ab4:	0800927c 	.word	0x0800927c
 8008ab8:	7149f2ca 	.word	0x7149f2ca
 8008abc:	3f97ffff 	.word	0x3f97ffff
 8008ac0:	bfc90fdb 	.word	0xbfc90fdb
 8008ac4:	401bffff 	.word	0x401bffff
 8008ac8:	bf800000 	.word	0xbf800000

08008acc <fabsf>:
 8008acc:	f020 4000 	bic.w	r0, r0, #2147483648	@ 0x80000000
 8008ad0:	4770      	bx	lr
 8008ad2:	bf00      	nop

08008ad4 <_init>:
 8008ad4:	b5f8      	push	{r3, r4, r5, r6, r7, lr}
 8008ad6:	bf00      	nop
 8008ad8:	bcf8      	pop	{r3, r4, r5, r6, r7}
 8008ada:	bc08      	pop	{r3}
 8008adc:	469e      	mov	lr, r3
 8008ade:	4770      	bx	lr

08008ae0 <_fini>:
 8008ae0:	b5f8      	push	{r3, r4, r5, r6, r7, lr}
 8008ae2:	bf00      	nop
 8008ae4:	bcf8      	pop	{r3, r4, r5, r6, r7}
 8008ae6:	bc08      	pop	{r3}
 8008ae8:	469e      	mov	lr, r3
 8008aea:	4770      	bx	lr
